
kernel.o:     file format elf32-i386


Disassembly of section .text:

00100000 <_start>:
  100000:	bc 00 7c 00 00       	mov    esp,0x7c00
  100005:	89 1d ac ee 15 00    	mov    DWORD PTR ds:0x15eeac,ebx
  10000b:	0f 01 05 c8 4e 11 00 	sgdtd  ds:0x114ec8
  100012:	e8 36 00 00 00       	call   10004d <init_gdt_idt>
  100017:	e8 2e 01 00 00       	call   10014a <init_pic>
  10001c:	e8 ec 01 00 00       	call   10020d <setup_idt>
  100021:	e8 b4 04 00 00       	call   1004da <init_tss>
  100026:	0f 01 15 c8 4e 11 00 	lgdtd  ds:0x114ec8
  10002d:	0f 01 1d 40 4a 11 00 	lidtd  ds:0x114a40
  100034:	ea 3b 00 10 00 08 00 	jmp    0x8:0x10003b

0010003b <flush>:
  10003b:	31 c0                	xor    eax,eax
  10003d:	66 b8 20 00          	mov    ax,0x20
  100041:	0f 00 d8             	ltr    ax
  100044:	e8 40 0c 00 00       	call   100c89 <main>
  100049:	fb                   	sti    

0010004a <end>:
  10004a:	f4                   	hlt    
  10004b:	eb fd                	jmp    10004a <end>

0010004d <init_gdt_idt>:
  10004d:	55                   	push   ebp
  10004e:	89 e5                	mov    ebp,esp
  100050:	53                   	push   ebx
  100051:	83 ec 04             	sub    esp,0x4
  100054:	e8 fc 04 00 00       	call   100555 <__x86.get_pc_thunk.bx>
  100059:	81 c3 a7 3f 01 00    	add    ebx,0x13fa7
  10005f:	c7 c0 c8 4e 11 00    	mov    eax,0x114ec8
  100065:	0f b7 00             	movzx  eax,WORD PTR [eax]
  100068:	0f b7 c0             	movzx  eax,ax
  10006b:	8d 50 01             	lea    edx,[eax+0x1]
  10006e:	c7 c0 c8 4e 11 00    	mov    eax,0x114ec8
  100074:	8b 40 02             	mov    eax,DWORD PTR [eax+0x2]
  100077:	83 ec 04             	sub    esp,0x4
  10007a:	52                   	push   edx
  10007b:	50                   	push   eax
  10007c:	c7 c0 60 4a 11 00    	mov    eax,0x114a60
  100082:	50                   	push   eax
  100083:	e8 78 33 00 00       	call   103400 <memcpy>
  100088:	83 c4 10             	add    esp,0x10
  10008b:	c7 c0 c8 4e 11 00    	mov    eax,0x114ec8
  100091:	66 c7 00 ff 03       	mov    WORD PTR [eax],0x3ff
  100096:	c7 c0 60 4a 11 00    	mov    eax,0x114a60
  10009c:	89 c2                	mov    edx,eax
  10009e:	c7 c0 c8 4e 11 00    	mov    eax,0x114ec8
  1000a4:	89 50 02             	mov    DWORD PTR [eax+0x2],edx
  1000a7:	c7 c0 40 4a 11 00    	mov    eax,0x114a40
  1000ad:	66 c7 00 ff 07       	mov    WORD PTR [eax],0x7ff
  1000b2:	c7 c0 e0 4e 11 00    	mov    eax,0x114ee0
  1000b8:	89 c2                	mov    edx,eax
  1000ba:	c7 c0 40 4a 11 00    	mov    eax,0x114a40
  1000c0:	89 50 02             	mov    DWORD PTR [eax+0x2],edx
  1000c3:	90                   	nop
  1000c4:	8b 5d fc             	mov    ebx,DWORD PTR [ebp-0x4]
  1000c7:	c9                   	leave  
  1000c8:	c3                   	ret    

001000c9 <init_igate>:
  1000c9:	55                   	push   ebp
  1000ca:	89 e5                	mov    ebp,esp
  1000cc:	53                   	push   ebx
  1000cd:	83 ec 1c             	sub    esp,0x1c
  1000d0:	e8 7c 04 00 00       	call   100551 <__x86.get_pc_thunk.ax>
  1000d5:	05 2b 3f 01 00       	add    eax,0x13f2b
  1000da:	8b 5d 08             	mov    ebx,DWORD PTR [ebp+0x8]
  1000dd:	8b 4d 0c             	mov    ecx,DWORD PTR [ebp+0xc]
  1000e0:	8b 55 14             	mov    edx,DWORD PTR [ebp+0x14]
  1000e3:	88 5d e8             	mov    BYTE PTR [ebp-0x18],bl
  1000e6:	88 4d e4             	mov    BYTE PTR [ebp-0x1c],cl
  1000e9:	88 55 e0             	mov    BYTE PTR [ebp-0x20],dl
  1000ec:	0f b6 55 e8          	movzx  edx,BYTE PTR [ebp-0x18]
  1000f0:	c1 e2 03             	shl    edx,0x3
  1000f3:	c7 c0 e0 4e 11 00    	mov    eax,0x114ee0
  1000f9:	01 d0                	add    eax,edx
  1000fb:	89 45 f8             	mov    DWORD PTR [ebp-0x8],eax
  1000fe:	8b 45 10             	mov    eax,DWORD PTR [ebp+0x10]
  100101:	89 45 f4             	mov    DWORD PTR [ebp-0xc],eax
  100104:	8b 45 f4             	mov    eax,DWORD PTR [ebp-0xc]
  100107:	89 c2                	mov    edx,eax
  100109:	8b 45 f8             	mov    eax,DWORD PTR [ebp-0x8]
  10010c:	66 89 10             	mov    WORD PTR [eax],dx
  10010f:	8b 45 f8             	mov    eax,DWORD PTR [ebp-0x8]
  100112:	66 c7 40 02 08 00    	mov    WORD PTR [eax+0x2],0x8
  100118:	8b 45 f8             	mov    eax,DWORD PTR [ebp-0x8]
  10011b:	c6 40 04 00          	mov    BYTE PTR [eax+0x4],0x0
  10011f:	0f b6 45 e0          	movzx  eax,BYTE PTR [ebp-0x20]
  100123:	c1 e0 05             	shl    eax,0x5
  100126:	0a 45 e4             	or     al,BYTE PTR [ebp-0x1c]
  100129:	83 c8 80             	or     eax,0xffffff80
  10012c:	89 c2                	mov    edx,eax
  10012e:	8b 45 f8             	mov    eax,DWORD PTR [ebp-0x8]
  100131:	88 50 05             	mov    BYTE PTR [eax+0x5],dl
  100134:	8b 45 f4             	mov    eax,DWORD PTR [ebp-0xc]
  100137:	c1 e8 10             	shr    eax,0x10
  10013a:	89 c2                	mov    edx,eax
  10013c:	8b 45 f8             	mov    eax,DWORD PTR [ebp-0x8]
  10013f:	66 89 50 06          	mov    WORD PTR [eax+0x6],dx
  100143:	90                   	nop
  100144:	83 c4 1c             	add    esp,0x1c
  100147:	5b                   	pop    ebx
  100148:	5d                   	pop    ebp
  100149:	c3                   	ret    

0010014a <init_pic>:
  10014a:	55                   	push   ebp
  10014b:	89 e5                	mov    ebp,esp
  10014d:	53                   	push   ebx
  10014e:	83 ec 04             	sub    esp,0x4
  100151:	e8 ff 03 00 00       	call   100555 <__x86.get_pc_thunk.bx>
  100156:	81 c3 aa 3e 01 00    	add    ebx,0x13eaa
  10015c:	83 ec 08             	sub    esp,0x8
  10015f:	6a 11                	push   0x11
  100161:	6a 20                	push   0x20
  100163:	e8 74 32 00 00       	call   1033dc <out8>
  100168:	83 c4 10             	add    esp,0x10
  10016b:	83 ec 08             	sub    esp,0x8
  10016e:	6a 11                	push   0x11
  100170:	68 a0 00 00 00       	push   0xa0
  100175:	e8 62 32 00 00       	call   1033dc <out8>
  10017a:	83 c4 10             	add    esp,0x10
  10017d:	83 ec 08             	sub    esp,0x8
  100180:	6a 20                	push   0x20
  100182:	6a 21                	push   0x21
  100184:	e8 53 32 00 00       	call   1033dc <out8>
  100189:	83 c4 10             	add    esp,0x10
  10018c:	83 ec 08             	sub    esp,0x8
  10018f:	6a 28                	push   0x28
  100191:	68 a1 00 00 00       	push   0xa1
  100196:	e8 41 32 00 00       	call   1033dc <out8>
  10019b:	83 c4 10             	add    esp,0x10
  10019e:	83 ec 08             	sub    esp,0x8
  1001a1:	6a 04                	push   0x4
  1001a3:	6a 21                	push   0x21
  1001a5:	e8 32 32 00 00       	call   1033dc <out8>
  1001aa:	83 c4 10             	add    esp,0x10
  1001ad:	83 ec 08             	sub    esp,0x8
  1001b0:	6a 02                	push   0x2
  1001b2:	68 a1 00 00 00       	push   0xa1
  1001b7:	e8 20 32 00 00       	call   1033dc <out8>
  1001bc:	83 c4 10             	add    esp,0x10
  1001bf:	83 ec 08             	sub    esp,0x8
  1001c2:	6a 01                	push   0x1
  1001c4:	6a 21                	push   0x21
  1001c6:	e8 11 32 00 00       	call   1033dc <out8>
  1001cb:	83 c4 10             	add    esp,0x10
  1001ce:	83 ec 08             	sub    esp,0x8
  1001d1:	6a 01                	push   0x1
  1001d3:	68 a1 00 00 00       	push   0xa1
  1001d8:	e8 ff 31 00 00       	call   1033dc <out8>
  1001dd:	83 c4 10             	add    esp,0x10
  1001e0:	83 ec 08             	sub    esp,0x8
  1001e3:	68 fb 00 00 00       	push   0xfb
  1001e8:	6a 21                	push   0x21
  1001ea:	e8 ed 31 00 00       	call   1033dc <out8>
  1001ef:	83 c4 10             	add    esp,0x10
  1001f2:	83 ec 08             	sub    esp,0x8
  1001f5:	68 ff 00 00 00       	push   0xff
  1001fa:	68 a1 00 00 00       	push   0xa1
  1001ff:	e8 d8 31 00 00       	call   1033dc <out8>
  100204:	83 c4 10             	add    esp,0x10
  100207:	90                   	nop
  100208:	8b 5d fc             	mov    ebx,DWORD PTR [ebp-0x4]
  10020b:	c9                   	leave  
  10020c:	c3                   	ret    

0010020d <setup_idt>:
  10020d:	55                   	push   ebp
  10020e:	89 e5                	mov    ebp,esp
  100210:	53                   	push   ebx
  100211:	e8 3f 03 00 00       	call   100555 <__x86.get_pc_thunk.bx>
  100216:	81 c3 ea 3d 01 00    	add    ebx,0x13dea
  10021c:	6a 00                	push   0x0
  10021e:	c7 c0 60 05 10 00    	mov    eax,0x100560
  100224:	50                   	push   eax
  100225:	6a 0e                	push   0xe
  100227:	6a 00                	push   0x0
  100229:	e8 9b fe ff ff       	call   1000c9 <init_igate>
  10022e:	83 c4 10             	add    esp,0x10
  100231:	6a 00                	push   0x0
  100233:	c7 c0 66 05 10 00    	mov    eax,0x100566
  100239:	50                   	push   eax
  10023a:	6a 0e                	push   0xe
  10023c:	6a 01                	push   0x1
  10023e:	e8 86 fe ff ff       	call   1000c9 <init_igate>
  100243:	83 c4 10             	add    esp,0x10
  100246:	6a 00                	push   0x0
  100248:	c7 c0 6c 05 10 00    	mov    eax,0x10056c
  10024e:	50                   	push   eax
  10024f:	6a 0e                	push   0xe
  100251:	6a 02                	push   0x2
  100253:	e8 71 fe ff ff       	call   1000c9 <init_igate>
  100258:	83 c4 10             	add    esp,0x10
  10025b:	6a 03                	push   0x3
  10025d:	c7 c0 72 05 10 00    	mov    eax,0x100572
  100263:	50                   	push   eax
  100264:	6a 0e                	push   0xe
  100266:	6a 03                	push   0x3
  100268:	e8 5c fe ff ff       	call   1000c9 <init_igate>
  10026d:	83 c4 10             	add    esp,0x10
  100270:	6a 03                	push   0x3
  100272:	c7 c0 78 05 10 00    	mov    eax,0x100578
  100278:	50                   	push   eax
  100279:	6a 0e                	push   0xe
  10027b:	6a 04                	push   0x4
  10027d:	e8 47 fe ff ff       	call   1000c9 <init_igate>
  100282:	83 c4 10             	add    esp,0x10
  100285:	6a 00                	push   0x0
  100287:	c7 c0 7e 05 10 00    	mov    eax,0x10057e
  10028d:	50                   	push   eax
  10028e:	6a 0e                	push   0xe
  100290:	6a 05                	push   0x5
  100292:	e8 32 fe ff ff       	call   1000c9 <init_igate>
  100297:	83 c4 10             	add    esp,0x10
  10029a:	6a 00                	push   0x0
  10029c:	c7 c0 84 05 10 00    	mov    eax,0x100584
  1002a2:	50                   	push   eax
  1002a3:	6a 0e                	push   0xe
  1002a5:	6a 06                	push   0x6
  1002a7:	e8 1d fe ff ff       	call   1000c9 <init_igate>
  1002ac:	83 c4 10             	add    esp,0x10
  1002af:	6a 00                	push   0x0
  1002b1:	c7 c0 8a 05 10 00    	mov    eax,0x10058a
  1002b7:	50                   	push   eax
  1002b8:	6a 0e                	push   0xe
  1002ba:	6a 07                	push   0x7
  1002bc:	e8 08 fe ff ff       	call   1000c9 <init_igate>
  1002c1:	83 c4 10             	add    esp,0x10
  1002c4:	6a 00                	push   0x0
  1002c6:	c7 c0 90 05 10 00    	mov    eax,0x100590
  1002cc:	50                   	push   eax
  1002cd:	6a 0e                	push   0xe
  1002cf:	6a 08                	push   0x8
  1002d1:	e8 f3 fd ff ff       	call   1000c9 <init_igate>
  1002d6:	83 c4 10             	add    esp,0x10
  1002d9:	6a 00                	push   0x0
  1002db:	c7 c0 94 05 10 00    	mov    eax,0x100594
  1002e1:	50                   	push   eax
  1002e2:	6a 0e                	push   0xe
  1002e4:	6a 09                	push   0x9
  1002e6:	e8 de fd ff ff       	call   1000c9 <init_igate>
  1002eb:	83 c4 10             	add    esp,0x10
  1002ee:	6a 00                	push   0x0
  1002f0:	c7 c0 9a 05 10 00    	mov    eax,0x10059a
  1002f6:	50                   	push   eax
  1002f7:	6a 0e                	push   0xe
  1002f9:	6a 0a                	push   0xa
  1002fb:	e8 c9 fd ff ff       	call   1000c9 <init_igate>
  100300:	83 c4 10             	add    esp,0x10
  100303:	6a 00                	push   0x0
  100305:	c7 c0 9e 05 10 00    	mov    eax,0x10059e
  10030b:	50                   	push   eax
  10030c:	6a 0e                	push   0xe
  10030e:	6a 0b                	push   0xb
  100310:	e8 b4 fd ff ff       	call   1000c9 <init_igate>
  100315:	83 c4 10             	add    esp,0x10
  100318:	6a 00                	push   0x0
  10031a:	c7 c0 a2 05 10 00    	mov    eax,0x1005a2
  100320:	50                   	push   eax
  100321:	6a 0e                	push   0xe
  100323:	6a 0c                	push   0xc
  100325:	e8 9f fd ff ff       	call   1000c9 <init_igate>
  10032a:	83 c4 10             	add    esp,0x10
  10032d:	6a 00                	push   0x0
  10032f:	c7 c0 a6 05 10 00    	mov    eax,0x1005a6
  100335:	50                   	push   eax
  100336:	6a 0e                	push   0xe
  100338:	6a 0d                	push   0xd
  10033a:	e8 8a fd ff ff       	call   1000c9 <init_igate>
  10033f:	83 c4 10             	add    esp,0x10
  100342:	6a 00                	push   0x0
  100344:	c7 c0 aa 05 10 00    	mov    eax,0x1005aa
  10034a:	50                   	push   eax
  10034b:	6a 0e                	push   0xe
  10034d:	6a 0e                	push   0xe
  10034f:	e8 75 fd ff ff       	call   1000c9 <init_igate>
  100354:	83 c4 10             	add    esp,0x10
  100357:	6a 00                	push   0x0
  100359:	c7 c0 ae 05 10 00    	mov    eax,0x1005ae
  10035f:	50                   	push   eax
  100360:	6a 0e                	push   0xe
  100362:	6a 10                	push   0x10
  100364:	e8 60 fd ff ff       	call   1000c9 <init_igate>
  100369:	83 c4 10             	add    esp,0x10
  10036c:	6a 00                	push   0x0
  10036e:	c7 c0 c0 05 10 00    	mov    eax,0x1005c0
  100374:	50                   	push   eax
  100375:	6a 0e                	push   0xe
  100377:	6a 20                	push   0x20
  100379:	e8 4b fd ff ff       	call   1000c9 <init_igate>
  10037e:	83 c4 10             	add    esp,0x10
  100381:	6a 00                	push   0x0
  100383:	c7 c0 f0 05 10 00    	mov    eax,0x1005f0
  100389:	50                   	push   eax
  10038a:	6a 0e                	push   0xe
  10038c:	6a 21                	push   0x21
  10038e:	e8 36 fd ff ff       	call   1000c9 <init_igate>
  100393:	83 c4 10             	add    esp,0x10
  100396:	6a 00                	push   0x0
  100398:	c7 c0 20 06 10 00    	mov    eax,0x100620
  10039e:	50                   	push   eax
  10039f:	6a 0e                	push   0xe
  1003a1:	6a 22                	push   0x22
  1003a3:	e8 21 fd ff ff       	call   1000c9 <init_igate>
  1003a8:	83 c4 10             	add    esp,0x10
  1003ab:	6a 00                	push   0x0
  1003ad:	c7 c0 50 06 10 00    	mov    eax,0x100650
  1003b3:	50                   	push   eax
  1003b4:	6a 0e                	push   0xe
  1003b6:	6a 23                	push   0x23
  1003b8:	e8 0c fd ff ff       	call   1000c9 <init_igate>
  1003bd:	83 c4 10             	add    esp,0x10
  1003c0:	6a 00                	push   0x0
  1003c2:	c7 c0 80 06 10 00    	mov    eax,0x100680
  1003c8:	50                   	push   eax
  1003c9:	6a 0e                	push   0xe
  1003cb:	6a 24                	push   0x24
  1003cd:	e8 f7 fc ff ff       	call   1000c9 <init_igate>
  1003d2:	83 c4 10             	add    esp,0x10
  1003d5:	6a 00                	push   0x0
  1003d7:	c7 c0 b0 06 10 00    	mov    eax,0x1006b0
  1003dd:	50                   	push   eax
  1003de:	6a 0e                	push   0xe
  1003e0:	6a 25                	push   0x25
  1003e2:	e8 e2 fc ff ff       	call   1000c9 <init_igate>
  1003e7:	83 c4 10             	add    esp,0x10
  1003ea:	6a 00                	push   0x0
  1003ec:	c7 c0 e0 06 10 00    	mov    eax,0x1006e0
  1003f2:	50                   	push   eax
  1003f3:	6a 0e                	push   0xe
  1003f5:	6a 26                	push   0x26
  1003f7:	e8 cd fc ff ff       	call   1000c9 <init_igate>
  1003fc:	83 c4 10             	add    esp,0x10
  1003ff:	6a 00                	push   0x0
  100401:	c7 c0 10 07 10 00    	mov    eax,0x100710
  100407:	50                   	push   eax
  100408:	6a 0e                	push   0xe
  10040a:	6a 27                	push   0x27
  10040c:	e8 b8 fc ff ff       	call   1000c9 <init_igate>
  100411:	83 c4 10             	add    esp,0x10
  100414:	6a 00                	push   0x0
  100416:	c7 c0 40 07 10 00    	mov    eax,0x100740
  10041c:	50                   	push   eax
  10041d:	6a 0e                	push   0xe
  10041f:	6a 28                	push   0x28
  100421:	e8 a3 fc ff ff       	call   1000c9 <init_igate>
  100426:	83 c4 10             	add    esp,0x10
  100429:	6a 00                	push   0x0
  10042b:	c7 c0 70 07 10 00    	mov    eax,0x100770
  100431:	50                   	push   eax
  100432:	6a 0e                	push   0xe
  100434:	6a 29                	push   0x29
  100436:	e8 8e fc ff ff       	call   1000c9 <init_igate>
  10043b:	83 c4 10             	add    esp,0x10
  10043e:	6a 00                	push   0x0
  100440:	c7 c0 a0 07 10 00    	mov    eax,0x1007a0
  100446:	50                   	push   eax
  100447:	6a 0e                	push   0xe
  100449:	6a 2a                	push   0x2a
  10044b:	e8 79 fc ff ff       	call   1000c9 <init_igate>
  100450:	83 c4 10             	add    esp,0x10
  100453:	6a 00                	push   0x0
  100455:	c7 c0 d0 07 10 00    	mov    eax,0x1007d0
  10045b:	50                   	push   eax
  10045c:	6a 0e                	push   0xe
  10045e:	6a 2b                	push   0x2b
  100460:	e8 64 fc ff ff       	call   1000c9 <init_igate>
  100465:	83 c4 10             	add    esp,0x10
  100468:	6a 00                	push   0x0
  10046a:	c7 c0 00 08 10 00    	mov    eax,0x100800
  100470:	50                   	push   eax
  100471:	6a 0e                	push   0xe
  100473:	6a 2c                	push   0x2c
  100475:	e8 4f fc ff ff       	call   1000c9 <init_igate>
  10047a:	83 c4 10             	add    esp,0x10
  10047d:	6a 00                	push   0x0
  10047f:	c7 c0 30 08 10 00    	mov    eax,0x100830
  100485:	50                   	push   eax
  100486:	6a 0e                	push   0xe
  100488:	6a 2d                	push   0x2d
  10048a:	e8 3a fc ff ff       	call   1000c9 <init_igate>
  10048f:	83 c4 10             	add    esp,0x10
  100492:	6a 00                	push   0x0
  100494:	c7 c0 60 08 10 00    	mov    eax,0x100860
  10049a:	50                   	push   eax
  10049b:	6a 0e                	push   0xe
  10049d:	6a 2e                	push   0x2e
  10049f:	e8 25 fc ff ff       	call   1000c9 <init_igate>
  1004a4:	83 c4 10             	add    esp,0x10
  1004a7:	6a 00                	push   0x0
  1004a9:	c7 c0 90 08 10 00    	mov    eax,0x100890
  1004af:	50                   	push   eax
  1004b0:	6a 0e                	push   0xe
  1004b2:	6a 2f                	push   0x2f
  1004b4:	e8 10 fc ff ff       	call   1000c9 <init_igate>
  1004b9:	83 c4 10             	add    esp,0x10
  1004bc:	6a 03                	push   0x3
  1004be:	c7 c0 c0 08 10 00    	mov    eax,0x1008c0
  1004c4:	50                   	push   eax
  1004c5:	6a 0e                	push   0xe
  1004c7:	68 90 00 00 00       	push   0x90
  1004cc:	e8 f8 fb ff ff       	call   1000c9 <init_igate>
  1004d1:	83 c4 10             	add    esp,0x10
  1004d4:	90                   	nop
  1004d5:	8b 5d fc             	mov    ebx,DWORD PTR [ebp-0x4]
  1004d8:	c9                   	leave  
  1004d9:	c3                   	ret    

001004da <init_tss>:
  1004da:	55                   	push   ebp
  1004db:	89 e5                	mov    ebp,esp
  1004dd:	53                   	push   ebx
  1004de:	83 ec 04             	sub    esp,0x4
  1004e1:	e8 6f 00 00 00       	call   100555 <__x86.get_pc_thunk.bx>
  1004e6:	81 c3 1a 3b 01 00    	add    ebx,0x13b1a
  1004ec:	83 ec 04             	sub    esp,0x4
  1004ef:	6a 68                	push   0x68
  1004f1:	6a 00                	push   0x0
  1004f3:	c7 c0 60 4e 11 00    	mov    eax,0x114e60
  1004f9:	50                   	push   eax
  1004fa:	e8 2a 2f 00 00       	call   103429 <memset>
  1004ff:	83 c4 10             	add    esp,0x10
  100502:	c7 c0 60 4e 11 00    	mov    eax,0x114e60
  100508:	66 c7 40 08 10 00    	mov    WORD PTR [eax+0x8],0x10
  10050e:	c7 c0 60 4e 11 00    	mov    eax,0x114e60
  100514:	66 c7 40 66 68 00    	mov    WORD PTR [eax+0x66],0x68
  10051a:	83 ec 0c             	sub    esp,0xc
  10051d:	6a 10                	push   0x10
  10051f:	e8 7e 06 00 00       	call   100ba2 <seg2phys>
  100524:	83 c4 10             	add    esp,0x10
  100527:	89 c2                	mov    edx,eax
  100529:	c7 c0 60 4e 11 00    	mov    eax,0x114e60
  10052f:	01 d0                	add    eax,edx
  100531:	68 89 00 00 00       	push   0x89
  100536:	6a 67                	push   0x67
  100538:	50                   	push   eax
  100539:	c7 c0 60 4a 11 00    	mov    eax,0x114a60
  10053f:	8d 40 20             	lea    eax,[eax+0x20]
  100542:	50                   	push   eax
  100543:	e8 e3 05 00 00       	call   100b2b <set_seg_desc>
  100548:	83 c4 10             	add    esp,0x10
  10054b:	90                   	nop
  10054c:	8b 5d fc             	mov    ebx,DWORD PTR [ebp-0x4]
  10054f:	c9                   	leave  
  100550:	c3                   	ret    

00100551 <__x86.get_pc_thunk.ax>:
  100551:	8b 04 24             	mov    eax,DWORD PTR [esp]
  100554:	c3                   	ret    

00100555 <__x86.get_pc_thunk.bx>:
  100555:	8b 1c 24             	mov    ebx,DWORD PTR [esp]
  100558:	c3                   	ret    
  100559:	66 90                	xchg   ax,ax
  10055b:	66 90                	xchg   ax,ax
  10055d:	66 90                	xchg   ax,ax
  10055f:	90                   	nop

00100560 <divide_error>:
  100560:	6a ff                	push   0xffffffff
  100562:	6a 00                	push   0x0
  100564:	eb 4e                	jmp    1005b4 <exception>

00100566 <single_step_exception>:
  100566:	6a ff                	push   0xffffffff
  100568:	6a 01                	push   0x1
  10056a:	eb 48                	jmp    1005b4 <exception>

0010056c <nmi>:
  10056c:	6a ff                	push   0xffffffff
  10056e:	6a 02                	push   0x2
  100570:	eb 42                	jmp    1005b4 <exception>

00100572 <breakpoint_exception>:
  100572:	6a ff                	push   0xffffffff
  100574:	6a 03                	push   0x3
  100576:	eb 3c                	jmp    1005b4 <exception>

00100578 <overflow>:
  100578:	6a ff                	push   0xffffffff
  10057a:	6a 04                	push   0x4
  10057c:	eb 36                	jmp    1005b4 <exception>

0010057e <bounds_check>:
  10057e:	6a ff                	push   0xffffffff
  100580:	6a 05                	push   0x5
  100582:	eb 30                	jmp    1005b4 <exception>

00100584 <inval_opcode>:
  100584:	6a ff                	push   0xffffffff
  100586:	6a 06                	push   0x6
  100588:	eb 2a                	jmp    1005b4 <exception>

0010058a <copr_not_available>:
  10058a:	6a ff                	push   0xffffffff
  10058c:	6a 07                	push   0x7
  10058e:	eb 24                	jmp    1005b4 <exception>

00100590 <double_fault>:
  100590:	6a 08                	push   0x8
  100592:	eb 20                	jmp    1005b4 <exception>

00100594 <copr_seg_overrun>:
  100594:	6a ff                	push   0xffffffff
  100596:	6a 09                	push   0x9
  100598:	eb 1a                	jmp    1005b4 <exception>

0010059a <inval_tss>:
  10059a:	6a 0a                	push   0xa
  10059c:	eb 16                	jmp    1005b4 <exception>

0010059e <segment_not_present>:
  10059e:	6a 0b                	push   0xb
  1005a0:	eb 12                	jmp    1005b4 <exception>

001005a2 <stack_exception>:
  1005a2:	6a 0c                	push   0xc
  1005a4:	eb 0e                	jmp    1005b4 <exception>

001005a6 <general_protection>:
  1005a6:	6a 0d                	push   0xd
  1005a8:	eb 0a                	jmp    1005b4 <exception>

001005aa <page_fault>:
  1005aa:	6a 0e                	push   0xe
  1005ac:	eb 06                	jmp    1005b4 <exception>

001005ae <copr_error>:
  1005ae:	6a ff                	push   0xffffffff
  1005b0:	6a 10                	push   0x10
  1005b2:	eb 00                	jmp    1005b4 <exception>

001005b4 <exception>:
  1005b4:	e8 7b 03 00 00       	call   100934 <exception_handler>
  1005b9:	83 c4 08             	add    esp,0x8
  1005bc:	f4                   	hlt    
  1005bd:	90                   	nop
  1005be:	90                   	nop
  1005bf:	90                   	nop

001005c0 <hwint00>:
  1005c0:	e8 6b 06 00 00       	call   100c30 <save>
  1005c5:	e4 21                	in     al,0x21
  1005c7:	0c 01                	or     al,0x1
  1005c9:	e6 21                	out    0x21,al
  1005cb:	b0 20                	mov    al,0x20
  1005cd:	e6 20                	out    0x20,al
  1005cf:	fb                   	sti    
  1005d0:	6a 00                	push   0x0
  1005d2:	ff 15 80 40 11 00    	call   DWORD PTR ds:0x114080
  1005d8:	59                   	pop    ecx
  1005d9:	fa                   	cli    
  1005da:	e4 21                	in     al,0x21
  1005dc:	24 fe                	and    al,0xfe
  1005de:	e6 21                	out    0x21,al
  1005e0:	c3                   	ret    
  1005e1:	90                   	nop
  1005e2:	90                   	nop
  1005e3:	90                   	nop
  1005e4:	90                   	nop
  1005e5:	90                   	nop
  1005e6:	90                   	nop
  1005e7:	90                   	nop
  1005e8:	90                   	nop
  1005e9:	90                   	nop
  1005ea:	90                   	nop
  1005eb:	90                   	nop
  1005ec:	90                   	nop
  1005ed:	90                   	nop
  1005ee:	90                   	nop
  1005ef:	90                   	nop

001005f0 <hwint01>:
  1005f0:	e8 3b 06 00 00       	call   100c30 <save>
  1005f5:	e4 21                	in     al,0x21
  1005f7:	0c 02                	or     al,0x2
  1005f9:	e6 21                	out    0x21,al
  1005fb:	b0 20                	mov    al,0x20
  1005fd:	e6 20                	out    0x20,al
  1005ff:	fb                   	sti    
  100600:	6a 01                	push   0x1
  100602:	ff 15 84 40 11 00    	call   DWORD PTR ds:0x114084
  100608:	59                   	pop    ecx
  100609:	fa                   	cli    
  10060a:	e4 21                	in     al,0x21
  10060c:	24 fd                	and    al,0xfd
  10060e:	e6 21                	out    0x21,al
  100610:	c3                   	ret    
  100611:	90                   	nop
  100612:	90                   	nop
  100613:	90                   	nop
  100614:	90                   	nop
  100615:	90                   	nop
  100616:	90                   	nop
  100617:	90                   	nop
  100618:	90                   	nop
  100619:	90                   	nop
  10061a:	90                   	nop
  10061b:	90                   	nop
  10061c:	90                   	nop
  10061d:	90                   	nop
  10061e:	90                   	nop
  10061f:	90                   	nop

00100620 <hwint02>:
  100620:	e8 0b 06 00 00       	call   100c30 <save>
  100625:	e4 21                	in     al,0x21
  100627:	0c 04                	or     al,0x4
  100629:	e6 21                	out    0x21,al
  10062b:	b0 20                	mov    al,0x20
  10062d:	e6 20                	out    0x20,al
  10062f:	fb                   	sti    
  100630:	6a 02                	push   0x2
  100632:	ff 15 88 40 11 00    	call   DWORD PTR ds:0x114088
  100638:	59                   	pop    ecx
  100639:	fa                   	cli    
  10063a:	e4 21                	in     al,0x21
  10063c:	24 fb                	and    al,0xfb
  10063e:	e6 21                	out    0x21,al
  100640:	c3                   	ret    
  100641:	90                   	nop
  100642:	90                   	nop
  100643:	90                   	nop
  100644:	90                   	nop
  100645:	90                   	nop
  100646:	90                   	nop
  100647:	90                   	nop
  100648:	90                   	nop
  100649:	90                   	nop
  10064a:	90                   	nop
  10064b:	90                   	nop
  10064c:	90                   	nop
  10064d:	90                   	nop
  10064e:	90                   	nop
  10064f:	90                   	nop

00100650 <hwint03>:
  100650:	e8 db 05 00 00       	call   100c30 <save>
  100655:	e4 21                	in     al,0x21
  100657:	0c 08                	or     al,0x8
  100659:	e6 21                	out    0x21,al
  10065b:	b0 20                	mov    al,0x20
  10065d:	e6 20                	out    0x20,al
  10065f:	fb                   	sti    
  100660:	6a 03                	push   0x3
  100662:	ff 15 8c 40 11 00    	call   DWORD PTR ds:0x11408c
  100668:	59                   	pop    ecx
  100669:	fa                   	cli    
  10066a:	e4 21                	in     al,0x21
  10066c:	24 f7                	and    al,0xf7
  10066e:	e6 21                	out    0x21,al
  100670:	c3                   	ret    
  100671:	90                   	nop
  100672:	90                   	nop
  100673:	90                   	nop
  100674:	90                   	nop
  100675:	90                   	nop
  100676:	90                   	nop
  100677:	90                   	nop
  100678:	90                   	nop
  100679:	90                   	nop
  10067a:	90                   	nop
  10067b:	90                   	nop
  10067c:	90                   	nop
  10067d:	90                   	nop
  10067e:	90                   	nop
  10067f:	90                   	nop

00100680 <hwint04>:
  100680:	e8 ab 05 00 00       	call   100c30 <save>
  100685:	e4 21                	in     al,0x21
  100687:	0c 10                	or     al,0x10
  100689:	e6 21                	out    0x21,al
  10068b:	b0 20                	mov    al,0x20
  10068d:	e6 20                	out    0x20,al
  10068f:	fb                   	sti    
  100690:	6a 04                	push   0x4
  100692:	ff 15 90 40 11 00    	call   DWORD PTR ds:0x114090
  100698:	59                   	pop    ecx
  100699:	fa                   	cli    
  10069a:	e4 21                	in     al,0x21
  10069c:	24 ef                	and    al,0xef
  10069e:	e6 21                	out    0x21,al
  1006a0:	c3                   	ret    
  1006a1:	90                   	nop
  1006a2:	90                   	nop
  1006a3:	90                   	nop
  1006a4:	90                   	nop
  1006a5:	90                   	nop
  1006a6:	90                   	nop
  1006a7:	90                   	nop
  1006a8:	90                   	nop
  1006a9:	90                   	nop
  1006aa:	90                   	nop
  1006ab:	90                   	nop
  1006ac:	90                   	nop
  1006ad:	90                   	nop
  1006ae:	90                   	nop
  1006af:	90                   	nop

001006b0 <hwint05>:
  1006b0:	e8 7b 05 00 00       	call   100c30 <save>
  1006b5:	e4 21                	in     al,0x21
  1006b7:	0c 20                	or     al,0x20
  1006b9:	e6 21                	out    0x21,al
  1006bb:	b0 20                	mov    al,0x20
  1006bd:	e6 20                	out    0x20,al
  1006bf:	fb                   	sti    
  1006c0:	6a 05                	push   0x5
  1006c2:	ff 15 94 40 11 00    	call   DWORD PTR ds:0x114094
  1006c8:	59                   	pop    ecx
  1006c9:	fa                   	cli    
  1006ca:	e4 21                	in     al,0x21
  1006cc:	24 df                	and    al,0xdf
  1006ce:	e6 21                	out    0x21,al
  1006d0:	c3                   	ret    
  1006d1:	90                   	nop
  1006d2:	90                   	nop
  1006d3:	90                   	nop
  1006d4:	90                   	nop
  1006d5:	90                   	nop
  1006d6:	90                   	nop
  1006d7:	90                   	nop
  1006d8:	90                   	nop
  1006d9:	90                   	nop
  1006da:	90                   	nop
  1006db:	90                   	nop
  1006dc:	90                   	nop
  1006dd:	90                   	nop
  1006de:	90                   	nop
  1006df:	90                   	nop

001006e0 <hwint06>:
  1006e0:	e8 4b 05 00 00       	call   100c30 <save>
  1006e5:	e4 21                	in     al,0x21
  1006e7:	0c 40                	or     al,0x40
  1006e9:	e6 21                	out    0x21,al
  1006eb:	b0 20                	mov    al,0x20
  1006ed:	e6 20                	out    0x20,al
  1006ef:	fb                   	sti    
  1006f0:	6a 06                	push   0x6
  1006f2:	ff 15 98 40 11 00    	call   DWORD PTR ds:0x114098
  1006f8:	59                   	pop    ecx
  1006f9:	fa                   	cli    
  1006fa:	e4 21                	in     al,0x21
  1006fc:	24 bf                	and    al,0xbf
  1006fe:	e6 21                	out    0x21,al
  100700:	c3                   	ret    
  100701:	90                   	nop
  100702:	90                   	nop
  100703:	90                   	nop
  100704:	90                   	nop
  100705:	90                   	nop
  100706:	90                   	nop
  100707:	90                   	nop
  100708:	90                   	nop
  100709:	90                   	nop
  10070a:	90                   	nop
  10070b:	90                   	nop
  10070c:	90                   	nop
  10070d:	90                   	nop
  10070e:	90                   	nop
  10070f:	90                   	nop

00100710 <hwint07>:
  100710:	e8 1b 05 00 00       	call   100c30 <save>
  100715:	e4 21                	in     al,0x21
  100717:	0c 80                	or     al,0x80
  100719:	e6 21                	out    0x21,al
  10071b:	b0 20                	mov    al,0x20
  10071d:	e6 20                	out    0x20,al
  10071f:	fb                   	sti    
  100720:	6a 07                	push   0x7
  100722:	ff 15 9c 40 11 00    	call   DWORD PTR ds:0x11409c
  100728:	59                   	pop    ecx
  100729:	fa                   	cli    
  10072a:	e4 21                	in     al,0x21
  10072c:	24 7f                	and    al,0x7f
  10072e:	e6 21                	out    0x21,al
  100730:	c3                   	ret    
  100731:	90                   	nop
  100732:	90                   	nop
  100733:	90                   	nop
  100734:	90                   	nop
  100735:	90                   	nop
  100736:	90                   	nop
  100737:	90                   	nop
  100738:	90                   	nop
  100739:	90                   	nop
  10073a:	90                   	nop
  10073b:	90                   	nop
  10073c:	90                   	nop
  10073d:	90                   	nop
  10073e:	90                   	nop
  10073f:	90                   	nop

00100740 <hwint08>:
  100740:	e8 eb 04 00 00       	call   100c30 <save>
  100745:	e4 a1                	in     al,0xa1
  100747:	0c 01                	or     al,0x1
  100749:	e6 a1                	out    0xa1,al
  10074b:	b0 20                	mov    al,0x20
  10074d:	e6 20                	out    0x20,al
  10074f:	90                   	nop
  100750:	e6 a0                	out    0xa0,al
  100752:	90                   	nop
  100753:	fb                   	sti    
  100754:	6a 08                	push   0x8
  100756:	ff 15 a0 40 11 00    	call   DWORD PTR ds:0x1140a0
  10075c:	59                   	pop    ecx
  10075d:	fa                   	cli    
  10075e:	e4 a1                	in     al,0xa1
  100760:	24 fe                	and    al,0xfe
  100762:	e6 a1                	out    0xa1,al
  100764:	c3                   	ret    
  100765:	90                   	nop
  100766:	90                   	nop
  100767:	90                   	nop
  100768:	90                   	nop
  100769:	90                   	nop
  10076a:	90                   	nop
  10076b:	90                   	nop
  10076c:	90                   	nop
  10076d:	90                   	nop
  10076e:	90                   	nop
  10076f:	90                   	nop

00100770 <hwint09>:
  100770:	e8 bb 04 00 00       	call   100c30 <save>
  100775:	e4 a1                	in     al,0xa1
  100777:	0c 02                	or     al,0x2
  100779:	e6 a1                	out    0xa1,al
  10077b:	b0 20                	mov    al,0x20
  10077d:	e6 20                	out    0x20,al
  10077f:	90                   	nop
  100780:	e6 a0                	out    0xa0,al
  100782:	90                   	nop
  100783:	fb                   	sti    
  100784:	6a 09                	push   0x9
  100786:	ff 15 a4 40 11 00    	call   DWORD PTR ds:0x1140a4
  10078c:	59                   	pop    ecx
  10078d:	fa                   	cli    
  10078e:	e4 a1                	in     al,0xa1
  100790:	24 fd                	and    al,0xfd
  100792:	e6 a1                	out    0xa1,al
  100794:	c3                   	ret    
  100795:	90                   	nop
  100796:	90                   	nop
  100797:	90                   	nop
  100798:	90                   	nop
  100799:	90                   	nop
  10079a:	90                   	nop
  10079b:	90                   	nop
  10079c:	90                   	nop
  10079d:	90                   	nop
  10079e:	90                   	nop
  10079f:	90                   	nop

001007a0 <hwint10>:
  1007a0:	e8 8b 04 00 00       	call   100c30 <save>
  1007a5:	e4 a1                	in     al,0xa1
  1007a7:	0c 04                	or     al,0x4
  1007a9:	e6 a1                	out    0xa1,al
  1007ab:	b0 20                	mov    al,0x20
  1007ad:	e6 20                	out    0x20,al
  1007af:	90                   	nop
  1007b0:	e6 a0                	out    0xa0,al
  1007b2:	90                   	nop
  1007b3:	fb                   	sti    
  1007b4:	6a 0a                	push   0xa
  1007b6:	ff 15 a8 40 11 00    	call   DWORD PTR ds:0x1140a8
  1007bc:	59                   	pop    ecx
  1007bd:	fa                   	cli    
  1007be:	e4 a1                	in     al,0xa1
  1007c0:	24 fb                	and    al,0xfb
  1007c2:	e6 a1                	out    0xa1,al
  1007c4:	c3                   	ret    
  1007c5:	90                   	nop
  1007c6:	90                   	nop
  1007c7:	90                   	nop
  1007c8:	90                   	nop
  1007c9:	90                   	nop
  1007ca:	90                   	nop
  1007cb:	90                   	nop
  1007cc:	90                   	nop
  1007cd:	90                   	nop
  1007ce:	90                   	nop
  1007cf:	90                   	nop

001007d0 <hwint11>:
  1007d0:	e8 5b 04 00 00       	call   100c30 <save>
  1007d5:	e4 a1                	in     al,0xa1
  1007d7:	0c 08                	or     al,0x8
  1007d9:	e6 a1                	out    0xa1,al
  1007db:	b0 20                	mov    al,0x20
  1007dd:	e6 20                	out    0x20,al
  1007df:	90                   	nop
  1007e0:	e6 a0                	out    0xa0,al
  1007e2:	90                   	nop
  1007e3:	fb                   	sti    
  1007e4:	6a 0b                	push   0xb
  1007e6:	ff 15 ac 40 11 00    	call   DWORD PTR ds:0x1140ac
  1007ec:	59                   	pop    ecx
  1007ed:	fa                   	cli    
  1007ee:	e4 a1                	in     al,0xa1
  1007f0:	24 f7                	and    al,0xf7
  1007f2:	e6 a1                	out    0xa1,al
  1007f4:	c3                   	ret    
  1007f5:	90                   	nop
  1007f6:	90                   	nop
  1007f7:	90                   	nop
  1007f8:	90                   	nop
  1007f9:	90                   	nop
  1007fa:	90                   	nop
  1007fb:	90                   	nop
  1007fc:	90                   	nop
  1007fd:	90                   	nop
  1007fe:	90                   	nop
  1007ff:	90                   	nop

00100800 <hwint12>:
  100800:	e8 2b 04 00 00       	call   100c30 <save>
  100805:	e4 a1                	in     al,0xa1
  100807:	0c 10                	or     al,0x10
  100809:	e6 a1                	out    0xa1,al
  10080b:	b0 20                	mov    al,0x20
  10080d:	e6 20                	out    0x20,al
  10080f:	90                   	nop
  100810:	e6 a0                	out    0xa0,al
  100812:	90                   	nop
  100813:	fb                   	sti    
  100814:	6a 0c                	push   0xc
  100816:	ff 15 b0 40 11 00    	call   DWORD PTR ds:0x1140b0
  10081c:	59                   	pop    ecx
  10081d:	fa                   	cli    
  10081e:	e4 a1                	in     al,0xa1
  100820:	24 ef                	and    al,0xef
  100822:	e6 a1                	out    0xa1,al
  100824:	c3                   	ret    
  100825:	90                   	nop
  100826:	90                   	nop
  100827:	90                   	nop
  100828:	90                   	nop
  100829:	90                   	nop
  10082a:	90                   	nop
  10082b:	90                   	nop
  10082c:	90                   	nop
  10082d:	90                   	nop
  10082e:	90                   	nop
  10082f:	90                   	nop

00100830 <hwint13>:
  100830:	e8 fb 03 00 00       	call   100c30 <save>
  100835:	e4 a1                	in     al,0xa1
  100837:	0c 20                	or     al,0x20
  100839:	e6 a1                	out    0xa1,al
  10083b:	b0 20                	mov    al,0x20
  10083d:	e6 20                	out    0x20,al
  10083f:	90                   	nop
  100840:	e6 a0                	out    0xa0,al
  100842:	90                   	nop
  100843:	fb                   	sti    
  100844:	6a 0d                	push   0xd
  100846:	ff 15 b4 40 11 00    	call   DWORD PTR ds:0x1140b4
  10084c:	59                   	pop    ecx
  10084d:	fa                   	cli    
  10084e:	e4 a1                	in     al,0xa1
  100850:	24 df                	and    al,0xdf
  100852:	e6 a1                	out    0xa1,al
  100854:	c3                   	ret    
  100855:	90                   	nop
  100856:	90                   	nop
  100857:	90                   	nop
  100858:	90                   	nop
  100859:	90                   	nop
  10085a:	90                   	nop
  10085b:	90                   	nop
  10085c:	90                   	nop
  10085d:	90                   	nop
  10085e:	90                   	nop
  10085f:	90                   	nop

00100860 <hwint14>:
  100860:	e8 cb 03 00 00       	call   100c30 <save>
  100865:	e4 a1                	in     al,0xa1
  100867:	0c 40                	or     al,0x40
  100869:	e6 a1                	out    0xa1,al
  10086b:	b0 20                	mov    al,0x20
  10086d:	e6 20                	out    0x20,al
  10086f:	90                   	nop
  100870:	e6 a0                	out    0xa0,al
  100872:	90                   	nop
  100873:	fb                   	sti    
  100874:	6a 0e                	push   0xe
  100876:	ff 15 b8 40 11 00    	call   DWORD PTR ds:0x1140b8
  10087c:	59                   	pop    ecx
  10087d:	fa                   	cli    
  10087e:	e4 a1                	in     al,0xa1
  100880:	24 bf                	and    al,0xbf
  100882:	e6 a1                	out    0xa1,al
  100884:	c3                   	ret    
  100885:	90                   	nop
  100886:	90                   	nop
  100887:	90                   	nop
  100888:	90                   	nop
  100889:	90                   	nop
  10088a:	90                   	nop
  10088b:	90                   	nop
  10088c:	90                   	nop
  10088d:	90                   	nop
  10088e:	90                   	nop
  10088f:	90                   	nop

00100890 <hwint15>:
  100890:	e8 9b 03 00 00       	call   100c30 <save>
  100895:	e4 a1                	in     al,0xa1
  100897:	0c 80                	or     al,0x80
  100899:	e6 a1                	out    0xa1,al
  10089b:	b0 20                	mov    al,0x20
  10089d:	e6 20                	out    0x20,al
  10089f:	90                   	nop
  1008a0:	e6 a0                	out    0xa0,al
  1008a2:	90                   	nop
  1008a3:	fb                   	sti    
  1008a4:	6a 0f                	push   0xf
  1008a6:	ff 15 bc 40 11 00    	call   DWORD PTR ds:0x1140bc
  1008ac:	59                   	pop    ecx
  1008ad:	fa                   	cli    
  1008ae:	e4 a1                	in     al,0xa1
  1008b0:	24 7f                	and    al,0x7f
  1008b2:	e6 a1                	out    0xa1,al
  1008b4:	c3                   	ret    
  1008b5:	90                   	nop
  1008b6:	90                   	nop
  1008b7:	90                   	nop
  1008b8:	90                   	nop
  1008b9:	90                   	nop
  1008ba:	90                   	nop
  1008bb:	90                   	nop
  1008bc:	90                   	nop
  1008bd:	90                   	nop
  1008be:	90                   	nop
  1008bf:	90                   	nop

001008c0 <syscall_entry>:
  1008c0:	e8 6b 03 00 00       	call   100c30 <save>
  1008c5:	fb                   	sti    
  1008c6:	ff 14 85 c0 40 11 00 	call   DWORD PTR [eax*4+0x1140c0]
  1008cd:	89 46 2c             	mov    DWORD PTR [esi+0x2c],eax
  1008d0:	fa                   	cli    
  1008d1:	c3                   	ret    
  1008d2:	66 90                	xchg   ax,ax
  1008d4:	66 90                	xchg   ax,ax
  1008d6:	66 90                	xchg   ax,ax
  1008d8:	66 90                	xchg   ax,ax
  1008da:	66 90                	xchg   ax,ax
  1008dc:	66 90                	xchg   ax,ax
  1008de:	66 90                	xchg   ax,ax

001008e0 <disable_irq>:
  1008e0:	8b 4c 24 04          	mov    ecx,DWORD PTR [esp+0x4]
  1008e4:	9c                   	pushf  
  1008e5:	fa                   	cli    
  1008e6:	b4 01                	mov    ah,0x1
  1008e8:	d2 c4                	rol    ah,cl
  1008ea:	80 f9 08             	cmp    cl,0x8
  1008ed:	73 11                	jae    100900 <disable_8>

001008ef <disable_0>:
  1008ef:	e4 21                	in     al,0x21
  1008f1:	84 e0                	test   al,ah
  1008f3:	75 1c                	jne    100911 <dis_already>
  1008f5:	08 e0                	or     al,ah
  1008f7:	e6 21                	out    0x21,al
  1008f9:	9d                   	popf   
  1008fa:	b8 01 00 00 00       	mov    eax,0x1
  1008ff:	c3                   	ret    

00100900 <disable_8>:
  100900:	e4 a1                	in     al,0xa1
  100902:	84 e0                	test   al,ah
  100904:	75 0b                	jne    100911 <dis_already>
  100906:	08 e0                	or     al,ah
  100908:	e6 a1                	out    0xa1,al
  10090a:	9d                   	popf   
  10090b:	b8 01 00 00 00       	mov    eax,0x1
  100910:	c3                   	ret    

00100911 <dis_already>:
  100911:	9d                   	popf   
  100912:	31 c0                	xor    eax,eax
  100914:	c3                   	ret    

00100915 <enable_irq>:
  100915:	8b 4c 24 04          	mov    ecx,DWORD PTR [esp+0x4]
  100919:	9c                   	pushf  
  10091a:	fa                   	cli    
  10091b:	b4 fe                	mov    ah,0xfe
  10091d:	d2 c4                	rol    ah,cl
  10091f:	80 f9 08             	cmp    cl,0x8
  100922:	73 08                	jae    10092c <enable_8>

00100924 <enable_0>:
  100924:	e4 21                	in     al,0x21
  100926:	20 e0                	and    al,ah
  100928:	e6 21                	out    0x21,al
  10092a:	9d                   	popf   
  10092b:	c3                   	ret    

0010092c <enable_8>:
  10092c:	e4 a1                	in     al,0xa1
  10092e:	20 e0                	and    al,ah
  100930:	e6 a1                	out    0xa1,al
  100932:	9d                   	popf   
  100933:	c3                   	ret    

00100934 <exception_handler>:
  100934:	55                   	push   ebp
  100935:	89 e5                	mov    ebp,esp
  100937:	53                   	push   ebx
  100938:	83 ec 14             	sub    esp,0x14
  10093b:	e8 15 fc ff ff       	call   100555 <__x86.get_pc_thunk.bx>
  100940:	81 c3 c0 36 01 00    	add    ebx,0x136c0
  100946:	c7 45 f4 07 00 00 00 	mov    DWORD PTR [ebp-0xc],0x7
  10094d:	c7 c0 f0 3f 11 00    	mov    eax,0x113ff0
  100953:	0f b6 40 01          	movzx  eax,BYTE PTR [eax+0x1]
  100957:	0f b6 d0             	movzx  edx,al
  10095a:	89 d0                	mov    eax,edx
  10095c:	c1 e0 02             	shl    eax,0x2
  10095f:	01 c2                	add    edx,eax
  100961:	c7 c0 88 ee 11 00    	mov    eax,0x11ee88
  100967:	8b 00                	mov    eax,DWORD PTR [eax]
  100969:	83 ec 0c             	sub    esp,0xc
  10096c:	6a 00                	push   0x0
  10096e:	52                   	push   edx
  10096f:	50                   	push   eax
  100970:	6a 00                	push   0x0
  100972:	6a 00                	push   0x0
  100974:	e8 41 19 00 00       	call   1022ba <fillRect>
  100979:	83 c4 20             	add    esp,0x20
  10097c:	83 ec 08             	sub    esp,0x8
  10097f:	6a 00                	push   0x0
  100981:	6a 00                	push   0x0
  100983:	e8 f7 1b 00 00       	call   10257f <gotoxy>
  100988:	83 c4 10             	add    esp,0x10
  10098b:	83 ec 08             	sub    esp,0x8
  10098e:	ff 75 f4             	push   DWORD PTR [ebp-0xc]
  100991:	8d 83 20 fe fe ff    	lea    eax,[ebx-0x101e0]
  100997:	50                   	push   eax
  100998:	e8 25 1d 00 00       	call   1026c2 <printstr>
  10099d:	83 c4 10             	add    esp,0x10
  1009a0:	8b 45 08             	mov    eax,DWORD PTR [ebp+0x8]
  1009a3:	8b 84 83 20 00 00 00 	mov    eax,DWORD PTR [ebx+eax*4+0x20]
  1009aa:	83 ec 08             	sub    esp,0x8
  1009ad:	ff 75 f4             	push   DWORD PTR [ebp-0xc]
  1009b0:	50                   	push   eax
  1009b1:	e8 0c 1d 00 00       	call   1026c2 <printstr>
  1009b6:	83 c4 10             	add    esp,0x10
  1009b9:	83 ec 08             	sub    esp,0x8
  1009bc:	ff 75 f4             	push   DWORD PTR [ebp-0xc]
  1009bf:	8d 83 30 fe fe ff    	lea    eax,[ebx-0x101d0]
  1009c5:	50                   	push   eax
  1009c6:	e8 f7 1c 00 00       	call   1026c2 <printstr>
  1009cb:	83 c4 10             	add    esp,0x10
  1009ce:	8b 45 18             	mov    eax,DWORD PTR [ebp+0x18]
  1009d1:	83 ec 08             	sub    esp,0x8
  1009d4:	6a 10                	push   0x10
  1009d6:	50                   	push   eax
  1009d7:	e8 9c 2a 00 00       	call   103478 <itoa>
  1009dc:	83 c4 10             	add    esp,0x10
  1009df:	83 ec 08             	sub    esp,0x8
  1009e2:	ff 75 f4             	push   DWORD PTR [ebp-0xc]
  1009e5:	50                   	push   eax
  1009e6:	e8 d7 1c 00 00       	call   1026c2 <printstr>
  1009eb:	83 c4 10             	add    esp,0x10
  1009ee:	83 ec 08             	sub    esp,0x8
  1009f1:	ff 75 f4             	push   DWORD PTR [ebp-0xc]
  1009f4:	8d 83 3c fe fe ff    	lea    eax,[ebx-0x101c4]
  1009fa:	50                   	push   eax
  1009fb:	e8 c2 1c 00 00       	call   1026c2 <printstr>
  100a00:	83 c4 10             	add    esp,0x10
  100a03:	8b 45 14             	mov    eax,DWORD PTR [ebp+0x14]
  100a06:	83 ec 08             	sub    esp,0x8
  100a09:	6a 10                	push   0x10
  100a0b:	50                   	push   eax
  100a0c:	e8 67 2a 00 00       	call   103478 <itoa>
  100a11:	83 c4 10             	add    esp,0x10
  100a14:	83 ec 08             	sub    esp,0x8
  100a17:	ff 75 f4             	push   DWORD PTR [ebp-0xc]
  100a1a:	50                   	push   eax
  100a1b:	e8 a2 1c 00 00       	call   1026c2 <printstr>
  100a20:	83 c4 10             	add    esp,0x10
  100a23:	83 ec 08             	sub    esp,0x8
  100a26:	ff 75 f4             	push   DWORD PTR [ebp-0xc]
  100a29:	8d 83 44 fe fe ff    	lea    eax,[ebx-0x101bc]
  100a2f:	50                   	push   eax
  100a30:	e8 8d 1c 00 00       	call   1026c2 <printstr>
  100a35:	83 c4 10             	add    esp,0x10
  100a38:	8b 45 10             	mov    eax,DWORD PTR [ebp+0x10]
  100a3b:	83 ec 08             	sub    esp,0x8
  100a3e:	6a 10                	push   0x10
  100a40:	50                   	push   eax
  100a41:	e8 32 2a 00 00       	call   103478 <itoa>
  100a46:	83 c4 10             	add    esp,0x10
  100a49:	83 ec 08             	sub    esp,0x8
  100a4c:	ff 75 f4             	push   DWORD PTR [ebp-0xc]
  100a4f:	50                   	push   eax
  100a50:	e8 6d 1c 00 00       	call   1026c2 <printstr>
  100a55:	83 c4 10             	add    esp,0x10
  100a58:	83 7d 0c ff          	cmp    DWORD PTR [ebp+0xc],0xffffffff
  100a5c:	74 35                	je     100a93 <exception_handler+0x15f>
  100a5e:	83 ec 08             	sub    esp,0x8
  100a61:	ff 75 f4             	push   DWORD PTR [ebp-0xc]
  100a64:	8d 83 4d fe fe ff    	lea    eax,[ebx-0x101b3]
  100a6a:	50                   	push   eax
  100a6b:	e8 52 1c 00 00       	call   1026c2 <printstr>
  100a70:	83 c4 10             	add    esp,0x10
  100a73:	8b 45 0c             	mov    eax,DWORD PTR [ebp+0xc]
  100a76:	83 ec 08             	sub    esp,0x8
  100a79:	6a 10                	push   0x10
  100a7b:	50                   	push   eax
  100a7c:	e8 f7 29 00 00       	call   103478 <itoa>
  100a81:	83 c4 10             	add    esp,0x10
  100a84:	83 ec 08             	sub    esp,0x8
  100a87:	ff 75 f4             	push   DWORD PTR [ebp-0xc]
  100a8a:	50                   	push   eax
  100a8b:	e8 32 1c 00 00       	call   1026c2 <printstr>
  100a90:	83 c4 10             	add    esp,0x10
  100a93:	90                   	nop
  100a94:	8b 5d fc             	mov    ebx,DWORD PTR [ebp-0x4]
  100a97:	c9                   	leave  
  100a98:	c3                   	ret    

00100a99 <put_irq_handler>:
  100a99:	55                   	push   ebp
  100a9a:	89 e5                	mov    ebp,esp
  100a9c:	53                   	push   ebx
  100a9d:	83 ec 04             	sub    esp,0x4
  100aa0:	e8 b0 fa ff ff       	call   100555 <__x86.get_pc_thunk.bx>
  100aa5:	81 c3 5b 35 01 00    	add    ebx,0x1355b
  100aab:	83 ec 0c             	sub    esp,0xc
  100aae:	ff 75 08             	push   DWORD PTR [ebp+0x8]
  100ab1:	e8 2a fe ff ff       	call   1008e0 <disable_irq>
  100ab6:	83 c4 10             	add    esp,0x10
  100ab9:	8b 45 08             	mov    eax,DWORD PTR [ebp+0x8]
  100abc:	8b 55 0c             	mov    edx,DWORD PTR [ebp+0xc]
  100abf:	89 94 83 80 00 00 00 	mov    DWORD PTR [ebx+eax*4+0x80],edx
  100ac6:	90                   	nop
  100ac7:	8b 5d fc             	mov    ebx,DWORD PTR [ebp-0x4]
  100aca:	c9                   	leave  
  100acb:	c3                   	ret    

00100acc <default_irq_handler>:
  100acc:	55                   	push   ebp
  100acd:	89 e5                	mov    ebp,esp
  100acf:	53                   	push   ebx
  100ad0:	83 ec 04             	sub    esp,0x4
  100ad3:	e8 7d fa ff ff       	call   100555 <__x86.get_pc_thunk.bx>
  100ad8:	81 c3 28 35 01 00    	add    ebx,0x13528
  100ade:	83 ec 08             	sub    esp,0x8
  100ae1:	6a 07                	push   0x7
  100ae3:	8d 83 5a 00 ff ff    	lea    eax,[ebx-0xffa6]
  100ae9:	50                   	push   eax
  100aea:	e8 d3 1b 00 00       	call   1026c2 <printstr>
  100aef:	83 c4 10             	add    esp,0x10
  100af2:	8b 45 08             	mov    eax,DWORD PTR [ebp+0x8]
  100af5:	83 ec 08             	sub    esp,0x8
  100af8:	6a 10                	push   0x10
  100afa:	50                   	push   eax
  100afb:	e8 78 29 00 00       	call   103478 <itoa>
  100b00:	83 c4 10             	add    esp,0x10
  100b03:	83 ec 08             	sub    esp,0x8
  100b06:	6a 07                	push   0x7
  100b08:	50                   	push   eax
  100b09:	e8 b4 1b 00 00       	call   1026c2 <printstr>
  100b0e:	83 c4 10             	add    esp,0x10
  100b11:	90                   	nop
  100b12:	8b 5d fc             	mov    ebx,DWORD PTR [ebp-0x4]
  100b15:	c9                   	leave  
  100b16:	c3                   	ret    

00100b17 <sys_nothing>:
  100b17:	55                   	push   ebp
  100b18:	89 e5                	mov    ebp,esp
  100b1a:	e8 32 fa ff ff       	call   100551 <__x86.get_pc_thunk.ax>
  100b1f:	05 e1 34 01 00       	add    eax,0x134e1
  100b24:	b8 00 00 00 00       	mov    eax,0x0
  100b29:	5d                   	pop    ebp
  100b2a:	c3                   	ret    

00100b2b <set_seg_desc>:
  100b2b:	55                   	push   ebp
  100b2c:	89 e5                	mov    ebp,esp
  100b2e:	83 ec 04             	sub    esp,0x4
  100b31:	e8 1b fa ff ff       	call   100551 <__x86.get_pc_thunk.ax>
  100b36:	05 ca 34 01 00       	add    eax,0x134ca
  100b3b:	8b 45 14             	mov    eax,DWORD PTR [ebp+0x14]
  100b3e:	66 89 45 fc          	mov    WORD PTR [ebp-0x4],ax
  100b42:	8b 45 10             	mov    eax,DWORD PTR [ebp+0x10]
  100b45:	89 c2                	mov    edx,eax
  100b47:	8b 45 08             	mov    eax,DWORD PTR [ebp+0x8]
  100b4a:	66 89 10             	mov    WORD PTR [eax],dx
  100b4d:	8b 45 0c             	mov    eax,DWORD PTR [ebp+0xc]
  100b50:	89 c2                	mov    edx,eax
  100b52:	8b 45 08             	mov    eax,DWORD PTR [ebp+0x8]
  100b55:	66 89 50 02          	mov    WORD PTR [eax+0x2],dx
  100b59:	8b 45 0c             	mov    eax,DWORD PTR [ebp+0xc]
  100b5c:	c1 e8 10             	shr    eax,0x10
  100b5f:	89 c2                	mov    edx,eax
  100b61:	8b 45 08             	mov    eax,DWORD PTR [ebp+0x8]
  100b64:	88 50 04             	mov    BYTE PTR [eax+0x4],dl
  100b67:	0f b7 45 fc          	movzx  eax,WORD PTR [ebp-0x4]
  100b6b:	89 c2                	mov    edx,eax
  100b6d:	8b 45 08             	mov    eax,DWORD PTR [ebp+0x8]
  100b70:	88 50 05             	mov    BYTE PTR [eax+0x5],dl
  100b73:	8b 45 10             	mov    eax,DWORD PTR [ebp+0x10]
  100b76:	c1 e8 10             	shr    eax,0x10
  100b79:	83 e0 0f             	and    eax,0xf
  100b7c:	89 c2                	mov    edx,eax
  100b7e:	0f b7 45 fc          	movzx  eax,WORD PTR [ebp-0x4]
  100b82:	66 c1 e8 08          	shr    ax,0x8
  100b86:	83 e0 f0             	and    eax,0xfffffff0
  100b89:	09 c2                	or     edx,eax
  100b8b:	8b 45 08             	mov    eax,DWORD PTR [ebp+0x8]
  100b8e:	88 50 06             	mov    BYTE PTR [eax+0x6],dl
  100b91:	8b 45 0c             	mov    eax,DWORD PTR [ebp+0xc]
  100b94:	c1 e8 18             	shr    eax,0x18
  100b97:	89 c2                	mov    edx,eax
  100b99:	8b 45 08             	mov    eax,DWORD PTR [ebp+0x8]
  100b9c:	88 50 07             	mov    BYTE PTR [eax+0x7],dl
  100b9f:	90                   	nop
  100ba0:	c9                   	leave  
  100ba1:	c3                   	ret    

00100ba2 <seg2phys>:
  100ba2:	55                   	push   ebp
  100ba3:	89 e5                	mov    ebp,esp
  100ba5:	83 ec 14             	sub    esp,0x14
  100ba8:	e8 a4 f9 ff ff       	call   100551 <__x86.get_pc_thunk.ax>
  100bad:	05 53 34 01 00       	add    eax,0x13453
  100bb2:	8b 55 08             	mov    edx,DWORD PTR [ebp+0x8]
  100bb5:	66 89 55 ec          	mov    WORD PTR [ebp-0x14],dx
  100bb9:	0f b7 55 ec          	movzx  edx,WORD PTR [ebp-0x14]
  100bbd:	66 c1 ea 03          	shr    dx,0x3
  100bc1:	0f b7 d2             	movzx  edx,dx
  100bc4:	c1 e2 03             	shl    edx,0x3
  100bc7:	c7 c0 60 4a 11 00    	mov    eax,0x114a60
  100bcd:	01 d0                	add    eax,edx
  100bcf:	89 45 fc             	mov    DWORD PTR [ebp-0x4],eax
  100bd2:	8b 45 fc             	mov    eax,DWORD PTR [ebp-0x4]
  100bd5:	0f b6 40 07          	movzx  eax,BYTE PTR [eax+0x7]
  100bd9:	0f b6 c0             	movzx  eax,al
  100bdc:	c1 e0 18             	shl    eax,0x18
  100bdf:	89 c2                	mov    edx,eax
  100be1:	8b 45 fc             	mov    eax,DWORD PTR [ebp-0x4]
  100be4:	0f b6 40 04          	movzx  eax,BYTE PTR [eax+0x4]
  100be8:	0f b6 c0             	movzx  eax,al
  100beb:	c1 e0 10             	shl    eax,0x10
  100bee:	09 c2                	or     edx,eax
  100bf0:	8b 45 fc             	mov    eax,DWORD PTR [ebp-0x4]
  100bf3:	0f b7 40 02          	movzx  eax,WORD PTR [eax+0x2]
  100bf7:	0f b7 c0             	movzx  eax,ax
  100bfa:	09 d0                	or     eax,edx
  100bfc:	c9                   	leave  
  100bfd:	c3                   	ret    

00100bfe <panic>:
  100bfe:	55                   	push   ebp
  100bff:	89 e5                	mov    ebp,esp
  100c01:	53                   	push   ebx
  100c02:	83 ec 04             	sub    esp,0x4
  100c05:	e8 47 f9 ff ff       	call   100551 <__x86.get_pc_thunk.ax>
  100c0a:	05 f6 33 01 00       	add    eax,0x133f6
  100c0f:	83 ec 08             	sub    esp,0x8
  100c12:	6a 01                	push   0x1
  100c14:	8d 90 60 00 ff ff    	lea    edx,[eax-0xffa0]
  100c1a:	52                   	push   edx
  100c1b:	89 c3                	mov    ebx,eax
  100c1d:	e8 a0 1a 00 00       	call   1026c2 <printstr>
  100c22:	83 c4 10             	add    esp,0x10
  100c25:	eb fe                	jmp    100c25 <panic+0x27>
  100c27:	66 90                	xchg   ax,ax
  100c29:	66 90                	xchg   ax,ax
  100c2b:	66 90                	xchg   ax,ax
  100c2d:	66 90                	xchg   ax,ax
  100c2f:	90                   	nop

00100c30 <save>:
  100c30:	60                   	pusha  
  100c31:	1e                   	push   ds
  100c32:	06                   	push   es
  100c33:	0f a0                	push   fs
  100c35:	0f a8                	push   gs
  100c37:	66 8c d2             	mov    dx,ss
  100c3a:	8e da                	mov    ds,edx
  100c3c:	8e c2                	mov    es,edx
  100c3e:	89 e6                	mov    esi,esp
  100c40:	ff 05 e0 d6 11 00    	inc    DWORD PTR ds:0x11d6e0
  100c46:	83 3d e0 d6 11 00 00 	cmp    DWORD PTR ds:0x11d6e0,0x0
  100c4d:	75 0d                	jne    100c5c <save.1>
  100c4f:	bc e0 49 11 00       	mov    esp,0x1149e0
  100c54:	68 64 0c 10 00       	push   0x100c64
  100c59:	ff 66 30             	jmp    DWORD PTR [esi+0x30]

00100c5c <save.1>:
  100c5c:	68 78 0c 10 00       	push   0x100c78
  100c61:	ff 66 30             	jmp    DWORD PTR [esi+0x30]

00100c64 <restart>:
  100c64:	8b 25 e4 d6 11 00    	mov    esp,DWORD PTR ds:0x11d6e4
  100c6a:	0f 00 54 24 48       	lldt   WORD PTR [esp+0x48]
  100c6f:	8d 44 24 48          	lea    eax,[esp+0x48]
  100c73:	a3 64 4e 11 00       	mov    ds:0x114e64,eax

00100c78 <restart_reenter>:
  100c78:	ff 0d e0 d6 11 00    	dec    DWORD PTR ds:0x11d6e0
  100c7e:	0f a9                	pop    gs
  100c80:	0f a1                	pop    fs
  100c82:	07                   	pop    es
  100c83:	1f                   	pop    ds
  100c84:	61                   	popa   
  100c85:	83 c4 04             	add    esp,0x4
  100c88:	cf                   	iret   

00100c89 <main>:
  100c89:	8d 4c 24 04          	lea    ecx,[esp+0x4]
  100c8d:	83 e4 f0             	and    esp,0xfffffff0
  100c90:	ff 71 fc             	push   DWORD PTR [ecx-0x4]
  100c93:	55                   	push   ebp
  100c94:	89 e5                	mov    ebp,esp
  100c96:	53                   	push   ebx
  100c97:	51                   	push   ecx
  100c98:	83 ec 20             	sub    esp,0x20
  100c9b:	e8 b5 f8 ff ff       	call   100555 <__x86.get_pc_thunk.bx>
  100ca0:	81 c3 60 33 01 00    	add    ebx,0x13360
  100ca6:	e8 41 2b 00 00       	call   1037ec <mm_init>
  100cab:	89 45 dc             	mov    DWORD PTR [ebp-0x24],eax
  100cae:	e8 16 0f 00 00       	call   101bc9 <init_video>
  100cb3:	e8 87 05 00 00       	call   10123f <init_clock>
  100cb8:	e8 5f 06 00 00       	call   10131c <init_keyboard>
  100cbd:	e8 dd 08 00 00       	call   10159f <init_mouse>
  100cc2:	8d 83 00 01 00 00    	lea    eax,[ebx+0x100]
  100cc8:	89 45 f4             	mov    DWORD PTR [ebp-0xc],eax
  100ccb:	c7 c0 00 d7 11 00    	mov    eax,0x11d700
  100cd1:	89 45 f0             	mov    DWORD PTR [ebp-0x10],eax
  100cd4:	c7 c0 e0 56 11 00    	mov    eax,0x1156e0
  100cda:	8d 80 00 80 00 00    	lea    eax,[eax+0x8000]
  100ce0:	89 45 ec             	mov    DWORD PTR [ebp-0x14],eax
  100ce3:	66 c7 45 ea 28 00    	mov    WORD PTR [ebp-0x16],0x28
  100ce9:	c7 45 e0 00 00 00 00 	mov    DWORD PTR [ebp-0x20],0x0
  100cf0:	e9 c7 01 00 00       	jmp    100ebc <main+0x233>
  100cf5:	83 7d e0 00          	cmp    DWORD PTR [ebp-0x20],0x0
  100cf9:	7f 2b                	jg     100d26 <main+0x9d>
  100cfb:	8b 55 e0             	mov    edx,DWORD PTR [ebp-0x20]
  100cfe:	89 d0                	mov    eax,edx
  100d00:	c1 e0 02             	shl    eax,0x2
  100d03:	01 d0                	add    eax,edx
  100d05:	c1 e0 03             	shl    eax,0x3
  100d08:	89 c2                	mov    edx,eax
  100d0a:	8d 83 00 01 00 00    	lea    eax,[ebx+0x100]
  100d10:	01 d0                	add    eax,edx
  100d12:	89 45 f4             	mov    DWORD PTR [ebp-0xc],eax
  100d15:	c6 45 db 01          	mov    BYTE PTR [ebp-0x25],0x1
  100d19:	c6 45 e9 01          	mov    BYTE PTR [ebp-0x17],0x1
  100d1d:	c7 45 e4 02 12 00 00 	mov    DWORD PTR [ebp-0x1c],0x1202
  100d24:	eb 2a                	jmp    100d50 <main+0xc7>
  100d26:	8b 55 e0             	mov    edx,DWORD PTR [ebp-0x20]
  100d29:	89 d0                	mov    eax,edx
  100d2b:	c1 e0 02             	shl    eax,0x2
  100d2e:	01 d0                	add    eax,edx
  100d30:	c1 e0 03             	shl    eax,0x3
  100d33:	8d 50 d8             	lea    edx,[eax-0x28]
  100d36:	8d 83 40 01 00 00    	lea    eax,[ebx+0x140]
  100d3c:	01 d0                	add    eax,edx
  100d3e:	89 45 f4             	mov    DWORD PTR [ebp-0xc],eax
  100d41:	c6 45 db 01          	mov    BYTE PTR [ebp-0x25],0x1
  100d45:	c6 45 e9 01          	mov    BYTE PTR [ebp-0x17],0x1
  100d49:	c7 45 e4 02 12 00 00 	mov    DWORD PTR [ebp-0x1c],0x1202
  100d50:	8b 55 e0             	mov    edx,DWORD PTR [ebp-0x20]
  100d53:	8b 45 f0             	mov    eax,DWORD PTR [ebp-0x10]
  100d56:	89 50 5c             	mov    DWORD PTR [eax+0x5c],edx
  100d59:	8b 45 f4             	mov    eax,DWORD PTR [ebp-0xc]
  100d5c:	8d 50 08             	lea    edx,[eax+0x8]
  100d5f:	8b 45 f0             	mov    eax,DWORD PTR [ebp-0x10]
  100d62:	83 c0 60             	add    eax,0x60
  100d65:	83 ec 08             	sub    esp,0x8
  100d68:	52                   	push   edx
  100d69:	50                   	push   eax
  100d6a:	e8 db 26 00 00       	call   10344a <strcpy>
  100d6f:	83 c4 10             	add    esp,0x10
  100d72:	8b 45 f0             	mov    eax,DWORD PTR [ebp-0x10]
  100d75:	0f b7 55 ea          	movzx  edx,WORD PTR [ebp-0x16]
  100d79:	66 89 50 48          	mov    WORD PTR [eax+0x48],dx
  100d7d:	83 ec 0c             	sub    esp,0xc
  100d80:	6a 10                	push   0x10
  100d82:	e8 1b fe ff ff       	call   100ba2 <seg2phys>
  100d87:	83 c4 10             	add    esp,0x10
  100d8a:	89 c2                	mov    edx,eax
  100d8c:	8b 45 f0             	mov    eax,DWORD PTR [ebp-0x10]
  100d8f:	83 c0 4c             	add    eax,0x4c
  100d92:	01 c2                	add    edx,eax
  100d94:	8b 45 f0             	mov    eax,DWORD PTR [ebp-0x10]
  100d97:	0f b7 40 48          	movzx  eax,WORD PTR [eax+0x48]
  100d9b:	66 c1 e8 03          	shr    ax,0x3
  100d9f:	0f b7 c0             	movzx  eax,ax
  100da2:	8d 0c c5 00 00 00 00 	lea    ecx,[eax*8+0x0]
  100da9:	c7 c0 60 4a 11 00    	mov    eax,0x114a60
  100daf:	01 c8                	add    eax,ecx
  100db1:	68 82 00 00 00       	push   0x82
  100db6:	6a 0f                	push   0xf
  100db8:	52                   	push   edx
  100db9:	50                   	push   eax
  100dba:	e8 6c fd ff ff       	call   100b2b <set_seg_desc>
  100dbf:	83 c4 10             	add    esp,0x10
  100dc2:	8b 45 f0             	mov    eax,DWORD PTR [ebp-0x10]
  100dc5:	8d 50 4c             	lea    edx,[eax+0x4c]
  100dc8:	83 ec 04             	sub    esp,0x4
  100dcb:	6a 08                	push   0x8
  100dcd:	c7 c0 60 4a 11 00    	mov    eax,0x114a60
  100dd3:	8d 40 08             	lea    eax,[eax+0x8]
  100dd6:	50                   	push   eax
  100dd7:	52                   	push   edx
  100dd8:	e8 23 26 00 00       	call   103400 <memcpy>
  100ddd:	83 c4 10             	add    esp,0x10
  100de0:	0f b6 45 e9          	movzx  eax,BYTE PTR [ebp-0x17]
  100de4:	c1 e0 05             	shl    eax,0x5
  100de7:	83 c8 98             	or     eax,0xffffff98
  100dea:	89 c2                	mov    edx,eax
  100dec:	8b 45 f0             	mov    eax,DWORD PTR [ebp-0x10]
  100def:	88 50 51             	mov    BYTE PTR [eax+0x51],dl
  100df2:	8b 45 f0             	mov    eax,DWORD PTR [ebp-0x10]
  100df5:	8d 50 54             	lea    edx,[eax+0x54]
  100df8:	83 ec 04             	sub    esp,0x4
  100dfb:	6a 08                	push   0x8
  100dfd:	c7 c0 60 4a 11 00    	mov    eax,0x114a60
  100e03:	8d 40 10             	lea    eax,[eax+0x10]
  100e06:	50                   	push   eax
  100e07:	52                   	push   edx
  100e08:	e8 f3 25 00 00       	call   103400 <memcpy>
  100e0d:	83 c4 10             	add    esp,0x10
  100e10:	0f b6 45 e9          	movzx  eax,BYTE PTR [ebp-0x17]
  100e14:	c1 e0 05             	shl    eax,0x5
  100e17:	83 c8 92             	or     eax,0xffffff92
  100e1a:	89 c2                	mov    edx,eax
  100e1c:	8b 45 f0             	mov    eax,DWORD PTR [ebp-0x10]
  100e1f:	88 50 59             	mov    BYTE PTR [eax+0x59],dl
  100e22:	0f b6 45 e9          	movzx  eax,BYTE PTR [ebp-0x17]
  100e26:	83 c8 04             	or     eax,0x4
  100e29:	0f b6 d0             	movzx  edx,al
  100e2c:	8b 45 f0             	mov    eax,DWORD PTR [ebp-0x10]
  100e2f:	66 89 50 38          	mov    WORD PTR [eax+0x38],dx
  100e33:	0f b6 45 e9          	movzx  eax,BYTE PTR [ebp-0x17]
  100e37:	83 c8 0c             	or     eax,0xc
  100e3a:	0f b6 d0             	movzx  edx,al
  100e3d:	8b 45 f0             	mov    eax,DWORD PTR [ebp-0x10]
  100e40:	66 89 50 0c          	mov    WORD PTR [eax+0xc],dx
  100e44:	0f b6 45 e9          	movzx  eax,BYTE PTR [ebp-0x17]
  100e48:	83 c8 0c             	or     eax,0xc
  100e4b:	0f b6 d0             	movzx  edx,al
  100e4e:	8b 45 f0             	mov    eax,DWORD PTR [ebp-0x10]
  100e51:	66 89 50 08          	mov    WORD PTR [eax+0x8],dx
  100e55:	0f b6 45 e9          	movzx  eax,BYTE PTR [ebp-0x17]
  100e59:	83 c8 0c             	or     eax,0xc
  100e5c:	0f b6 d0             	movzx  edx,al
  100e5f:	8b 45 f0             	mov    eax,DWORD PTR [ebp-0x10]
  100e62:	66 89 50 04          	mov    WORD PTR [eax+0x4],dx
  100e66:	0f b6 45 e9          	movzx  eax,BYTE PTR [ebp-0x17]
  100e6a:	83 c8 0c             	or     eax,0xc
  100e6d:	0f b6 d0             	movzx  edx,al
  100e70:	8b 45 f0             	mov    eax,DWORD PTR [ebp-0x10]
  100e73:	66 89 50 44          	mov    WORD PTR [eax+0x44],dx
  100e77:	0f b6 55 e9          	movzx  edx,BYTE PTR [ebp-0x17]
  100e7b:	8b 45 f0             	mov    eax,DWORD PTR [ebp-0x10]
  100e7e:	66 89 10             	mov    WORD PTR [eax],dx
  100e81:	8b 45 f4             	mov    eax,DWORD PTR [ebp-0xc]
  100e84:	8b 00                	mov    eax,DWORD PTR [eax]
  100e86:	89 c2                	mov    edx,eax
  100e88:	8b 45 f0             	mov    eax,DWORD PTR [ebp-0x10]
  100e8b:	89 50 34             	mov    DWORD PTR [eax+0x34],edx
  100e8e:	8b 55 ec             	mov    edx,DWORD PTR [ebp-0x14]
  100e91:	8b 45 f0             	mov    eax,DWORD PTR [ebp-0x10]
  100e94:	89 50 40             	mov    DWORD PTR [eax+0x40],edx
  100e97:	8b 55 e4             	mov    edx,DWORD PTR [ebp-0x1c]
  100e9a:	8b 45 f0             	mov    eax,DWORD PTR [ebp-0x10]
  100e9d:	89 50 3c             	mov    DWORD PTR [eax+0x3c],edx
  100ea0:	8b 45 f4             	mov    eax,DWORD PTR [ebp-0xc]
  100ea3:	8b 40 04             	mov    eax,DWORD PTR [eax+0x4]
  100ea6:	f7 d8                	neg    eax
  100ea8:	01 45 ec             	add    DWORD PTR [ebp-0x14],eax
  100eab:	83 45 f0 78          	add    DWORD PTR [ebp-0x10],0x78
  100eaf:	83 45 f4 28          	add    DWORD PTR [ebp-0xc],0x28
  100eb3:	66 83 45 ea 08       	add    WORD PTR [ebp-0x16],0x8
  100eb8:	83 45 e0 01          	add    DWORD PTR [ebp-0x20],0x1
  100ebc:	83 7d e0 03          	cmp    DWORD PTR [ebp-0x20],0x3
  100ec0:	0f 8e 2f fe ff ff    	jle    100cf5 <main+0x6c>
  100ec6:	c7 c0 00 d7 11 00    	mov    eax,0x11d700
  100ecc:	c7 40 74 05 00 00 00 	mov    DWORD PTR [eax+0x74],0x5
  100ed3:	c7 c0 00 d7 11 00    	mov    eax,0x11d700
  100ed9:	8b 50 74             	mov    edx,DWORD PTR [eax+0x74]
  100edc:	c7 c0 00 d7 11 00    	mov    eax,0x11d700
  100ee2:	89 50 70             	mov    DWORD PTR [eax+0x70],edx
  100ee5:	c7 c0 00 d7 11 00    	mov    eax,0x11d700
  100eeb:	c7 80 ec 00 00 00 05 	mov    DWORD PTR [eax+0xec],0x5
  100ef2:	00 00 00 
  100ef5:	c7 c0 00 d7 11 00    	mov    eax,0x11d700
  100efb:	8b 90 ec 00 00 00    	mov    edx,DWORD PTR [eax+0xec]
  100f01:	c7 c0 00 d7 11 00    	mov    eax,0x11d700
  100f07:	89 90 e8 00 00 00    	mov    DWORD PTR [eax+0xe8],edx
  100f0d:	c7 c0 00 d7 11 00    	mov    eax,0x11d700
  100f13:	c7 80 64 01 00 00 05 	mov    DWORD PTR [eax+0x164],0x5
  100f1a:	00 00 00 
  100f1d:	c7 c0 00 d7 11 00    	mov    eax,0x11d700
  100f23:	8b 90 64 01 00 00    	mov    edx,DWORD PTR [eax+0x164]
  100f29:	c7 c0 00 d7 11 00    	mov    eax,0x11d700
  100f2f:	89 90 60 01 00 00    	mov    DWORD PTR [eax+0x160],edx
  100f35:	c7 c0 00 d7 11 00    	mov    eax,0x11d700
  100f3b:	c7 80 dc 01 00 00 05 	mov    DWORD PTR [eax+0x1dc],0x5
  100f42:	00 00 00 
  100f45:	c7 c0 00 d7 11 00    	mov    eax,0x11d700
  100f4b:	8b 90 dc 01 00 00    	mov    edx,DWORD PTR [eax+0x1dc]
  100f51:	c7 c0 00 d7 11 00    	mov    eax,0x11d700
  100f57:	89 90 d8 01 00 00    	mov    DWORD PTR [eax+0x1d8],edx
  100f5d:	c7 c0 e0 d6 11 00    	mov    eax,0x11d6e0
  100f63:	c7 00 00 00 00 00    	mov    DWORD PTR [eax],0x0
  100f69:	c7 c0 e4 d6 11 00    	mov    eax,0x11d6e4
  100f6f:	c7 c2 00 d7 11 00    	mov    edx,0x11d700
  100f75:	89 10                	mov    DWORD PTR [eax],edx
  100f77:	e8 e8 fc ff ff       	call   100c64 <restart>
  100f7c:	eb fe                	jmp    100f7c <main+0x2f3>

00100f7e <schedule>:
  100f7e:	55                   	push   ebp
  100f7f:	89 e5                	mov    ebp,esp
  100f81:	83 ec 10             	sub    esp,0x10
  100f84:	e8 c8 f5 ff ff       	call   100551 <__x86.get_pc_thunk.ax>
  100f89:	05 77 30 01 00       	add    eax,0x13077
  100f8e:	c7 45 fc 00 00 00 00 	mov    DWORD PTR [ebp-0x4],0x0
  100f95:	eb 71                	jmp    101008 <schedule+0x8a>
  100f97:	c7 c2 00 d7 11 00    	mov    edx,0x11d700
  100f9d:	89 55 f8             	mov    DWORD PTR [ebp-0x8],edx
  100fa0:	eb 23                	jmp    100fc5 <schedule+0x47>
  100fa2:	8b 55 f8             	mov    edx,DWORD PTR [ebp-0x8]
  100fa5:	8b 52 70             	mov    edx,DWORD PTR [edx+0x70]
  100fa8:	39 55 fc             	cmp    DWORD PTR [ebp-0x4],edx
  100fab:	7d 14                	jge    100fc1 <schedule+0x43>
  100fad:	8b 55 f8             	mov    edx,DWORD PTR [ebp-0x8]
  100fb0:	8b 52 70             	mov    edx,DWORD PTR [edx+0x70]
  100fb3:	89 55 fc             	mov    DWORD PTR [ebp-0x4],edx
  100fb6:	c7 c2 e4 d6 11 00    	mov    edx,0x11d6e4
  100fbc:	8b 4d f8             	mov    ecx,DWORD PTR [ebp-0x8]
  100fbf:	89 0a                	mov    DWORD PTR [edx],ecx
  100fc1:	83 45 f8 78          	add    DWORD PTR [ebp-0x8],0x78
  100fc5:	c7 c2 00 d7 11 00    	mov    edx,0x11d700
  100fcb:	8d 92 e0 01 00 00    	lea    edx,[edx+0x1e0]
  100fd1:	39 55 f8             	cmp    DWORD PTR [ebp-0x8],edx
  100fd4:	72 cc                	jb     100fa2 <schedule+0x24>
  100fd6:	83 7d fc 00          	cmp    DWORD PTR [ebp-0x4],0x0
  100fda:	75 2c                	jne    101008 <schedule+0x8a>
  100fdc:	c7 c2 00 d7 11 00    	mov    edx,0x11d700
  100fe2:	89 55 f4             	mov    DWORD PTR [ebp-0xc],edx
  100fe5:	eb 10                	jmp    100ff7 <schedule+0x79>
  100fe7:	8b 55 f4             	mov    edx,DWORD PTR [ebp-0xc]
  100fea:	8b 4a 74             	mov    ecx,DWORD PTR [edx+0x74]
  100fed:	8b 55 f4             	mov    edx,DWORD PTR [ebp-0xc]
  100ff0:	89 4a 70             	mov    DWORD PTR [edx+0x70],ecx
  100ff3:	83 45 f4 78          	add    DWORD PTR [ebp-0xc],0x78
  100ff7:	c7 c2 00 d7 11 00    	mov    edx,0x11d700
  100ffd:	8d 92 e0 01 00 00    	lea    edx,[edx+0x1e0]
  101003:	39 55 f4             	cmp    DWORD PTR [ebp-0xc],edx
  101006:	72 df                	jb     100fe7 <schedule+0x69>
  101008:	83 7d fc 00          	cmp    DWORD PTR [ebp-0x4],0x0
  10100c:	74 89                	je     100f97 <schedule+0x19>
  10100e:	90                   	nop
  10100f:	c9                   	leave  
  101010:	c3                   	ret    

00101011 <delay>:
  101011:	55                   	push   ebp
  101012:	89 e5                	mov    ebp,esp
  101014:	83 ec 10             	sub    esp,0x10
  101017:	e8 35 f5 ff ff       	call   100551 <__x86.get_pc_thunk.ax>
  10101c:	05 e4 2f 01 00       	add    eax,0x12fe4
  101021:	c7 45 fc 00 00 00 00 	mov    DWORD PTR [ebp-0x4],0x0
  101028:	eb 04                	jmp    10102e <delay+0x1d>
  10102a:	83 45 fc 01          	add    DWORD PTR [ebp-0x4],0x1
  10102e:	81 7d fc 9f 86 01 00 	cmp    DWORD PTR [ebp-0x4],0x1869f
  101035:	7e f3                	jle    10102a <delay+0x19>
  101037:	90                   	nop
  101038:	c9                   	leave  
  101039:	c3                   	ret    

0010103a <tty>:
  10103a:	55                   	push   ebp
  10103b:	89 e5                	mov    ebp,esp
  10103d:	56                   	push   esi
  10103e:	53                   	push   ebx
  10103f:	83 ec 10             	sub    esp,0x10
  101042:	e8 0e f5 ff ff       	call   100555 <__x86.get_pc_thunk.bx>
  101047:	81 c3 b9 2f 01 00    	add    ebx,0x12fb9
  10104d:	c7 45 f4 00 00 00 00 	mov    DWORD PTR [ebp-0xc],0x0
  101054:	83 ec 08             	sub    esp,0x8
  101057:	6a 00                	push   0x0
  101059:	8d 83 6e 00 ff ff    	lea    eax,[ebx-0xff92]
  10105f:	50                   	push   eax
  101060:	6a 44                	push   0x44
  101062:	68 a0 00 00 00       	push   0xa0
  101067:	68 c8 00 00 00       	push   0xc8
  10106c:	68 f4 01 00 00       	push   0x1f4
  101071:	e8 da 09 00 00       	call   101a50 <createWindow>
  101076:	83 c4 20             	add    esp,0x20
  101079:	89 45 f0             	mov    DWORD PTR [ebp-0x10],eax
  10107c:	83 45 f4 01          	add    DWORD PTR [ebp-0xc],0x1
  101080:	c7 c0 f0 3f 11 00    	mov    eax,0x113ff0
  101086:	0f b6 40 01          	movzx  eax,BYTE PTR [eax+0x1]
  10108a:	0f b6 c8             	movzx  ecx,al
  10108d:	c7 c0 f0 3f 11 00    	mov    eax,0x113ff0
  101093:	0f b6 00             	movzx  eax,BYTE PTR [eax]
  101096:	0f b6 d0             	movzx  edx,al
  101099:	89 d0                	mov    eax,edx
  10109b:	c1 e0 04             	shl    eax,0x4
  10109e:	29 d0                	sub    eax,edx
  1010a0:	89 c6                	mov    esi,eax
  1010a2:	8b 45 f0             	mov    eax,DWORD PTR [ebp-0x10]
  1010a5:	8b 50 10             	mov    edx,DWORD PTR [eax+0x10]
  1010a8:	8b 45 f0             	mov    eax,DWORD PTR [ebp-0x10]
  1010ab:	8b 40 0c             	mov    eax,DWORD PTR [eax+0xc]
  1010ae:	83 ec 04             	sub    esp,0x4
  1010b1:	6a 08                	push   0x8
  1010b3:	51                   	push   ecx
  1010b4:	56                   	push   esi
  1010b5:	6a 00                	push   0x0
  1010b7:	6a 00                	push   0x0
  1010b9:	52                   	push   edx
  1010ba:	50                   	push   eax
  1010bb:	e8 a8 11 00 00       	call   102268 <fillRectTo>
  1010c0:	83 c4 20             	add    esp,0x20
  1010c3:	83 ec 08             	sub    esp,0x8
  1010c6:	6a 0a                	push   0xa
  1010c8:	ff 75 f4             	push   DWORD PTR [ebp-0xc]
  1010cb:	e8 a8 23 00 00       	call   103478 <itoa>
  1010d0:	83 c4 10             	add    esp,0x10
  1010d3:	89 c1                	mov    ecx,eax
  1010d5:	8b 45 f0             	mov    eax,DWORD PTR [ebp-0x10]
  1010d8:	8b 50 10             	mov    edx,DWORD PTR [eax+0x10]
  1010db:	8b 45 f0             	mov    eax,DWORD PTR [ebp-0x10]
  1010de:	8b 40 0c             	mov    eax,DWORD PTR [eax+0xc]
  1010e1:	83 ec 08             	sub    esp,0x8
  1010e4:	6a 04                	push   0x4
  1010e6:	51                   	push   ecx
  1010e7:	6a 00                	push   0x0
  1010e9:	6a 00                	push   0x0
  1010eb:	52                   	push   edx
  1010ec:	50                   	push   eax
  1010ed:	e8 02 14 00 00       	call   1024f4 <drawTextTo>
  1010f2:	83 c4 20             	add    esp,0x20
  1010f5:	8b 45 f0             	mov    eax,DWORD PTR [ebp-0x10]
  1010f8:	8b 40 08             	mov    eax,DWORD PTR [eax+0x8]
  1010fb:	8b 48 08             	mov    ecx,DWORD PTR [eax+0x8]
  1010fe:	8b 45 f0             	mov    eax,DWORD PTR [ebp-0x10]
  101101:	8b 40 08             	mov    eax,DWORD PTR [eax+0x8]
  101104:	8b 50 04             	mov    edx,DWORD PTR [eax+0x4]
  101107:	8b 45 f0             	mov    eax,DWORD PTR [ebp-0x10]
  10110a:	8b 40 08             	mov    eax,DWORD PTR [eax+0x8]
  10110d:	83 ec 0c             	sub    esp,0xc
  101110:	51                   	push   ecx
  101111:	52                   	push   edx
  101112:	6a 00                	push   0x0
  101114:	6a 00                	push   0x0
  101116:	50                   	push   eax
  101117:	e8 d2 1c 00 00       	call   102dee <refresh_local>
  10111c:	83 c4 20             	add    esp,0x20
  10111f:	e8 ed fe ff ff       	call   101011 <delay>
  101124:	e9 53 ff ff ff       	jmp    10107c <tty+0x42>

00101129 <fooA>:
  101129:	55                   	push   ebp
  10112a:	89 e5                	mov    ebp,esp
  10112c:	53                   	push   ebx
  10112d:	83 ec 04             	sub    esp,0x4
  101130:	e8 20 f4 ff ff       	call   100555 <__x86.get_pc_thunk.bx>
  101135:	81 c3 cb 2e 01 00    	add    ebx,0x12ecb
  10113b:	e8 6b 02 00 00       	call   1013ab <keyboard_read>
  101140:	eb f9                	jmp    10113b <fooA+0x12>

00101142 <fooB>:
  101142:	55                   	push   ebp
  101143:	89 e5                	mov    ebp,esp
  101145:	53                   	push   ebx
  101146:	83 ec 04             	sub    esp,0x4
  101149:	e8 07 f4 ff ff       	call   100555 <__x86.get_pc_thunk.bx>
  10114e:	81 c3 b2 2e 01 00    	add    ebx,0x12eb2
  101154:	e8 bb 07 00 00       	call   101914 <mouse_read>
  101159:	eb f9                	jmp    101154 <fooB+0x12>

0010115b <fooC>:
  10115b:	55                   	push   ebp
  10115c:	89 e5                	mov    ebp,esp
  10115e:	56                   	push   esi
  10115f:	53                   	push   ebx
  101160:	83 ec 10             	sub    esp,0x10
  101163:	e8 ed f3 ff ff       	call   100555 <__x86.get_pc_thunk.bx>
  101168:	81 c3 98 2e 01 00    	add    ebx,0x12e98
  10116e:	83 ec 08             	sub    esp,0x8
  101171:	6a 00                	push   0x0
  101173:	8d 83 72 00 ff ff    	lea    eax,[ebx-0xff8e]
  101179:	50                   	push   eax
  10117a:	6a 44                	push   0x44
  10117c:	68 a0 00 00 00       	push   0xa0
  101181:	6a 78                	push   0x78
  101183:	6a 78                	push   0x78
  101185:	e8 c6 08 00 00       	call   101a50 <createWindow>
  10118a:	83 c4 20             	add    esp,0x20
  10118d:	89 45 f0             	mov    DWORD PTR [ebp-0x10],eax
  101190:	c7 45 f4 00 00 00 00 	mov    DWORD PTR [ebp-0xc],0x0
  101197:	c7 c0 f0 3f 11 00    	mov    eax,0x113ff0
  10119d:	0f b6 40 01          	movzx  eax,BYTE PTR [eax+0x1]
  1011a1:	0f b6 c8             	movzx  ecx,al
  1011a4:	c7 c0 f0 3f 11 00    	mov    eax,0x113ff0
  1011aa:	0f b6 00             	movzx  eax,BYTE PTR [eax]
  1011ad:	0f b6 d0             	movzx  edx,al
  1011b0:	89 d0                	mov    eax,edx
  1011b2:	c1 e0 04             	shl    eax,0x4
  1011b5:	29 d0                	sub    eax,edx
  1011b7:	89 c6                	mov    esi,eax
  1011b9:	8b 45 f0             	mov    eax,DWORD PTR [ebp-0x10]
  1011bc:	8b 50 10             	mov    edx,DWORD PTR [eax+0x10]
  1011bf:	8b 45 f0             	mov    eax,DWORD PTR [ebp-0x10]
  1011c2:	8b 40 0c             	mov    eax,DWORD PTR [eax+0xc]
  1011c5:	83 ec 04             	sub    esp,0x4
  1011c8:	6a 08                	push   0x8
  1011ca:	51                   	push   ecx
  1011cb:	56                   	push   esi
  1011cc:	6a 00                	push   0x0
  1011ce:	6a 00                	push   0x0
  1011d0:	52                   	push   edx
  1011d1:	50                   	push   eax
  1011d2:	e8 91 10 00 00       	call   102268 <fillRectTo>
  1011d7:	83 c4 20             	add    esp,0x20
  1011da:	83 ec 08             	sub    esp,0x8
  1011dd:	6a 0a                	push   0xa
  1011df:	ff 75 f4             	push   DWORD PTR [ebp-0xc]
  1011e2:	e8 91 22 00 00       	call   103478 <itoa>
  1011e7:	83 c4 10             	add    esp,0x10
  1011ea:	89 c1                	mov    ecx,eax
  1011ec:	8b 45 f0             	mov    eax,DWORD PTR [ebp-0x10]
  1011ef:	8b 50 10             	mov    edx,DWORD PTR [eax+0x10]
  1011f2:	8b 45 f0             	mov    eax,DWORD PTR [ebp-0x10]
  1011f5:	8b 40 0c             	mov    eax,DWORD PTR [eax+0xc]
  1011f8:	83 ec 08             	sub    esp,0x8
  1011fb:	6a 04                	push   0x4
  1011fd:	51                   	push   ecx
  1011fe:	6a 00                	push   0x0
  101200:	6a 00                	push   0x0
  101202:	52                   	push   edx
  101203:	50                   	push   eax
  101204:	e8 eb 12 00 00       	call   1024f4 <drawTextTo>
  101209:	83 c4 20             	add    esp,0x20
  10120c:	8b 45 f0             	mov    eax,DWORD PTR [ebp-0x10]
  10120f:	8b 40 08             	mov    eax,DWORD PTR [eax+0x8]
  101212:	8b 48 08             	mov    ecx,DWORD PTR [eax+0x8]
  101215:	8b 45 f0             	mov    eax,DWORD PTR [ebp-0x10]
  101218:	8b 40 08             	mov    eax,DWORD PTR [eax+0x8]
  10121b:	8b 50 04             	mov    edx,DWORD PTR [eax+0x4]
  10121e:	8b 45 f0             	mov    eax,DWORD PTR [ebp-0x10]
  101221:	8b 40 08             	mov    eax,DWORD PTR [eax+0x8]
  101224:	83 ec 0c             	sub    esp,0xc
  101227:	51                   	push   ecx
  101228:	52                   	push   edx
  101229:	6a 00                	push   0x0
  10122b:	6a 00                	push   0x0
  10122d:	50                   	push   eax
  10122e:	e8 bb 1b 00 00       	call   102dee <refresh_local>
  101233:	83 c4 20             	add    esp,0x20
  101236:	83 45 f4 01          	add    DWORD PTR [ebp-0xc],0x1
  10123a:	e9 58 ff ff ff       	jmp    101197 <fooC+0x3c>

0010123f <init_clock>:
  10123f:	55                   	push   ebp
  101240:	89 e5                	mov    ebp,esp
  101242:	53                   	push   ebx
  101243:	83 ec 04             	sub    esp,0x4
  101246:	e8 0a f3 ff ff       	call   100555 <__x86.get_pc_thunk.bx>
  10124b:	81 c3 b5 2d 01 00    	add    ebx,0x12db5
  101251:	83 ec 08             	sub    esp,0x8
  101254:	6a 34                	push   0x34
  101256:	6a 43                	push   0x43
  101258:	e8 7f 21 00 00       	call   1033dc <out8>
  10125d:	83 c4 10             	add    esp,0x10
  101260:	83 ec 08             	sub    esp,0x8
  101263:	68 9c 00 00 00       	push   0x9c
  101268:	6a 40                	push   0x40
  10126a:	e8 6d 21 00 00       	call   1033dc <out8>
  10126f:	83 c4 10             	add    esp,0x10
  101272:	83 ec 08             	sub    esp,0x8
  101275:	6a 2e                	push   0x2e
  101277:	6a 40                	push   0x40
  101279:	e8 5e 21 00 00       	call   1033dc <out8>
  10127e:	83 c4 10             	add    esp,0x10
  101281:	c7 c0 e0 d8 11 00    	mov    eax,0x11d8e0
  101287:	c7 00 00 00 00 00    	mov    DWORD PTR [eax],0x0
  10128d:	83 ec 08             	sub    esp,0x8
  101290:	8d 83 b4 d2 fe ff    	lea    eax,[ebx-0x12d4c]
  101296:	50                   	push   eax
  101297:	6a 00                	push   0x0
  101299:	e8 fb f7 ff ff       	call   100a99 <put_irq_handler>
  10129e:	83 c4 10             	add    esp,0x10
  1012a1:	83 ec 0c             	sub    esp,0xc
  1012a4:	6a 00                	push   0x0
  1012a6:	e8 6a f6 ff ff       	call   100915 <enable_irq>
  1012ab:	83 c4 10             	add    esp,0x10
  1012ae:	90                   	nop
  1012af:	8b 5d fc             	mov    ebx,DWORD PTR [ebp-0x4]
  1012b2:	c9                   	leave  
  1012b3:	c3                   	ret    

001012b4 <clock_handler>:
  1012b4:	55                   	push   ebp
  1012b5:	89 e5                	mov    ebp,esp
  1012b7:	53                   	push   ebx
  1012b8:	83 ec 04             	sub    esp,0x4
  1012bb:	e8 91 f2 ff ff       	call   100551 <__x86.get_pc_thunk.ax>
  1012c0:	05 40 2d 01 00       	add    eax,0x12d40
  1012c5:	c7 c2 e0 d8 11 00    	mov    edx,0x11d8e0
  1012cb:	8b 12                	mov    edx,DWORD PTR [edx]
  1012cd:	8d 4a 01             	lea    ecx,[edx+0x1]
  1012d0:	c7 c2 e0 d8 11 00    	mov    edx,0x11d8e0
  1012d6:	89 0a                	mov    DWORD PTR [edx],ecx
  1012d8:	c7 c2 e4 d6 11 00    	mov    edx,0x11d6e4
  1012de:	8b 12                	mov    edx,DWORD PTR [edx]
  1012e0:	8b 4a 70             	mov    ecx,DWORD PTR [edx+0x70]
  1012e3:	83 e9 01             	sub    ecx,0x1
  1012e6:	89 4a 70             	mov    DWORD PTR [edx+0x70],ecx
  1012e9:	c7 c2 e0 d6 11 00    	mov    edx,0x11d6e0
  1012ef:	8b 12                	mov    edx,DWORD PTR [edx]
  1012f1:	85 d2                	test   edx,edx
  1012f3:	75 09                	jne    1012fe <clock_handler+0x4a>
  1012f5:	89 c3                	mov    ebx,eax
  1012f7:	e8 82 fc ff ff       	call   100f7e <schedule>
  1012fc:	eb 01                	jmp    1012ff <clock_handler+0x4b>
  1012fe:	90                   	nop
  1012ff:	83 c4 04             	add    esp,0x4
  101302:	5b                   	pop    ebx
  101303:	5d                   	pop    ebp
  101304:	c3                   	ret    

00101305 <sys_getticks>:
  101305:	55                   	push   ebp
  101306:	89 e5                	mov    ebp,esp
  101308:	e8 44 f2 ff ff       	call   100551 <__x86.get_pc_thunk.ax>
  10130d:	05 f3 2c 01 00       	add    eax,0x12cf3
  101312:	c7 c0 e0 d8 11 00    	mov    eax,0x11d8e0
  101318:	8b 00                	mov    eax,DWORD PTR [eax]
  10131a:	5d                   	pop    ebp
  10131b:	c3                   	ret    

0010131c <init_keyboard>:
  10131c:	55                   	push   ebp
  10131d:	89 e5                	mov    ebp,esp
  10131f:	53                   	push   ebx
  101320:	83 ec 04             	sub    esp,0x4
  101323:	e8 2d f2 ff ff       	call   100555 <__x86.get_pc_thunk.bx>
  101328:	81 c3 d8 2c 01 00    	add    ebx,0x12cd8
  10132e:	83 ec 04             	sub    esp,0x4
  101331:	c7 c0 00 d9 11 00    	mov    eax,0x11d900
  101337:	50                   	push   eax
  101338:	6a 20                	push   0x20
  10133a:	c7 c0 44 d9 11 00    	mov    eax,0x11d944
  101340:	50                   	push   eax
  101341:	e8 65 23 00 00       	call   1036ab <fifo_init>
  101346:	83 c4 10             	add    esp,0x10
  101349:	83 ec 08             	sub    esp,0x8
  10134c:	8d 83 70 d3 fe ff    	lea    eax,[ebx-0x12c90]
  101352:	50                   	push   eax
  101353:	6a 01                	push   0x1
  101355:	e8 3f f7 ff ff       	call   100a99 <put_irq_handler>
  10135a:	83 c4 10             	add    esp,0x10
  10135d:	83 ec 0c             	sub    esp,0xc
  101360:	6a 01                	push   0x1
  101362:	e8 ae f5 ff ff       	call   100915 <enable_irq>
  101367:	83 c4 10             	add    esp,0x10
  10136a:	90                   	nop
  10136b:	8b 5d fc             	mov    ebx,DWORD PTR [ebp-0x4]
  10136e:	c9                   	leave  
  10136f:	c3                   	ret    

00101370 <keyboard_handler>:
  101370:	55                   	push   ebp
  101371:	89 e5                	mov    ebp,esp
  101373:	53                   	push   ebx
  101374:	83 ec 04             	sub    esp,0x4
  101377:	e8 d9 f1 ff ff       	call   100555 <__x86.get_pc_thunk.bx>
  10137c:	81 c3 84 2c 01 00    	add    ebx,0x12c84
  101382:	83 ec 0c             	sub    esp,0xc
  101385:	6a 60                	push   0x60
  101387:	e8 33 20 00 00       	call   1033bf <in8>
  10138c:	83 c4 10             	add    esp,0x10
  10138f:	0f b6 c0             	movzx  eax,al
  101392:	83 ec 08             	sub    esp,0x8
  101395:	50                   	push   eax
  101396:	c7 c0 44 d9 11 00    	mov    eax,0x11d944
  10139c:	50                   	push   eax
  10139d:	e8 50 23 00 00       	call   1036f2 <fifo_push>
  1013a2:	83 c4 10             	add    esp,0x10
  1013a5:	90                   	nop
  1013a6:	8b 5d fc             	mov    ebx,DWORD PTR [ebp-0x4]
  1013a9:	c9                   	leave  
  1013aa:	c3                   	ret    

001013ab <keyboard_read>:
  1013ab:	55                   	push   ebp
  1013ac:	89 e5                	mov    ebp,esp
  1013ae:	53                   	push   ebx
  1013af:	83 ec 24             	sub    esp,0x24
  1013b2:	e8 9e f1 ff ff       	call   100555 <__x86.get_pc_thunk.bx>
  1013b7:	81 c3 49 2c 01 00    	add    ebx,0x12c49
  1013bd:	c7 c0 44 d9 11 00    	mov    eax,0x11d944
  1013c3:	8b 40 10             	mov    eax,DWORD PTR [eax+0x10]
  1013c6:	85 c0                	test   eax,eax
  1013c8:	0f 84 99 01 00 00    	je     101567 <.L16+0x43>
  1013ce:	e8 b0 1f 00 00       	call   103383 <io_cli>
  1013d3:	83 ec 0c             	sub    esp,0xc
  1013d6:	c7 c0 44 d9 11 00    	mov    eax,0x11d944
  1013dc:	50                   	push   eax
  1013dd:	e8 9b 23 00 00       	call   10377d <fifo_pop>
  1013e2:	83 c4 10             	add    esp,0x10
  1013e5:	88 45 f3             	mov    BYTE PTR [ebp-0xd],al
  1013e8:	e8 94 1f 00 00       	call   103381 <io_sti>
  1013ed:	80 7d f3 e1          	cmp    BYTE PTR [ebp-0xd],0xe1
  1013f1:	0f 84 70 01 00 00    	je     101567 <.L16+0x43>
  1013f7:	80 7d f3 e0          	cmp    BYTE PTR [ebp-0xd],0xe0
  1013fb:	75 0f                	jne    10140c <keyboard_read+0x61>
  1013fd:	c7 83 e0 09 00 00 01 	mov    DWORD PTR [ebx+0x9e0],0x1
  101404:	00 00 00 
  101407:	e9 5b 01 00 00       	jmp    101567 <.L16+0x43>
  10140c:	0f b6 45 f3          	movzx  eax,BYTE PTR [ebp-0xd]
  101410:	f7 d0                	not    eax
  101412:	c0 e8 07             	shr    al,0x7
  101415:	0f b6 c0             	movzx  eax,al
  101418:	89 45 ec             	mov    DWORD PTR [ebp-0x14],eax
  10141b:	0f b6 45 f3          	movzx  eax,BYTE PTR [ebp-0xd]
  10141f:	83 e0 7f             	and    eax,0x7f
  101422:	89 c2                	mov    edx,eax
  101424:	89 d0                	mov    eax,edx
  101426:	01 c0                	add    eax,eax
  101428:	01 d0                	add    eax,edx
  10142a:	c1 e0 02             	shl    eax,0x2
  10142d:	8d 93 80 00 ff ff    	lea    edx,[ebx-0xff80]
  101433:	01 d0                	add    eax,edx
  101435:	89 45 e8             	mov    DWORD PTR [ebp-0x18],eax
  101438:	c7 c0 28 d9 11 00    	mov    eax,0x11d928
  10143e:	c7 00 00 00 00 00    	mov    DWORD PTR [eax],0x0
  101444:	c7 c0 40 d9 11 00    	mov    eax,0x11d940
  10144a:	8b 00                	mov    eax,DWORD PTR [eax]
  10144c:	85 c0                	test   eax,eax
  10144e:	75 0c                	jne    10145c <keyboard_read+0xb1>
  101450:	c7 c0 24 d9 11 00    	mov    eax,0x11d924
  101456:	8b 00                	mov    eax,DWORD PTR [eax]
  101458:	85 c0                	test   eax,eax
  10145a:	74 0c                	je     101468 <keyboard_read+0xbd>
  10145c:	c7 c0 28 d9 11 00    	mov    eax,0x11d928
  101462:	c7 00 01 00 00 00    	mov    DWORD PTR [eax],0x1
  101468:	8b 83 e0 09 00 00    	mov    eax,DWORD PTR [ebx+0x9e0]
  10146e:	85 c0                	test   eax,eax
  101470:	74 16                	je     101488 <keyboard_read+0xdd>
  101472:	c7 c0 28 d9 11 00    	mov    eax,0x11d928
  101478:	c7 00 02 00 00 00    	mov    DWORD PTR [eax],0x2
  10147e:	c7 83 e0 09 00 00 00 	mov    DWORD PTR [ebx+0x9e0],0x0
  101485:	00 00 00 
  101488:	c7 c0 28 d9 11 00    	mov    eax,0x11d928
  10148e:	8b 00                	mov    eax,DWORD PTR [eax]
  101490:	8d 14 85 00 00 00 00 	lea    edx,[eax*4+0x0]
  101497:	8b 45 e8             	mov    eax,DWORD PTR [ebp-0x18]
  10149a:	01 d0                	add    eax,edx
  10149c:	8b 00                	mov    eax,DWORD PTR [eax]
  10149e:	89 45 f4             	mov    DWORD PTR [ebp-0xc],eax
  1014a1:	8b 45 f4             	mov    eax,DWORD PTR [ebp-0xc]
  1014a4:	2d 08 01 00 00       	sub    eax,0x108
  1014a9:	83 f8 05             	cmp    eax,0x5
  1014ac:	0f 87 86 00 00 00    	ja     101538 <.L16+0x14>
  1014b2:	c1 e0 02             	shl    eax,0x2
  1014b5:	8b 84 18 80 06 ff ff 	mov    eax,DWORD PTR [eax+ebx*1-0xf980]
  1014bc:	01 d8                	add    eax,ebx
  1014be:	ff e0                	jmp    eax

001014c0 <.L10>:
  1014c0:	c7 c0 40 d9 11 00    	mov    eax,0x11d940
  1014c6:	8b 55 ec             	mov    edx,DWORD PTR [ebp-0x14]
  1014c9:	89 10                	mov    DWORD PTR [eax],edx
  1014cb:	c7 45 f4 00 00 00 00 	mov    DWORD PTR [ebp-0xc],0x0
  1014d2:	eb 72                	jmp    101546 <.L16+0x22>

001014d4 <.L12>:
  1014d4:	c7 c0 24 d9 11 00    	mov    eax,0x11d924
  1014da:	8b 55 ec             	mov    edx,DWORD PTR [ebp-0x14]
  1014dd:	89 10                	mov    DWORD PTR [eax],edx
  1014df:	c7 45 f4 00 00 00 00 	mov    DWORD PTR [ebp-0xc],0x0
  1014e6:	eb 5e                	jmp    101546 <.L16+0x22>

001014e8 <.L13>:
  1014e8:	c7 c0 34 d9 11 00    	mov    eax,0x11d934
  1014ee:	8b 55 ec             	mov    edx,DWORD PTR [ebp-0x14]
  1014f1:	89 10                	mov    DWORD PTR [eax],edx
  1014f3:	c7 45 f4 00 00 00 00 	mov    DWORD PTR [ebp-0xc],0x0
  1014fa:	eb 4a                	jmp    101546 <.L16+0x22>

001014fc <.L14>:
  1014fc:	c7 c0 20 d9 11 00    	mov    eax,0x11d920
  101502:	8b 55 ec             	mov    edx,DWORD PTR [ebp-0x14]
  101505:	89 10                	mov    DWORD PTR [eax],edx
  101507:	c7 45 f4 00 00 00 00 	mov    DWORD PTR [ebp-0xc],0x0
  10150e:	eb 36                	jmp    101546 <.L16+0x22>

00101510 <.L15>:
  101510:	c7 c0 2c d9 11 00    	mov    eax,0x11d92c
  101516:	8b 55 ec             	mov    edx,DWORD PTR [ebp-0x14]
  101519:	89 10                	mov    DWORD PTR [eax],edx
  10151b:	c7 45 f4 00 00 00 00 	mov    DWORD PTR [ebp-0xc],0x0
  101522:	eb 22                	jmp    101546 <.L16+0x22>

00101524 <.L16>:
  101524:	c7 c0 2c d9 11 00    	mov    eax,0x11d92c
  10152a:	8b 55 ec             	mov    edx,DWORD PTR [ebp-0x14]
  10152d:	89 10                	mov    DWORD PTR [eax],edx
  10152f:	c7 45 f4 00 00 00 00 	mov    DWORD PTR [ebp-0xc],0x0
  101536:	eb 0e                	jmp    101546 <.L16+0x22>
  101538:	83 7d ec 00          	cmp    DWORD PTR [ebp-0x14],0x0
  10153c:	75 07                	jne    101545 <.L16+0x21>
  10153e:	c7 45 f4 00 00 00 00 	mov    DWORD PTR [ebp-0xc],0x0
  101545:	90                   	nop
  101546:	83 7d f4 00          	cmp    DWORD PTR [ebp-0xc],0x0
  10154a:	74 1b                	je     101567 <.L16+0x43>
  10154c:	8b 45 f4             	mov    eax,DWORD PTR [ebp-0xc]
  10154f:	88 45 e6             	mov    BYTE PTR [ebp-0x1a],al
  101552:	0f b6 45 e6          	movzx  eax,BYTE PTR [ebp-0x1a]
  101556:	0f be c0             	movsx  eax,al
  101559:	83 ec 08             	sub    esp,0x8
  10155c:	6a 01                	push   0x1
  10155e:	50                   	push   eax
  10155f:	e8 41 10 00 00       	call   1025a5 <putchar>
  101564:	83 c4 10             	add    esp,0x10
  101567:	90                   	nop
  101568:	8b 5d fc             	mov    ebx,DWORD PTR [ebp-0x4]
  10156b:	c9                   	leave  
  10156c:	c3                   	ret    

0010156d <wait_KBC_sendready>:
  10156d:	55                   	push   ebp
  10156e:	89 e5                	mov    ebp,esp
  101570:	53                   	push   ebx
  101571:	83 ec 04             	sub    esp,0x4
  101574:	e8 dc ef ff ff       	call   100555 <__x86.get_pc_thunk.bx>
  101579:	81 c3 87 2a 01 00    	add    ebx,0x12a87
  10157f:	83 ec 0c             	sub    esp,0xc
  101582:	6a 64                	push   0x64
  101584:	e8 36 1e 00 00       	call   1033bf <in8>
  101589:	83 c4 10             	add    esp,0x10
  10158c:	0f b6 c0             	movzx  eax,al
  10158f:	83 e0 02             	and    eax,0x2
  101592:	85 c0                	test   eax,eax
  101594:	74 02                	je     101598 <wait_KBC_sendready+0x2b>
  101596:	eb e7                	jmp    10157f <wait_KBC_sendready+0x12>
  101598:	90                   	nop
  101599:	90                   	nop
  10159a:	8b 5d fc             	mov    ebx,DWORD PTR [ebp-0x4]
  10159d:	c9                   	leave  
  10159e:	c3                   	ret    

0010159f <init_mouse>:
  10159f:	55                   	push   ebp
  1015a0:	89 e5                	mov    ebp,esp
  1015a2:	53                   	push   ebx
  1015a3:	83 ec 04             	sub    esp,0x4
  1015a6:	e8 aa ef ff ff       	call   100555 <__x86.get_pc_thunk.bx>
  1015ab:	81 c3 55 2a 01 00    	add    ebx,0x12a55
  1015b1:	e8 b7 ff ff ff       	call   10156d <wait_KBC_sendready>
  1015b6:	83 ec 08             	sub    esp,0x8
  1015b9:	6a 60                	push   0x60
  1015bb:	6a 64                	push   0x64
  1015bd:	e8 1a 1e 00 00       	call   1033dc <out8>
  1015c2:	83 c4 10             	add    esp,0x10
  1015c5:	e8 a3 ff ff ff       	call   10156d <wait_KBC_sendready>
  1015ca:	83 ec 08             	sub    esp,0x8
  1015cd:	6a 47                	push   0x47
  1015cf:	6a 60                	push   0x60
  1015d1:	e8 06 1e 00 00       	call   1033dc <out8>
  1015d6:	83 c4 10             	add    esp,0x10
  1015d9:	e8 8f ff ff ff       	call   10156d <wait_KBC_sendready>
  1015de:	83 ec 08             	sub    esp,0x8
  1015e1:	68 d4 00 00 00       	push   0xd4
  1015e6:	6a 64                	push   0x64
  1015e8:	e8 ef 1d 00 00       	call   1033dc <out8>
  1015ed:	83 c4 10             	add    esp,0x10
  1015f0:	e8 78 ff ff ff       	call   10156d <wait_KBC_sendready>
  1015f5:	83 ec 08             	sub    esp,0x8
  1015f8:	68 f4 00 00 00       	push   0xf4
  1015fd:	6a 60                	push   0x60
  1015ff:	e8 d8 1d 00 00       	call   1033dc <out8>
  101604:	83 c4 10             	add    esp,0x10
  101607:	c7 c0 88 ee 11 00    	mov    eax,0x11ee88
  10160d:	8b 00                	mov    eax,DWORD PTR [eax]
  10160f:	89 c2                	mov    edx,eax
  101611:	c1 ea 1f             	shr    edx,0x1f
  101614:	01 d0                	add    eax,edx
  101616:	d1 f8                	sar    eax,1
  101618:	89 c2                	mov    edx,eax
  10161a:	c7 c0 60 d9 11 00    	mov    eax,0x11d960
  101620:	89 10                	mov    DWORD PTR [eax],edx
  101622:	c7 c0 8c ee 11 00    	mov    eax,0x11ee8c
  101628:	8b 00                	mov    eax,DWORD PTR [eax]
  10162a:	89 c2                	mov    edx,eax
  10162c:	c1 ea 1f             	shr    edx,0x1f
  10162f:	01 d0                	add    eax,edx
  101631:	d1 f8                	sar    eax,1
  101633:	89 c2                	mov    edx,eax
  101635:	c7 c0 10 da 11 00    	mov    eax,0x11da10
  10163b:	89 10                	mov    DWORD PTR [eax],edx
  10163d:	c7 c0 00 da 11 00    	mov    eax,0x11da00
  101643:	c6 40 03 00          	mov    BYTE PTR [eax+0x3],0x0
  101647:	83 ec 04             	sub    esp,0x4
  10164a:	c7 c0 80 d9 11 00    	mov    eax,0x11d980
  101650:	50                   	push   eax
  101651:	68 80 00 00 00       	push   0x80
  101656:	c7 c0 68 d9 11 00    	mov    eax,0x11d968
  10165c:	50                   	push   eax
  10165d:	e8 49 20 00 00       	call   1036ab <fifo_init>
  101662:	83 c4 10             	add    esp,0x10
  101665:	e8 58 13 00 00       	call   1029c2 <alloc_sheet>
  10166a:	89 c2                	mov    edx,eax
  10166c:	c7 c0 64 d9 11 00    	mov    eax,0x11d964
  101672:	89 10                	mov    DWORD PTR [eax],edx
  101674:	83 ec 0c             	sub    esp,0xc
  101677:	68 80 00 00 00       	push   0x80
  10167c:	e8 a9 22 00 00       	call   10392a <mm_alloc>
  101681:	83 c4 10             	add    esp,0x10
  101684:	89 c2                	mov    edx,eax
  101686:	c7 c0 64 d9 11 00    	mov    eax,0x11d964
  10168c:	8b 00                	mov    eax,DWORD PTR [eax]
  10168e:	83 ec 0c             	sub    esp,0xc
  101691:	68 ff 00 00 00       	push   0xff
  101696:	6a 10                	push   0x10
  101698:	6a 08                	push   0x8
  10169a:	52                   	push   edx
  10169b:	50                   	push   eax
  10169c:	e8 d3 13 00 00       	call   102a74 <sheet_setbuf>
  1016a1:	83 c4 20             	add    esp,0x20
  1016a4:	c7 c0 64 d9 11 00    	mov    eax,0x11d964
  1016aa:	8b 00                	mov    eax,DWORD PTR [eax]
  1016ac:	8b 00                	mov    eax,DWORD PTR [eax]
  1016ae:	83 ec 04             	sub    esp,0x4
  1016b1:	68 ff 00 00 00       	push   0xff
  1016b6:	6a 10                	push   0x10
  1016b8:	6a 08                	push   0x8
  1016ba:	6a 00                	push   0x0
  1016bc:	6a 00                	push   0x0
  1016be:	6a 08                	push   0x8
  1016c0:	50                   	push   eax
  1016c1:	e8 a2 0b 00 00       	call   102268 <fillRectTo>
  1016c6:	83 c4 20             	add    esp,0x20
  1016c9:	c7 c0 64 d9 11 00    	mov    eax,0x11d964
  1016cf:	8b 00                	mov    eax,DWORD PTR [eax]
  1016d1:	8b 00                	mov    eax,DWORD PTR [eax]
  1016d3:	83 ec 08             	sub    esp,0x8
  1016d6:	6a 07                	push   0x7
  1016d8:	c7 c2 a0 46 10 00    	mov    edx,0x1046a0
  1016de:	52                   	push   edx
  1016df:	6a 00                	push   0x0
  1016e1:	6a 00                	push   0x0
  1016e3:	6a 08                	push   0x8
  1016e5:	50                   	push   eax
  1016e6:	e8 1e 0c 00 00       	call   102309 <drawGlyphTo>
  1016eb:	83 c4 20             	add    esp,0x20
  1016ee:	c7 c0 10 da 11 00    	mov    eax,0x11da10
  1016f4:	8b 08                	mov    ecx,DWORD PTR [eax]
  1016f6:	c7 c0 60 d9 11 00    	mov    eax,0x11d960
  1016fc:	8b 10                	mov    edx,DWORD PTR [eax]
  1016fe:	c7 c0 64 d9 11 00    	mov    eax,0x11d964
  101704:	8b 00                	mov    eax,DWORD PTR [eax]
  101706:	83 ec 04             	sub    esp,0x4
  101709:	51                   	push   ecx
  10170a:	52                   	push   edx
  10170b:	50                   	push   eax
  10170c:	e8 58 1b 00 00       	call   103269 <movexy>
  101711:	83 c4 10             	add    esp,0x10
  101714:	c7 c0 64 d9 11 00    	mov    eax,0x11d964
  10171a:	8b 00                	mov    eax,DWORD PTR [eax]
  10171c:	83 ec 08             	sub    esp,0x8
  10171f:	6a 02                	push   0x2
  101721:	50                   	push   eax
  101722:	e8 80 13 00 00       	call   102aa7 <movez>
  101727:	83 c4 10             	add    esp,0x10
  10172a:	83 ec 08             	sub    esp,0x8
  10172d:	8d 83 51 d7 fe ff    	lea    eax,[ebx-0x128af]
  101733:	50                   	push   eax
  101734:	6a 0c                	push   0xc
  101736:	e8 5e f3 ff ff       	call   100a99 <put_irq_handler>
  10173b:	83 c4 10             	add    esp,0x10
  10173e:	83 ec 0c             	sub    esp,0xc
  101741:	6a 0c                	push   0xc
  101743:	e8 cd f1 ff ff       	call   100915 <enable_irq>
  101748:	83 c4 10             	add    esp,0x10
  10174b:	90                   	nop
  10174c:	8b 5d fc             	mov    ebx,DWORD PTR [ebp-0x4]
  10174f:	c9                   	leave  
  101750:	c3                   	ret    

00101751 <mouse_handler>:
  101751:	55                   	push   ebp
  101752:	89 e5                	mov    ebp,esp
  101754:	53                   	push   ebx
  101755:	83 ec 04             	sub    esp,0x4
  101758:	e8 f8 ed ff ff       	call   100555 <__x86.get_pc_thunk.bx>
  10175d:	81 c3 a3 28 01 00    	add    ebx,0x128a3
  101763:	83 ec 0c             	sub    esp,0xc
  101766:	6a 60                	push   0x60
  101768:	e8 52 1c 00 00       	call   1033bf <in8>
  10176d:	83 c4 10             	add    esp,0x10
  101770:	0f b6 c0             	movzx  eax,al
  101773:	83 ec 08             	sub    esp,0x8
  101776:	50                   	push   eax
  101777:	c7 c0 68 d9 11 00    	mov    eax,0x11d968
  10177d:	50                   	push   eax
  10177e:	e8 6f 1f 00 00       	call   1036f2 <fifo_push>
  101783:	83 c4 10             	add    esp,0x10
  101786:	90                   	nop
  101787:	8b 5d fc             	mov    ebx,DWORD PTR [ebp-0x4]
  10178a:	c9                   	leave  
  10178b:	c3                   	ret    

0010178c <mouse_decode>:
  10178c:	55                   	push   ebp
  10178d:	89 e5                	mov    ebp,esp
  10178f:	83 ec 04             	sub    esp,0x4
  101792:	e8 ba ed ff ff       	call   100551 <__x86.get_pc_thunk.ax>
  101797:	05 69 28 01 00       	add    eax,0x12869
  10179c:	8b 55 08             	mov    edx,DWORD PTR [ebp+0x8]
  10179f:	88 55 fc             	mov    BYTE PTR [ebp-0x4],dl
  1017a2:	c7 c2 00 da 11 00    	mov    edx,0x11da00
  1017a8:	0f b6 52 03          	movzx  edx,BYTE PTR [edx+0x3]
  1017ac:	0f b6 d2             	movzx  edx,dl
  1017af:	83 fa 01             	cmp    edx,0x1
  1017b2:	74 37                	je     1017eb <mouse_decode+0x5f>
  1017b4:	83 fa 01             	cmp    edx,0x1
  1017b7:	7f 09                	jg     1017c2 <mouse_decode+0x36>
  1017b9:	85 d2                	test   edx,edx
  1017bb:	74 14                	je     1017d1 <mouse_decode+0x45>
  1017bd:	e9 4b 01 00 00       	jmp    10190d <mouse_decode+0x181>
  1017c2:	83 fa 02             	cmp    edx,0x2
  1017c5:	74 53                	je     10181a <mouse_decode+0x8e>
  1017c7:	83 fa 03             	cmp    edx,0x3
  1017ca:	74 6f                	je     10183b <mouse_decode+0xaf>
  1017cc:	e9 3c 01 00 00       	jmp    10190d <mouse_decode+0x181>
  1017d1:	80 7d fc fa          	cmp    BYTE PTR [ebp-0x4],0xfa
  1017d5:	75 0a                	jne    1017e1 <mouse_decode+0x55>
  1017d7:	c7 c0 00 da 11 00    	mov    eax,0x11da00
  1017dd:	c6 40 03 01          	mov    BYTE PTR [eax+0x3],0x1
  1017e1:	b8 00 00 00 00       	mov    eax,0x0
  1017e6:	e9 27 01 00 00       	jmp    101912 <mouse_decode+0x186>
  1017eb:	0f b6 55 fc          	movzx  edx,BYTE PTR [ebp-0x4]
  1017ef:	81 e2 c8 00 00 00    	and    edx,0xc8
  1017f5:	83 fa 08             	cmp    edx,0x8
  1017f8:	75 16                	jne    101810 <mouse_decode+0x84>
  1017fa:	c7 c2 00 da 11 00    	mov    edx,0x11da00
  101800:	0f b6 4d fc          	movzx  ecx,BYTE PTR [ebp-0x4]
  101804:	88 0a                	mov    BYTE PTR [edx],cl
  101806:	c7 c0 00 da 11 00    	mov    eax,0x11da00
  10180c:	c6 40 03 02          	mov    BYTE PTR [eax+0x3],0x2
  101810:	b8 00 00 00 00       	mov    eax,0x0
  101815:	e9 f8 00 00 00       	jmp    101912 <mouse_decode+0x186>
  10181a:	c7 c2 00 da 11 00    	mov    edx,0x11da00
  101820:	0f b6 4d fc          	movzx  ecx,BYTE PTR [ebp-0x4]
  101824:	88 4a 01             	mov    BYTE PTR [edx+0x1],cl
  101827:	c7 c0 00 da 11 00    	mov    eax,0x11da00
  10182d:	c6 40 03 03          	mov    BYTE PTR [eax+0x3],0x3
  101831:	b8 00 00 00 00       	mov    eax,0x0
  101836:	e9 d7 00 00 00       	jmp    101912 <mouse_decode+0x186>
  10183b:	c7 c2 00 da 11 00    	mov    edx,0x11da00
  101841:	0f b6 4d fc          	movzx  ecx,BYTE PTR [ebp-0x4]
  101845:	88 4a 02             	mov    BYTE PTR [edx+0x2],cl
  101848:	c7 c2 00 da 11 00    	mov    edx,0x11da00
  10184e:	c6 42 03 01          	mov    BYTE PTR [edx+0x3],0x1
  101852:	c7 c2 00 da 11 00    	mov    edx,0x11da00
  101858:	0f b6 12             	movzx  edx,BYTE PTR [edx]
  10185b:	0f b6 d2             	movzx  edx,dl
  10185e:	89 d1                	mov    ecx,edx
  101860:	83 e1 07             	and    ecx,0x7
  101863:	c7 c2 00 da 11 00    	mov    edx,0x11da00
  101869:	89 4a 0c             	mov    DWORD PTR [edx+0xc],ecx
  10186c:	c7 c2 00 da 11 00    	mov    edx,0x11da00
  101872:	0f b6 52 01          	movzx  edx,BYTE PTR [edx+0x1]
  101876:	0f b6 ca             	movzx  ecx,dl
  101879:	c7 c2 00 da 11 00    	mov    edx,0x11da00
  10187f:	89 4a 04             	mov    DWORD PTR [edx+0x4],ecx
  101882:	c7 c2 00 da 11 00    	mov    edx,0x11da00
  101888:	0f b6 52 02          	movzx  edx,BYTE PTR [edx+0x2]
  10188c:	0f b6 ca             	movzx  ecx,dl
  10188f:	c7 c2 00 da 11 00    	mov    edx,0x11da00
  101895:	89 4a 08             	mov    DWORD PTR [edx+0x8],ecx
  101898:	c7 c2 00 da 11 00    	mov    edx,0x11da00
  10189e:	0f b6 12             	movzx  edx,BYTE PTR [edx]
  1018a1:	0f b6 d2             	movzx  edx,dl
  1018a4:	83 e2 10             	and    edx,0x10
  1018a7:	85 d2                	test   edx,edx
  1018a9:	74 1a                	je     1018c5 <mouse_decode+0x139>
  1018ab:	c7 c2 00 da 11 00    	mov    edx,0x11da00
  1018b1:	8b 52 04             	mov    edx,DWORD PTR [edx+0x4]
  1018b4:	81 ca 00 ff ff ff    	or     edx,0xffffff00
  1018ba:	89 d1                	mov    ecx,edx
  1018bc:	c7 c2 00 da 11 00    	mov    edx,0x11da00
  1018c2:	89 4a 04             	mov    DWORD PTR [edx+0x4],ecx
  1018c5:	c7 c2 00 da 11 00    	mov    edx,0x11da00
  1018cb:	0f b6 12             	movzx  edx,BYTE PTR [edx]
  1018ce:	0f b6 d2             	movzx  edx,dl
  1018d1:	83 e2 20             	and    edx,0x20
  1018d4:	85 d2                	test   edx,edx
  1018d6:	74 1a                	je     1018f2 <mouse_decode+0x166>
  1018d8:	c7 c2 00 da 11 00    	mov    edx,0x11da00
  1018de:	8b 52 08             	mov    edx,DWORD PTR [edx+0x8]
  1018e1:	81 ca 00 ff ff ff    	or     edx,0xffffff00
  1018e7:	89 d1                	mov    ecx,edx
  1018e9:	c7 c2 00 da 11 00    	mov    edx,0x11da00
  1018ef:	89 4a 08             	mov    DWORD PTR [edx+0x8],ecx
  1018f2:	c7 c2 00 da 11 00    	mov    edx,0x11da00
  1018f8:	8b 52 08             	mov    edx,DWORD PTR [edx+0x8]
  1018fb:	f7 da                	neg    edx
  1018fd:	c7 c0 00 da 11 00    	mov    eax,0x11da00
  101903:	89 50 08             	mov    DWORD PTR [eax+0x8],edx
  101906:	b8 01 00 00 00       	mov    eax,0x1
  10190b:	eb 05                	jmp    101912 <mouse_decode+0x186>
  10190d:	b8 ff ff ff ff       	mov    eax,0xffffffff
  101912:	c9                   	leave  
  101913:	c3                   	ret    

00101914 <mouse_read>:
  101914:	55                   	push   ebp
  101915:	89 e5                	mov    ebp,esp
  101917:	53                   	push   ebx
  101918:	83 ec 14             	sub    esp,0x14
  10191b:	e8 35 ec ff ff       	call   100555 <__x86.get_pc_thunk.bx>
  101920:	81 c3 e0 26 01 00    	add    ebx,0x126e0
  101926:	c7 c0 68 d9 11 00    	mov    eax,0x11d968
  10192c:	8b 40 10             	mov    eax,DWORD PTR [eax+0x10]
  10192f:	85 c0                	test   eax,eax
  101931:	0f 84 13 01 00 00    	je     101a4a <mouse_read+0x136>
  101937:	e8 47 1a 00 00       	call   103383 <io_cli>
  10193c:	83 ec 0c             	sub    esp,0xc
  10193f:	c7 c0 68 d9 11 00    	mov    eax,0x11d968
  101945:	50                   	push   eax
  101946:	e8 32 1e 00 00       	call   10377d <fifo_pop>
  10194b:	83 c4 10             	add    esp,0x10
  10194e:	89 45 f4             	mov    DWORD PTR [ebp-0xc],eax
  101951:	e8 2b 1a 00 00       	call   103381 <io_sti>
  101956:	8b 45 f4             	mov    eax,DWORD PTR [ebp-0xc]
  101959:	0f b6 c0             	movzx  eax,al
  10195c:	83 ec 0c             	sub    esp,0xc
  10195f:	50                   	push   eax
  101960:	e8 27 fe ff ff       	call   10178c <mouse_decode>
  101965:	83 c4 10             	add    esp,0x10
  101968:	85 c0                	test   eax,eax
  10196a:	0f 84 da 00 00 00    	je     101a4a <mouse_read+0x136>
  101970:	c7 c0 00 da 11 00    	mov    eax,0x11da00
  101976:	8b 50 04             	mov    edx,DWORD PTR [eax+0x4]
  101979:	c7 c0 60 d9 11 00    	mov    eax,0x11d960
  10197f:	8b 00                	mov    eax,DWORD PTR [eax]
  101981:	01 c2                	add    edx,eax
  101983:	c7 c0 60 d9 11 00    	mov    eax,0x11d960
  101989:	89 10                	mov    DWORD PTR [eax],edx
  10198b:	c7 c0 00 da 11 00    	mov    eax,0x11da00
  101991:	8b 50 08             	mov    edx,DWORD PTR [eax+0x8]
  101994:	c7 c0 10 da 11 00    	mov    eax,0x11da10
  10199a:	8b 00                	mov    eax,DWORD PTR [eax]
  10199c:	01 c2                	add    edx,eax
  10199e:	c7 c0 10 da 11 00    	mov    eax,0x11da10
  1019a4:	89 10                	mov    DWORD PTR [eax],edx
  1019a6:	c7 c0 60 d9 11 00    	mov    eax,0x11d960
  1019ac:	8b 00                	mov    eax,DWORD PTR [eax]
  1019ae:	85 c0                	test   eax,eax
  1019b0:	79 0c                	jns    1019be <mouse_read+0xaa>
  1019b2:	c7 c0 60 d9 11 00    	mov    eax,0x11d960
  1019b8:	c7 00 00 00 00 00    	mov    DWORD PTR [eax],0x0
  1019be:	c7 c0 10 da 11 00    	mov    eax,0x11da10
  1019c4:	8b 00                	mov    eax,DWORD PTR [eax]
  1019c6:	85 c0                	test   eax,eax
  1019c8:	79 0c                	jns    1019d6 <mouse_read+0xc2>
  1019ca:	c7 c0 10 da 11 00    	mov    eax,0x11da10
  1019d0:	c7 00 00 00 00 00    	mov    DWORD PTR [eax],0x0
  1019d6:	c7 c0 60 d9 11 00    	mov    eax,0x11d960
  1019dc:	8b 10                	mov    edx,DWORD PTR [eax]
  1019de:	c7 c0 88 ee 11 00    	mov    eax,0x11ee88
  1019e4:	8b 00                	mov    eax,DWORD PTR [eax]
  1019e6:	39 c2                	cmp    edx,eax
  1019e8:	7c 13                	jl     1019fd <mouse_read+0xe9>
  1019ea:	c7 c0 88 ee 11 00    	mov    eax,0x11ee88
  1019f0:	8b 00                	mov    eax,DWORD PTR [eax]
  1019f2:	8d 50 ff             	lea    edx,[eax-0x1]
  1019f5:	c7 c0 60 d9 11 00    	mov    eax,0x11d960
  1019fb:	89 10                	mov    DWORD PTR [eax],edx
  1019fd:	c7 c0 10 da 11 00    	mov    eax,0x11da10
  101a03:	8b 10                	mov    edx,DWORD PTR [eax]
  101a05:	c7 c0 8c ee 11 00    	mov    eax,0x11ee8c
  101a0b:	8b 00                	mov    eax,DWORD PTR [eax]
  101a0d:	39 c2                	cmp    edx,eax
  101a0f:	7c 13                	jl     101a24 <mouse_read+0x110>
  101a11:	c7 c0 8c ee 11 00    	mov    eax,0x11ee8c
  101a17:	8b 00                	mov    eax,DWORD PTR [eax]
  101a19:	8d 50 ff             	lea    edx,[eax-0x1]
  101a1c:	c7 c0 10 da 11 00    	mov    eax,0x11da10
  101a22:	89 10                	mov    DWORD PTR [eax],edx
  101a24:	c7 c0 10 da 11 00    	mov    eax,0x11da10
  101a2a:	8b 08                	mov    ecx,DWORD PTR [eax]
  101a2c:	c7 c0 60 d9 11 00    	mov    eax,0x11d960
  101a32:	8b 10                	mov    edx,DWORD PTR [eax]
  101a34:	c7 c0 64 d9 11 00    	mov    eax,0x11d964
  101a3a:	8b 00                	mov    eax,DWORD PTR [eax]
  101a3c:	83 ec 04             	sub    esp,0x4
  101a3f:	51                   	push   ecx
  101a40:	52                   	push   edx
  101a41:	50                   	push   eax
  101a42:	e8 22 18 00 00       	call   103269 <movexy>
  101a47:	83 c4 10             	add    esp,0x10
  101a4a:	90                   	nop
  101a4b:	8b 5d fc             	mov    ebx,DWORD PTR [ebp-0x4]
  101a4e:	c9                   	leave  
  101a4f:	c3                   	ret    

00101a50 <createWindow>:
  101a50:	55                   	push   ebp
  101a51:	89 e5                	mov    ebp,esp
  101a53:	53                   	push   ebx
  101a54:	83 ec 14             	sub    esp,0x14
  101a57:	e8 f9 ea ff ff       	call   100555 <__x86.get_pc_thunk.bx>
  101a5c:	81 c3 a4 25 01 00    	add    ebx,0x125a4
  101a62:	c7 45 f4 00 00 00 00 	mov    DWORD PTR [ebp-0xc],0x0
  101a69:	e9 47 01 00 00       	jmp    101bb5 <createWindow+0x165>
  101a6e:	8b 45 f4             	mov    eax,DWORD PTR [ebp-0xc]
  101a71:	6b c0 34             	imul   eax,eax,0x34
  101a74:	c7 c2 20 da 11 00    	mov    edx,0x11da20
  101a7a:	01 d0                	add    eax,edx
  101a7c:	89 45 f0             	mov    DWORD PTR [ebp-0x10],eax
  101a7f:	8b 45 f0             	mov    eax,DWORD PTR [ebp-0x10]
  101a82:	8b 40 30             	mov    eax,DWORD PTR [eax+0x30]
  101a85:	83 e0 01             	and    eax,0x1
  101a88:	85 c0                	test   eax,eax
  101a8a:	0f 85 21 01 00 00    	jne    101bb1 <createWindow+0x161>
  101a90:	8b 45 f0             	mov    eax,DWORD PTR [ebp-0x10]
  101a93:	8b 40 30             	mov    eax,DWORD PTR [eax+0x30]
  101a96:	83 c8 01             	or     eax,0x1
  101a99:	89 c2                	mov    edx,eax
  101a9b:	8b 45 f0             	mov    eax,DWORD PTR [ebp-0x10]
  101a9e:	89 50 30             	mov    DWORD PTR [eax+0x30],edx
  101aa1:	e8 1c 0f 00 00       	call   1029c2 <alloc_sheet>
  101aa6:	89 c2                	mov    edx,eax
  101aa8:	8b 45 f0             	mov    eax,DWORD PTR [ebp-0x10]
  101aab:	89 50 08             	mov    DWORD PTR [eax+0x8],edx
  101aae:	8b 45 10             	mov    eax,DWORD PTR [ebp+0x10]
  101ab1:	0f af 45 14          	imul   eax,DWORD PTR [ebp+0x14]
  101ab5:	83 ec 0c             	sub    esp,0xc
  101ab8:	50                   	push   eax
  101ab9:	e8 3c 22 00 00       	call   103cfa <mm_alloc_4k>
  101abe:	83 c4 10             	add    esp,0x10
  101ac1:	89 c2                	mov    edx,eax
  101ac3:	8b 45 f0             	mov    eax,DWORD PTR [ebp-0x10]
  101ac6:	8b 40 08             	mov    eax,DWORD PTR [eax+0x8]
  101ac9:	83 ec 0c             	sub    esp,0xc
  101acc:	6a ff                	push   0xffffffff
  101ace:	ff 75 14             	push   DWORD PTR [ebp+0x14]
  101ad1:	ff 75 10             	push   DWORD PTR [ebp+0x10]
  101ad4:	52                   	push   edx
  101ad5:	50                   	push   eax
  101ad6:	e8 99 0f 00 00       	call   102a74 <sheet_setbuf>
  101adb:	83 c4 20             	add    esp,0x20
  101ade:	8b 45 f0             	mov    eax,DWORD PTR [ebp-0x10]
  101ae1:	8b 40 08             	mov    eax,DWORD PTR [eax+0x8]
  101ae4:	8b 00                	mov    eax,DWORD PTR [eax]
  101ae6:	83 ec 0c             	sub    esp,0xc
  101ae9:	ff 75 18             	push   DWORD PTR [ebp+0x18]
  101aec:	ff 75 14             	push   DWORD PTR [ebp+0x14]
  101aef:	ff 75 10             	push   DWORD PTR [ebp+0x10]
  101af2:	ff 75 10             	push   DWORD PTR [ebp+0x10]
  101af5:	50                   	push   eax
  101af6:	e8 04 0c 00 00       	call   1026ff <drawWindowTo>
  101afb:	83 c4 20             	add    esp,0x20
  101afe:	8b 45 f0             	mov    eax,DWORD PTR [ebp-0x10]
  101b01:	8b 40 08             	mov    eax,DWORD PTR [eax+0x8]
  101b04:	83 ec 04             	sub    esp,0x4
  101b07:	ff 75 0c             	push   DWORD PTR [ebp+0xc]
  101b0a:	ff 75 08             	push   DWORD PTR [ebp+0x8]
  101b0d:	50                   	push   eax
  101b0e:	e8 56 17 00 00       	call   103269 <movexy>
  101b13:	83 c4 10             	add    esp,0x10
  101b16:	8b 45 f0             	mov    eax,DWORD PTR [ebp-0x10]
  101b19:	8b 40 08             	mov    eax,DWORD PTR [eax+0x8]
  101b1c:	83 ec 08             	sub    esp,0x8
  101b1f:	68 0f 27 00 00       	push   0x270f
  101b24:	50                   	push   eax
  101b25:	e8 7d 0f 00 00       	call   102aa7 <movez>
  101b2a:	83 c4 10             	add    esp,0x10
  101b2d:	8b 45 f0             	mov    eax,DWORD PTR [ebp-0x10]
  101b30:	8b 50 08             	mov    edx,DWORD PTR [eax+0x8]
  101b33:	8b 45 f0             	mov    eax,DWORD PTR [ebp-0x10]
  101b36:	8b 0a                	mov    ecx,DWORD PTR [edx]
  101b38:	89 48 0c             	mov    DWORD PTR [eax+0xc],ecx
  101b3b:	8b 4a 04             	mov    ecx,DWORD PTR [edx+0x4]
  101b3e:	89 48 10             	mov    DWORD PTR [eax+0x10],ecx
  101b41:	8b 4a 08             	mov    ecx,DWORD PTR [edx+0x8]
  101b44:	89 48 14             	mov    DWORD PTR [eax+0x14],ecx
  101b47:	8b 4a 0c             	mov    ecx,DWORD PTR [edx+0xc]
  101b4a:	89 48 18             	mov    DWORD PTR [eax+0x18],ecx
  101b4d:	8b 4a 10             	mov    ecx,DWORD PTR [edx+0x10]
  101b50:	89 48 1c             	mov    DWORD PTR [eax+0x1c],ecx
  101b53:	8b 4a 14             	mov    ecx,DWORD PTR [edx+0x14]
  101b56:	89 48 20             	mov    DWORD PTR [eax+0x20],ecx
  101b59:	8b 4a 18             	mov    ecx,DWORD PTR [edx+0x18]
  101b5c:	89 48 24             	mov    DWORD PTR [eax+0x24],ecx
  101b5f:	8b 52 1c             	mov    edx,DWORD PTR [edx+0x1c]
  101b62:	89 50 28             	mov    DWORD PTR [eax+0x28],edx
  101b65:	8b 45 f0             	mov    eax,DWORD PTR [ebp-0x10]
  101b68:	8b 40 08             	mov    eax,DWORD PTR [eax+0x8]
  101b6b:	8b 08                	mov    ecx,DWORD PTR [eax]
  101b6d:	8b 45 f0             	mov    eax,DWORD PTR [ebp-0x10]
  101b70:	8b 40 08             	mov    eax,DWORD PTR [eax+0x8]
  101b73:	8b 50 04             	mov    edx,DWORD PTR [eax+0x4]
  101b76:	89 d0                	mov    eax,edx
  101b78:	c1 e0 02             	shl    eax,0x2
  101b7b:	01 d0                	add    eax,edx
  101b7d:	c1 e0 02             	shl    eax,0x2
  101b80:	01 d0                	add    eax,edx
  101b82:	83 c0 03             	add    eax,0x3
  101b85:	8d 14 01             	lea    edx,[ecx+eax*1]
  101b88:	8b 45 f0             	mov    eax,DWORD PTR [ebp-0x10]
  101b8b:	89 50 0c             	mov    DWORD PTR [eax+0xc],edx
  101b8e:	8b 45 f0             	mov    eax,DWORD PTR [ebp-0x10]
  101b91:	8b 40 1c             	mov    eax,DWORD PTR [eax+0x1c]
  101b94:	8d 50 17             	lea    edx,[eax+0x17]
  101b97:	8b 45 f0             	mov    eax,DWORD PTR [ebp-0x10]
  101b9a:	89 50 1c             	mov    DWORD PTR [eax+0x1c],edx
  101b9d:	8b 45 f0             	mov    eax,DWORD PTR [ebp-0x10]
  101ba0:	8b 40 14             	mov    eax,DWORD PTR [eax+0x14]
  101ba3:	8d 50 e9             	lea    edx,[eax-0x17]
  101ba6:	8b 45 f0             	mov    eax,DWORD PTR [ebp-0x10]
  101ba9:	89 50 14             	mov    DWORD PTR [eax+0x14],edx
  101bac:	8b 45 f0             	mov    eax,DWORD PTR [ebp-0x10]
  101baf:	eb 13                	jmp    101bc4 <createWindow+0x174>
  101bb1:	83 45 f4 01          	add    DWORD PTR [ebp-0xc],0x1
  101bb5:	83 7d f4 63          	cmp    DWORD PTR [ebp-0xc],0x63
  101bb9:	0f 8e af fe ff ff    	jle    101a6e <createWindow+0x1e>
  101bbf:	b8 00 00 00 00       	mov    eax,0x0
  101bc4:	8b 5d fc             	mov    ebx,DWORD PTR [ebp-0x4]
  101bc7:	c9                   	leave  
  101bc8:	c3                   	ret    

00101bc9 <init_video>:
  101bc9:	55                   	push   ebp
  101bca:	89 e5                	mov    ebp,esp
  101bcc:	57                   	push   edi
  101bcd:	56                   	push   esi
  101bce:	53                   	push   ebx
  101bcf:	83 ec 1c             	sub    esp,0x1c
  101bd2:	e8 7e e9 ff ff       	call   100555 <__x86.get_pc_thunk.bx>
  101bd7:	81 c3 29 24 01 00    	add    ebx,0x12429
  101bdd:	c7 c0 88 ee 11 00    	mov    eax,0x11ee88
  101be3:	c7 00 20 03 00 00    	mov    DWORD PTR [eax],0x320
  101be9:	c7 c0 8c ee 11 00    	mov    eax,0x11ee8c
  101bef:	c7 00 58 02 00 00    	mov    DWORD PTR [eax],0x258
  101bf5:	c7 c0 80 ee 11 00    	mov    eax,0x11ee80
  101bfb:	c7 00 08 00 00 00    	mov    DWORD PTR [eax],0x8
  101c01:	c7 c0 88 ee 11 00    	mov    eax,0x11ee88
  101c07:	8b 10                	mov    edx,DWORD PTR [eax]
  101c09:	c7 c0 80 ee 11 00    	mov    eax,0x11ee80
  101c0f:	8b 00                	mov    eax,DWORD PTR [eax]
  101c11:	0f af c2             	imul   eax,edx
  101c14:	8d 50 07             	lea    edx,[eax+0x7]
  101c17:	85 c0                	test   eax,eax
  101c19:	0f 48 c2             	cmovs  eax,edx
  101c1c:	c1 f8 03             	sar    eax,0x3
  101c1f:	89 c2                	mov    edx,eax
  101c21:	c7 c0 90 ee 11 00    	mov    eax,0x11ee90
  101c27:	89 10                	mov    DWORD PTR [eax],edx
  101c29:	c7 c0 80 ee 11 00    	mov    eax,0x11ee80
  101c2f:	8b 00                	mov    eax,DWORD PTR [eax]
  101c31:	89 c1                	mov    ecx,eax
  101c33:	c7 c0 8c ee 11 00    	mov    eax,0x11ee8c
  101c39:	8b 00                	mov    eax,DWORD PTR [eax]
  101c3b:	89 c2                	mov    edx,eax
  101c3d:	c7 c0 88 ee 11 00    	mov    eax,0x11ee88
  101c43:	8b 00                	mov    eax,DWORD PTR [eax]
  101c45:	83 ec 0c             	sub    esp,0xc
  101c48:	6a 00                	push   0x0
  101c4a:	6a 00                	push   0x0
  101c4c:	51                   	push   ecx
  101c4d:	52                   	push   edx
  101c4e:	50                   	push   eax
  101c4f:	e8 4c 19 00 00       	call   1035a0 <bga_set_video_mode>
  101c54:	83 c4 20             	add    esp,0x20
  101c57:	83 ec 0c             	sub    esp,0xc
  101c5a:	6a 00                	push   0x0
  101c5c:	e8 d4 19 00 00       	call   103635 <bga_set_bank>
  101c61:	83 c4 10             	add    esp,0x10
  101c64:	e8 ae 00 00 00       	call   101d17 <initPalette>
  101c69:	e8 91 01 00 00       	call   101dff <cacheFonts>
  101c6e:	c7 c0 8c ee 11 00    	mov    eax,0x11ee8c
  101c74:	8b 10                	mov    edx,DWORD PTR [eax]
  101c76:	c7 c0 88 ee 11 00    	mov    eax,0x11ee88
  101c7c:	8b 00                	mov    eax,DWORD PTR [eax]
  101c7e:	83 ec 08             	sub    esp,0x8
  101c81:	52                   	push   edx
  101c82:	50                   	push   eax
  101c83:	e8 44 0c 00 00       	call   1028cc <init_sheets>
  101c88:	83 c4 10             	add    esp,0x10
  101c8b:	e8 32 0d 00 00       	call   1029c2 <alloc_sheet>
  101c90:	89 45 e4             	mov    DWORD PTR [ebp-0x1c],eax
  101c93:	c7 c0 8c ee 11 00    	mov    eax,0x11ee8c
  101c99:	8b 38                	mov    edi,DWORD PTR [eax]
  101c9b:	c7 c0 88 ee 11 00    	mov    eax,0x11ee88
  101ca1:	8b 30                	mov    esi,DWORD PTR [eax]
  101ca3:	c7 c0 88 ee 11 00    	mov    eax,0x11ee88
  101ca9:	8b 10                	mov    edx,DWORD PTR [eax]
  101cab:	c7 c0 8c ee 11 00    	mov    eax,0x11ee8c
  101cb1:	8b 00                	mov    eax,DWORD PTR [eax]
  101cb3:	0f af c2             	imul   eax,edx
  101cb6:	83 ec 0c             	sub    esp,0xc
  101cb9:	50                   	push   eax
  101cba:	e8 3b 20 00 00       	call   103cfa <mm_alloc_4k>
  101cbf:	83 c4 10             	add    esp,0x10
  101cc2:	83 ec 0c             	sub    esp,0xc
  101cc5:	6a ff                	push   0xffffffff
  101cc7:	57                   	push   edi
  101cc8:	56                   	push   esi
  101cc9:	50                   	push   eax
  101cca:	ff 75 e4             	push   DWORD PTR [ebp-0x1c]
  101ccd:	e8 a2 0d 00 00       	call   102a74 <sheet_setbuf>
  101cd2:	83 c4 20             	add    esp,0x20
  101cd5:	c7 c0 88 ee 11 00    	mov    eax,0x11ee88
  101cdb:	8b 10                	mov    edx,DWORD PTR [eax]
  101cdd:	c7 c0 8c ee 11 00    	mov    eax,0x11ee8c
  101ce3:	8b 00                	mov    eax,DWORD PTR [eax]
  101ce5:	0f af c2             	imul   eax,edx
  101ce8:	89 c2                	mov    edx,eax
  101cea:	8b 45 e4             	mov    eax,DWORD PTR [ebp-0x1c]
  101ced:	8b 00                	mov    eax,DWORD PTR [eax]
  101cef:	83 ec 04             	sub    esp,0x4
  101cf2:	52                   	push   edx
  101cf3:	6a 00                	push   0x0
  101cf5:	50                   	push   eax
  101cf6:	e8 2e 17 00 00       	call   103429 <memset>
  101cfb:	83 c4 10             	add    esp,0x10
  101cfe:	83 ec 08             	sub    esp,0x8
  101d01:	6a 00                	push   0x0
  101d03:	ff 75 e4             	push   DWORD PTR [ebp-0x1c]
  101d06:	e8 9c 0d 00 00       	call   102aa7 <movez>
  101d0b:	83 c4 10             	add    esp,0x10
  101d0e:	90                   	nop
  101d0f:	8d 65 f4             	lea    esp,[ebp-0xc]
  101d12:	5b                   	pop    ebx
  101d13:	5e                   	pop    esi
  101d14:	5f                   	pop    edi
  101d15:	5d                   	pop    ebp
  101d16:	c3                   	ret    

00101d17 <initPalette>:
  101d17:	55                   	push   ebp
  101d18:	89 e5                	mov    ebp,esp
  101d1a:	83 ec 08             	sub    esp,0x8
  101d1d:	e8 2f e8 ff ff       	call   100551 <__x86.get_pc_thunk.ax>
  101d22:	05 de 22 01 00       	add    eax,0x122de
  101d27:	83 ec 04             	sub    esp,0x4
  101d2a:	8d 80 e0 06 ff ff    	lea    eax,[eax-0xf920]
  101d30:	50                   	push   eax
  101d31:	6a 0f                	push   0xf
  101d33:	6a 00                	push   0x0
  101d35:	e8 06 00 00 00       	call   101d40 <setPalette>
  101d3a:	83 c4 10             	add    esp,0x10
  101d3d:	90                   	nop
  101d3e:	c9                   	leave  
  101d3f:	c3                   	ret    

00101d40 <setPalette>:
  101d40:	55                   	push   ebp
  101d41:	89 e5                	mov    ebp,esp
  101d43:	53                   	push   ebx
  101d44:	83 ec 14             	sub    esp,0x14
  101d47:	e8 09 e8 ff ff       	call   100555 <__x86.get_pc_thunk.bx>
  101d4c:	81 c3 b4 22 01 00    	add    ebx,0x122b4
  101d52:	e8 2e 16 00 00       	call   103385 <io_load_eflags>
  101d57:	89 45 f0             	mov    DWORD PTR [ebp-0x10],eax
  101d5a:	e8 24 16 00 00       	call   103383 <io_cli>
  101d5f:	8b 45 08             	mov    eax,DWORD PTR [ebp+0x8]
  101d62:	0f b6 c0             	movzx  eax,al
  101d65:	83 ec 08             	sub    esp,0x8
  101d68:	50                   	push   eax
  101d69:	68 c8 03 00 00       	push   0x3c8
  101d6e:	e8 69 16 00 00       	call   1033dc <out8>
  101d73:	83 c4 10             	add    esp,0x10
  101d76:	8b 45 08             	mov    eax,DWORD PTR [ebp+0x8]
  101d79:	89 45 f4             	mov    DWORD PTR [ebp-0xc],eax
  101d7c:	eb 65                	jmp    101de3 <setPalette+0xa3>
  101d7e:	8b 45 10             	mov    eax,DWORD PTR [ebp+0x10]
  101d81:	0f b6 00             	movzx  eax,BYTE PTR [eax]
  101d84:	c0 e8 02             	shr    al,0x2
  101d87:	0f b6 c0             	movzx  eax,al
  101d8a:	83 ec 08             	sub    esp,0x8
  101d8d:	50                   	push   eax
  101d8e:	68 c9 03 00 00       	push   0x3c9
  101d93:	e8 44 16 00 00       	call   1033dc <out8>
  101d98:	83 c4 10             	add    esp,0x10
  101d9b:	8b 45 10             	mov    eax,DWORD PTR [ebp+0x10]
  101d9e:	83 c0 01             	add    eax,0x1
  101da1:	0f b6 00             	movzx  eax,BYTE PTR [eax]
  101da4:	c0 e8 02             	shr    al,0x2
  101da7:	0f b6 c0             	movzx  eax,al
  101daa:	83 ec 08             	sub    esp,0x8
  101dad:	50                   	push   eax
  101dae:	68 c9 03 00 00       	push   0x3c9
  101db3:	e8 24 16 00 00       	call   1033dc <out8>
  101db8:	83 c4 10             	add    esp,0x10
  101dbb:	8b 45 10             	mov    eax,DWORD PTR [ebp+0x10]
  101dbe:	83 c0 02             	add    eax,0x2
  101dc1:	0f b6 00             	movzx  eax,BYTE PTR [eax]
  101dc4:	c0 e8 02             	shr    al,0x2
  101dc7:	0f b6 c0             	movzx  eax,al
  101dca:	83 ec 08             	sub    esp,0x8
  101dcd:	50                   	push   eax
  101dce:	68 c9 03 00 00       	push   0x3c9
  101dd3:	e8 04 16 00 00       	call   1033dc <out8>
  101dd8:	83 c4 10             	add    esp,0x10
  101ddb:	83 45 10 03          	add    DWORD PTR [ebp+0x10],0x3
  101ddf:	83 45 f4 01          	add    DWORD PTR [ebp-0xc],0x1
  101de3:	8b 45 f4             	mov    eax,DWORD PTR [ebp-0xc]
  101de6:	3b 45 0c             	cmp    eax,DWORD PTR [ebp+0xc]
  101de9:	7e 93                	jle    101d7e <setPalette+0x3e>
  101deb:	83 ec 0c             	sub    esp,0xc
  101dee:	ff 75 f0             	push   DWORD PTR [ebp-0x10]
  101df1:	e8 92 15 00 00       	call   103388 <io_store_eflags>
  101df6:	83 c4 10             	add    esp,0x10
  101df9:	90                   	nop
  101dfa:	8b 5d fc             	mov    ebx,DWORD PTR [ebp-0x4]
  101dfd:	c9                   	leave  
  101dfe:	c3                   	ret    

00101dff <cacheFonts>:
  101dff:	55                   	push   ebp
  101e00:	89 e5                	mov    ebp,esp
  101e02:	53                   	push   ebx
  101e03:	83 ec 10             	sub    esp,0x10
  101e06:	e8 46 e7 ff ff       	call   100551 <__x86.get_pc_thunk.ax>
  101e0b:	05 f5 21 01 00       	add    eax,0x121f5
  101e10:	c7 45 f8 00 00 00 00 	mov    DWORD PTR [ebp-0x8],0x0
  101e17:	eb 2b                	jmp    101e44 <cacheFonts+0x45>
  101e19:	c7 c2 f0 3f 11 00    	mov    edx,0x113ff0
  101e1f:	8b 52 08             	mov    edx,DWORD PTR [edx+0x8]
  101e22:	8b 4d f8             	mov    ecx,DWORD PTR [ebp-0x8]
  101e25:	01 c9                	add    ecx,ecx
  101e27:	01 ca                	add    edx,ecx
  101e29:	0f b7 12             	movzx  edx,WORD PTR [edx]
  101e2c:	66 89 55 f6          	mov    WORD PTR [ebp-0xa],dx
  101e30:	0f b7 4d f6          	movzx  ecx,WORD PTR [ebp-0xa]
  101e34:	8b 5d f8             	mov    ebx,DWORD PTR [ebp-0x8]
  101e37:	c7 c2 a0 ee 11 00    	mov    edx,0x11eea0
  101e3d:	89 1c 8a             	mov    DWORD PTR [edx+ecx*4],ebx
  101e40:	83 45 f8 01          	add    DWORD PTR [ebp-0x8],0x1
  101e44:	c7 c2 f0 3f 11 00    	mov    edx,0x113ff0
  101e4a:	0f b7 52 02          	movzx  edx,WORD PTR [edx+0x2]
  101e4e:	0f b7 d2             	movzx  edx,dx
  101e51:	39 55 f8             	cmp    DWORD PTR [ebp-0x8],edx
  101e54:	72 c3                	jb     101e19 <cacheFonts+0x1a>
  101e56:	90                   	nop
  101e57:	83 c4 10             	add    esp,0x10
  101e5a:	5b                   	pop    ebx
  101e5b:	5d                   	pop    ebp
  101e5c:	c3                   	ret    

00101e5d <putPixelTo>:
  101e5d:	55                   	push   ebp
  101e5e:	89 e5                	mov    ebp,esp
  101e60:	83 ec 10             	sub    esp,0x10
  101e63:	e8 e9 e6 ff ff       	call   100551 <__x86.get_pc_thunk.ax>
  101e68:	05 98 21 01 00       	add    eax,0x12198
  101e6d:	8b 45 14             	mov    eax,DWORD PTR [ebp+0x14]
  101e70:	0f af 45 0c          	imul   eax,DWORD PTR [ebp+0xc]
  101e74:	89 c2                	mov    edx,eax
  101e76:	8b 45 10             	mov    eax,DWORD PTR [ebp+0x10]
  101e79:	01 d0                	add    eax,edx
  101e7b:	89 45 fc             	mov    DWORD PTR [ebp-0x4],eax
  101e7e:	8b 55 08             	mov    edx,DWORD PTR [ebp+0x8]
  101e81:	8b 45 fc             	mov    eax,DWORD PTR [ebp-0x4]
  101e84:	01 d0                	add    eax,edx
  101e86:	8b 55 18             	mov    edx,DWORD PTR [ebp+0x18]
  101e89:	88 10                	mov    BYTE PTR [eax],dl
  101e8b:	90                   	nop
  101e8c:	c9                   	leave  
  101e8d:	c3                   	ret    

00101e8e <putPixel>:
  101e8e:	55                   	push   ebp
  101e8f:	89 e5                	mov    ebp,esp
  101e91:	53                   	push   ebx
  101e92:	83 ec 14             	sub    esp,0x14
  101e95:	e8 bb e6 ff ff       	call   100555 <__x86.get_pc_thunk.bx>
  101e9a:	81 c3 66 21 01 00    	add    ebx,0x12166
  101ea0:	c7 c0 90 ee 11 00    	mov    eax,0x11ee90
  101ea6:	8b 00                	mov    eax,DWORD PTR [eax]
  101ea8:	0f af 45 0c          	imul   eax,DWORD PTR [ebp+0xc]
  101eac:	89 c2                	mov    edx,eax
  101eae:	8b 45 08             	mov    eax,DWORD PTR [ebp+0x8]
  101eb1:	01 d0                	add    eax,edx
  101eb3:	89 45 f4             	mov    DWORD PTR [ebp-0xc],eax
  101eb6:	c7 c0 a8 ee 15 00    	mov    eax,0x15eea8
  101ebc:	8b 00                	mov    eax,DWORD PTR [eax]
  101ebe:	39 45 f4             	cmp    DWORD PTR [ebp-0xc],eax
  101ec1:	72 0d                	jb     101ed0 <putPixel+0x42>
  101ec3:	c7 c0 a0 ee 15 00    	mov    eax,0x15eea0
  101ec9:	8b 00                	mov    eax,DWORD PTR [eax]
  101ecb:	39 45 f4             	cmp    DWORD PTR [ebp-0xc],eax
  101ece:	72 15                	jb     101ee5 <putPixel+0x57>
  101ed0:	8b 45 f4             	mov    eax,DWORD PTR [ebp-0xc]
  101ed3:	c1 e8 10             	shr    eax,0x10
  101ed6:	0f b7 c0             	movzx  eax,ax
  101ed9:	83 ec 0c             	sub    esp,0xc
  101edc:	50                   	push   eax
  101edd:	e8 53 17 00 00       	call   103635 <bga_set_bank>
  101ee2:	83 c4 10             	add    esp,0x10
  101ee5:	8b 93 b8 01 00 00    	mov    edx,DWORD PTR [ebx+0x1b8]
  101eeb:	8b 45 f4             	mov    eax,DWORD PTR [ebp-0xc]
  101eee:	0f b7 c0             	movzx  eax,ax
  101ef1:	01 d0                	add    eax,edx
  101ef3:	8b 55 10             	mov    edx,DWORD PTR [ebp+0x10]
  101ef6:	88 10                	mov    BYTE PTR [eax],dl
  101ef8:	90                   	nop
  101ef9:	8b 5d fc             	mov    ebx,DWORD PTR [ebp-0x4]
  101efc:	c9                   	leave  
  101efd:	c3                   	ret    

00101efe <drawLineTo>:
  101efe:	55                   	push   ebp
  101eff:	89 e5                	mov    ebp,esp
  101f01:	83 ec 30             	sub    esp,0x30
  101f04:	e8 48 e6 ff ff       	call   100551 <__x86.get_pc_thunk.ax>
  101f09:	05 f7 20 01 00       	add    eax,0x120f7
  101f0e:	8b 45 18             	mov    eax,DWORD PTR [ebp+0x18]
  101f11:	2b 45 10             	sub    eax,DWORD PTR [ebp+0x10]
  101f14:	89 45 e4             	mov    DWORD PTR [ebp-0x1c],eax
  101f17:	8b 45 1c             	mov    eax,DWORD PTR [ebp+0x1c]
  101f1a:	2b 45 14             	sub    eax,DWORD PTR [ebp+0x14]
  101f1d:	89 45 e0             	mov    DWORD PTR [ebp-0x20],eax
  101f20:	83 7d e4 00          	cmp    DWORD PTR [ebp-0x1c],0x0
  101f24:	7e 07                	jle    101f2d <drawLineTo+0x2f>
  101f26:	b8 01 00 00 00       	mov    eax,0x1
  101f2b:	eb 05                	jmp    101f32 <drawLineTo+0x34>
  101f2d:	b8 ff ff ff ff       	mov    eax,0xffffffff
  101f32:	89 45 dc             	mov    DWORD PTR [ebp-0x24],eax
  101f35:	83 7d e0 00          	cmp    DWORD PTR [ebp-0x20],0x0
  101f39:	7e 07                	jle    101f42 <drawLineTo+0x44>
  101f3b:	b8 01 00 00 00       	mov    eax,0x1
  101f40:	eb 05                	jmp    101f47 <drawLineTo+0x49>
  101f42:	b8 ff ff ff ff       	mov    eax,0xffffffff
  101f47:	89 45 d8             	mov    DWORD PTR [ebp-0x28],eax
  101f4a:	8b 45 e4             	mov    eax,DWORD PTR [ebp-0x1c]
  101f4d:	01 c0                	add    eax,eax
  101f4f:	89 45 d4             	mov    DWORD PTR [ebp-0x2c],eax
  101f52:	8b 45 e0             	mov    eax,DWORD PTR [ebp-0x20]
  101f55:	01 c0                	add    eax,eax
  101f57:	89 45 d0             	mov    DWORD PTR [ebp-0x30],eax
  101f5a:	8b 45 e4             	mov    eax,DWORD PTR [ebp-0x1c]
  101f5d:	c1 f8 1f             	sar    eax,0x1f
  101f60:	89 c2                	mov    edx,eax
  101f62:	33 55 e4             	xor    edx,DWORD PTR [ebp-0x1c]
  101f65:	29 c2                	sub    edx,eax
  101f67:	8b 45 e0             	mov    eax,DWORD PTR [ebp-0x20]
  101f6a:	c1 f8 1f             	sar    eax,0x1f
  101f6d:	89 c1                	mov    ecx,eax
  101f6f:	89 c8                	mov    eax,ecx
  101f71:	33 45 e0             	xor    eax,DWORD PTR [ebp-0x20]
  101f74:	29 c8                	sub    eax,ecx
  101f76:	39 c2                	cmp    edx,eax
  101f78:	7e 55                	jle    101fcf <drawLineTo+0xd1>
  101f7a:	8b 45 e4             	mov    eax,DWORD PTR [ebp-0x1c]
  101f7d:	f7 d8                	neg    eax
  101f7f:	89 45 fc             	mov    DWORD PTR [ebp-0x4],eax
  101f82:	8b 45 14             	mov    eax,DWORD PTR [ebp+0x14]
  101f85:	89 45 f8             	mov    DWORD PTR [ebp-0x8],eax
  101f88:	8b 45 10             	mov    eax,DWORD PTR [ebp+0x10]
  101f8b:	89 45 f4             	mov    DWORD PTR [ebp-0xc],eax
  101f8e:	eb 35                	jmp    101fc5 <drawLineTo+0xc7>
  101f90:	ff 75 20             	push   DWORD PTR [ebp+0x20]
  101f93:	ff 75 f8             	push   DWORD PTR [ebp-0x8]
  101f96:	ff 75 f4             	push   DWORD PTR [ebp-0xc]
  101f99:	ff 75 0c             	push   DWORD PTR [ebp+0xc]
  101f9c:	ff 75 08             	push   DWORD PTR [ebp+0x8]
  101f9f:	e8 b9 fe ff ff       	call   101e5d <putPixelTo>
  101fa4:	83 c4 14             	add    esp,0x14
  101fa7:	8b 45 d0             	mov    eax,DWORD PTR [ebp-0x30]
  101faa:	01 45 fc             	add    DWORD PTR [ebp-0x4],eax
  101fad:	83 7d fc 00          	cmp    DWORD PTR [ebp-0x4],0x0
  101fb1:	7e 0c                	jle    101fbf <drawLineTo+0xc1>
  101fb3:	8b 45 d8             	mov    eax,DWORD PTR [ebp-0x28]
  101fb6:	01 45 f8             	add    DWORD PTR [ebp-0x8],eax
  101fb9:	8b 45 d4             	mov    eax,DWORD PTR [ebp-0x2c]
  101fbc:	29 45 fc             	sub    DWORD PTR [ebp-0x4],eax
  101fbf:	8b 45 dc             	mov    eax,DWORD PTR [ebp-0x24]
  101fc2:	01 45 f4             	add    DWORD PTR [ebp-0xc],eax
  101fc5:	8b 45 f4             	mov    eax,DWORD PTR [ebp-0xc]
  101fc8:	3b 45 18             	cmp    eax,DWORD PTR [ebp+0x18]
  101fcb:	7c c3                	jl     101f90 <drawLineTo+0x92>
  101fcd:	eb 53                	jmp    102022 <drawLineTo+0x124>
  101fcf:	8b 45 e0             	mov    eax,DWORD PTR [ebp-0x20]
  101fd2:	f7 d8                	neg    eax
  101fd4:	89 45 f0             	mov    DWORD PTR [ebp-0x10],eax
  101fd7:	8b 45 10             	mov    eax,DWORD PTR [ebp+0x10]
  101fda:	89 45 ec             	mov    DWORD PTR [ebp-0x14],eax
  101fdd:	8b 45 14             	mov    eax,DWORD PTR [ebp+0x14]
  101fe0:	89 45 e8             	mov    DWORD PTR [ebp-0x18],eax
  101fe3:	eb 35                	jmp    10201a <drawLineTo+0x11c>
  101fe5:	ff 75 20             	push   DWORD PTR [ebp+0x20]
  101fe8:	ff 75 e8             	push   DWORD PTR [ebp-0x18]
  101feb:	ff 75 ec             	push   DWORD PTR [ebp-0x14]
  101fee:	ff 75 0c             	push   DWORD PTR [ebp+0xc]
  101ff1:	ff 75 08             	push   DWORD PTR [ebp+0x8]
  101ff4:	e8 64 fe ff ff       	call   101e5d <putPixelTo>
  101ff9:	83 c4 14             	add    esp,0x14
  101ffc:	8b 45 d4             	mov    eax,DWORD PTR [ebp-0x2c]
  101fff:	01 45 f0             	add    DWORD PTR [ebp-0x10],eax
  102002:	83 7d f0 00          	cmp    DWORD PTR [ebp-0x10],0x0
  102006:	7e 0c                	jle    102014 <drawLineTo+0x116>
  102008:	8b 45 dc             	mov    eax,DWORD PTR [ebp-0x24]
  10200b:	01 45 ec             	add    DWORD PTR [ebp-0x14],eax
  10200e:	8b 45 d0             	mov    eax,DWORD PTR [ebp-0x30]
  102011:	29 45 f0             	sub    DWORD PTR [ebp-0x10],eax
  102014:	8b 45 d8             	mov    eax,DWORD PTR [ebp-0x28]
  102017:	01 45 e8             	add    DWORD PTR [ebp-0x18],eax
  10201a:	8b 45 e8             	mov    eax,DWORD PTR [ebp-0x18]
  10201d:	3b 45 1c             	cmp    eax,DWORD PTR [ebp+0x1c]
  102020:	7c c3                	jl     101fe5 <drawLineTo+0xe7>
  102022:	90                   	nop
  102023:	c9                   	leave  
  102024:	c3                   	ret    

00102025 <drawLine>:
  102025:	55                   	push   ebp
  102026:	89 e5                	mov    ebp,esp
  102028:	83 ec 38             	sub    esp,0x38
  10202b:	e8 21 e5 ff ff       	call   100551 <__x86.get_pc_thunk.ax>
  102030:	05 d0 1f 01 00       	add    eax,0x11fd0
  102035:	8b 45 10             	mov    eax,DWORD PTR [ebp+0x10]
  102038:	2b 45 08             	sub    eax,DWORD PTR [ebp+0x8]
  10203b:	89 45 dc             	mov    DWORD PTR [ebp-0x24],eax
  10203e:	8b 45 14             	mov    eax,DWORD PTR [ebp+0x14]
  102041:	2b 45 0c             	sub    eax,DWORD PTR [ebp+0xc]
  102044:	89 45 d8             	mov    DWORD PTR [ebp-0x28],eax
  102047:	83 7d dc 00          	cmp    DWORD PTR [ebp-0x24],0x0
  10204b:	7e 07                	jle    102054 <drawLine+0x2f>
  10204d:	b8 01 00 00 00       	mov    eax,0x1
  102052:	eb 05                	jmp    102059 <drawLine+0x34>
  102054:	b8 ff ff ff ff       	mov    eax,0xffffffff
  102059:	89 45 d4             	mov    DWORD PTR [ebp-0x2c],eax
  10205c:	83 7d d8 00          	cmp    DWORD PTR [ebp-0x28],0x0
  102060:	7e 07                	jle    102069 <drawLine+0x44>
  102062:	b8 01 00 00 00       	mov    eax,0x1
  102067:	eb 05                	jmp    10206e <drawLine+0x49>
  102069:	b8 ff ff ff ff       	mov    eax,0xffffffff
  10206e:	89 45 d0             	mov    DWORD PTR [ebp-0x30],eax
  102071:	8b 45 dc             	mov    eax,DWORD PTR [ebp-0x24]
  102074:	01 c0                	add    eax,eax
  102076:	89 45 cc             	mov    DWORD PTR [ebp-0x34],eax
  102079:	8b 45 d8             	mov    eax,DWORD PTR [ebp-0x28]
  10207c:	01 c0                	add    eax,eax
  10207e:	89 45 c8             	mov    DWORD PTR [ebp-0x38],eax
  102081:	8b 45 dc             	mov    eax,DWORD PTR [ebp-0x24]
  102084:	c1 f8 1f             	sar    eax,0x1f
  102087:	89 c2                	mov    edx,eax
  102089:	33 55 dc             	xor    edx,DWORD PTR [ebp-0x24]
  10208c:	29 c2                	sub    edx,eax
  10208e:	8b 45 d8             	mov    eax,DWORD PTR [ebp-0x28]
  102091:	c1 f8 1f             	sar    eax,0x1f
  102094:	89 c1                	mov    ecx,eax
  102096:	89 c8                	mov    eax,ecx
  102098:	33 45 d8             	xor    eax,DWORD PTR [ebp-0x28]
  10209b:	29 c8                	sub    eax,ecx
  10209d:	39 c2                	cmp    edx,eax
  10209f:	7e 52                	jle    1020f3 <drawLine+0xce>
  1020a1:	8b 45 dc             	mov    eax,DWORD PTR [ebp-0x24]
  1020a4:	f7 d8                	neg    eax
  1020a6:	89 45 f4             	mov    DWORD PTR [ebp-0xc],eax
  1020a9:	8b 45 0c             	mov    eax,DWORD PTR [ebp+0xc]
  1020ac:	89 45 f0             	mov    DWORD PTR [ebp-0x10],eax
  1020af:	8b 45 08             	mov    eax,DWORD PTR [ebp+0x8]
  1020b2:	89 45 ec             	mov    DWORD PTR [ebp-0x14],eax
  1020b5:	eb 32                	jmp    1020e9 <drawLine+0xc4>
  1020b7:	83 ec 04             	sub    esp,0x4
  1020ba:	ff 75 18             	push   DWORD PTR [ebp+0x18]
  1020bd:	ff 75 f0             	push   DWORD PTR [ebp-0x10]
  1020c0:	ff 75 ec             	push   DWORD PTR [ebp-0x14]
  1020c3:	e8 c6 fd ff ff       	call   101e8e <putPixel>
  1020c8:	83 c4 10             	add    esp,0x10
  1020cb:	8b 45 c8             	mov    eax,DWORD PTR [ebp-0x38]
  1020ce:	01 45 f4             	add    DWORD PTR [ebp-0xc],eax
  1020d1:	83 7d f4 00          	cmp    DWORD PTR [ebp-0xc],0x0
  1020d5:	7e 0c                	jle    1020e3 <drawLine+0xbe>
  1020d7:	8b 45 d0             	mov    eax,DWORD PTR [ebp-0x30]
  1020da:	01 45 f0             	add    DWORD PTR [ebp-0x10],eax
  1020dd:	8b 45 cc             	mov    eax,DWORD PTR [ebp-0x34]
  1020e0:	29 45 f4             	sub    DWORD PTR [ebp-0xc],eax
  1020e3:	8b 45 d4             	mov    eax,DWORD PTR [ebp-0x2c]
  1020e6:	01 45 ec             	add    DWORD PTR [ebp-0x14],eax
  1020e9:	8b 45 ec             	mov    eax,DWORD PTR [ebp-0x14]
  1020ec:	3b 45 10             	cmp    eax,DWORD PTR [ebp+0x10]
  1020ef:	7c c6                	jl     1020b7 <drawLine+0x92>
  1020f1:	eb 50                	jmp    102143 <drawLine+0x11e>
  1020f3:	8b 45 d8             	mov    eax,DWORD PTR [ebp-0x28]
  1020f6:	f7 d8                	neg    eax
  1020f8:	89 45 e8             	mov    DWORD PTR [ebp-0x18],eax
  1020fb:	8b 45 08             	mov    eax,DWORD PTR [ebp+0x8]
  1020fe:	89 45 e4             	mov    DWORD PTR [ebp-0x1c],eax
  102101:	8b 45 0c             	mov    eax,DWORD PTR [ebp+0xc]
  102104:	89 45 e0             	mov    DWORD PTR [ebp-0x20],eax
  102107:	eb 32                	jmp    10213b <drawLine+0x116>
  102109:	83 ec 04             	sub    esp,0x4
  10210c:	ff 75 18             	push   DWORD PTR [ebp+0x18]
  10210f:	ff 75 e0             	push   DWORD PTR [ebp-0x20]
  102112:	ff 75 e4             	push   DWORD PTR [ebp-0x1c]
  102115:	e8 74 fd ff ff       	call   101e8e <putPixel>
  10211a:	83 c4 10             	add    esp,0x10
  10211d:	8b 45 cc             	mov    eax,DWORD PTR [ebp-0x34]
  102120:	01 45 e8             	add    DWORD PTR [ebp-0x18],eax
  102123:	83 7d e8 00          	cmp    DWORD PTR [ebp-0x18],0x0
  102127:	7e 0c                	jle    102135 <drawLine+0x110>
  102129:	8b 45 d4             	mov    eax,DWORD PTR [ebp-0x2c]
  10212c:	01 45 e4             	add    DWORD PTR [ebp-0x1c],eax
  10212f:	8b 45 c8             	mov    eax,DWORD PTR [ebp-0x38]
  102132:	29 45 e8             	sub    DWORD PTR [ebp-0x18],eax
  102135:	8b 45 d0             	mov    eax,DWORD PTR [ebp-0x30]
  102138:	01 45 e0             	add    DWORD PTR [ebp-0x20],eax
  10213b:	8b 45 e0             	mov    eax,DWORD PTR [ebp-0x20]
  10213e:	3b 45 14             	cmp    eax,DWORD PTR [ebp+0x14]
  102141:	7c c6                	jl     102109 <drawLine+0xe4>
  102143:	90                   	nop
  102144:	c9                   	leave  
  102145:	c3                   	ret    

00102146 <drawRectTo>:
  102146:	55                   	push   ebp
  102147:	89 e5                	mov    ebp,esp
  102149:	83 ec 10             	sub    esp,0x10
  10214c:	e8 00 e4 ff ff       	call   100551 <__x86.get_pc_thunk.ax>
  102151:	05 af 1e 01 00       	add    eax,0x11eaf
  102156:	8b 45 14             	mov    eax,DWORD PTR [ebp+0x14]
  102159:	89 45 fc             	mov    DWORD PTR [ebp-0x4],eax
  10215c:	eb 32                	jmp    102190 <drawRectTo+0x4a>
  10215e:	ff 75 20             	push   DWORD PTR [ebp+0x20]
  102161:	ff 75 fc             	push   DWORD PTR [ebp-0x4]
  102164:	ff 75 10             	push   DWORD PTR [ebp+0x10]
  102167:	ff 75 0c             	push   DWORD PTR [ebp+0xc]
  10216a:	ff 75 08             	push   DWORD PTR [ebp+0x8]
  10216d:	e8 eb fc ff ff       	call   101e5d <putPixelTo>
  102172:	83 c4 14             	add    esp,0x14
  102175:	ff 75 20             	push   DWORD PTR [ebp+0x20]
  102178:	ff 75 fc             	push   DWORD PTR [ebp-0x4]
  10217b:	ff 75 18             	push   DWORD PTR [ebp+0x18]
  10217e:	ff 75 0c             	push   DWORD PTR [ebp+0xc]
  102181:	ff 75 08             	push   DWORD PTR [ebp+0x8]
  102184:	e8 d4 fc ff ff       	call   101e5d <putPixelTo>
  102189:	83 c4 14             	add    esp,0x14
  10218c:	83 45 fc 01          	add    DWORD PTR [ebp-0x4],0x1
  102190:	8b 45 fc             	mov    eax,DWORD PTR [ebp-0x4]
  102193:	3b 45 1c             	cmp    eax,DWORD PTR [ebp+0x1c]
  102196:	7c c6                	jl     10215e <drawRectTo+0x18>
  102198:	8b 45 10             	mov    eax,DWORD PTR [ebp+0x10]
  10219b:	89 45 f8             	mov    DWORD PTR [ebp-0x8],eax
  10219e:	eb 32                	jmp    1021d2 <drawRectTo+0x8c>
  1021a0:	ff 75 20             	push   DWORD PTR [ebp+0x20]
  1021a3:	ff 75 14             	push   DWORD PTR [ebp+0x14]
  1021a6:	ff 75 f8             	push   DWORD PTR [ebp-0x8]
  1021a9:	ff 75 0c             	push   DWORD PTR [ebp+0xc]
  1021ac:	ff 75 08             	push   DWORD PTR [ebp+0x8]
  1021af:	e8 a9 fc ff ff       	call   101e5d <putPixelTo>
  1021b4:	83 c4 14             	add    esp,0x14
  1021b7:	ff 75 20             	push   DWORD PTR [ebp+0x20]
  1021ba:	ff 75 1c             	push   DWORD PTR [ebp+0x1c]
  1021bd:	ff 75 f8             	push   DWORD PTR [ebp-0x8]
  1021c0:	ff 75 0c             	push   DWORD PTR [ebp+0xc]
  1021c3:	ff 75 08             	push   DWORD PTR [ebp+0x8]
  1021c6:	e8 92 fc ff ff       	call   101e5d <putPixelTo>
  1021cb:	83 c4 14             	add    esp,0x14
  1021ce:	83 45 f8 01          	add    DWORD PTR [ebp-0x8],0x1
  1021d2:	8b 45 f8             	mov    eax,DWORD PTR [ebp-0x8]
  1021d5:	3b 45 18             	cmp    eax,DWORD PTR [ebp+0x18]
  1021d8:	7c c6                	jl     1021a0 <drawRectTo+0x5a>
  1021da:	90                   	nop
  1021db:	c9                   	leave  
  1021dc:	c3                   	ret    

001021dd <drawRect>:
  1021dd:	55                   	push   ebp
  1021de:	89 e5                	mov    ebp,esp
  1021e0:	83 ec 18             	sub    esp,0x18
  1021e3:	e8 69 e3 ff ff       	call   100551 <__x86.get_pc_thunk.ax>
  1021e8:	05 18 1e 01 00       	add    eax,0x11e18
  1021ed:	8b 45 0c             	mov    eax,DWORD PTR [ebp+0xc]
  1021f0:	89 45 f4             	mov    DWORD PTR [ebp-0xc],eax
  1021f3:	eb 2c                	jmp    102221 <drawRect+0x44>
  1021f5:	83 ec 04             	sub    esp,0x4
  1021f8:	ff 75 18             	push   DWORD PTR [ebp+0x18]
  1021fb:	ff 75 f4             	push   DWORD PTR [ebp-0xc]
  1021fe:	ff 75 08             	push   DWORD PTR [ebp+0x8]
  102201:	e8 88 fc ff ff       	call   101e8e <putPixel>
  102206:	83 c4 10             	add    esp,0x10
  102209:	83 ec 04             	sub    esp,0x4
  10220c:	ff 75 18             	push   DWORD PTR [ebp+0x18]
  10220f:	ff 75 f4             	push   DWORD PTR [ebp-0xc]
  102212:	ff 75 10             	push   DWORD PTR [ebp+0x10]
  102215:	e8 74 fc ff ff       	call   101e8e <putPixel>
  10221a:	83 c4 10             	add    esp,0x10
  10221d:	83 45 f4 01          	add    DWORD PTR [ebp-0xc],0x1
  102221:	8b 45 f4             	mov    eax,DWORD PTR [ebp-0xc]
  102224:	3b 45 14             	cmp    eax,DWORD PTR [ebp+0x14]
  102227:	7c cc                	jl     1021f5 <drawRect+0x18>
  102229:	8b 45 08             	mov    eax,DWORD PTR [ebp+0x8]
  10222c:	89 45 f0             	mov    DWORD PTR [ebp-0x10],eax
  10222f:	eb 2c                	jmp    10225d <drawRect+0x80>
  102231:	83 ec 04             	sub    esp,0x4
  102234:	ff 75 18             	push   DWORD PTR [ebp+0x18]
  102237:	ff 75 0c             	push   DWORD PTR [ebp+0xc]
  10223a:	ff 75 f0             	push   DWORD PTR [ebp-0x10]
  10223d:	e8 4c fc ff ff       	call   101e8e <putPixel>
  102242:	83 c4 10             	add    esp,0x10
  102245:	83 ec 04             	sub    esp,0x4
  102248:	ff 75 18             	push   DWORD PTR [ebp+0x18]
  10224b:	ff 75 14             	push   DWORD PTR [ebp+0x14]
  10224e:	ff 75 f0             	push   DWORD PTR [ebp-0x10]
  102251:	e8 38 fc ff ff       	call   101e8e <putPixel>
  102256:	83 c4 10             	add    esp,0x10
  102259:	83 45 f0 01          	add    DWORD PTR [ebp-0x10],0x1
  10225d:	8b 45 f0             	mov    eax,DWORD PTR [ebp-0x10]
  102260:	3b 45 10             	cmp    eax,DWORD PTR [ebp+0x10]
  102263:	7c cc                	jl     102231 <drawRect+0x54>
  102265:	90                   	nop
  102266:	c9                   	leave  
  102267:	c3                   	ret    

00102268 <fillRectTo>:
  102268:	55                   	push   ebp
  102269:	89 e5                	mov    ebp,esp
  10226b:	83 ec 10             	sub    esp,0x10
  10226e:	e8 de e2 ff ff       	call   100551 <__x86.get_pc_thunk.ax>
  102273:	05 8d 1d 01 00       	add    eax,0x11d8d
  102278:	8b 45 14             	mov    eax,DWORD PTR [ebp+0x14]
  10227b:	89 45 fc             	mov    DWORD PTR [ebp-0x4],eax
  10227e:	eb 2f                	jmp    1022af <fillRectTo+0x47>
  102280:	8b 45 10             	mov    eax,DWORD PTR [ebp+0x10]
  102283:	89 45 f8             	mov    DWORD PTR [ebp-0x8],eax
  102286:	eb 1b                	jmp    1022a3 <fillRectTo+0x3b>
  102288:	ff 75 20             	push   DWORD PTR [ebp+0x20]
  10228b:	ff 75 fc             	push   DWORD PTR [ebp-0x4]
  10228e:	ff 75 f8             	push   DWORD PTR [ebp-0x8]
  102291:	ff 75 0c             	push   DWORD PTR [ebp+0xc]
  102294:	ff 75 08             	push   DWORD PTR [ebp+0x8]
  102297:	e8 c1 fb ff ff       	call   101e5d <putPixelTo>
  10229c:	83 c4 14             	add    esp,0x14
  10229f:	83 45 f8 01          	add    DWORD PTR [ebp-0x8],0x1
  1022a3:	8b 45 f8             	mov    eax,DWORD PTR [ebp-0x8]
  1022a6:	3b 45 18             	cmp    eax,DWORD PTR [ebp+0x18]
  1022a9:	7c dd                	jl     102288 <fillRectTo+0x20>
  1022ab:	83 45 fc 01          	add    DWORD PTR [ebp-0x4],0x1
  1022af:	8b 45 fc             	mov    eax,DWORD PTR [ebp-0x4]
  1022b2:	3b 45 1c             	cmp    eax,DWORD PTR [ebp+0x1c]
  1022b5:	7c c9                	jl     102280 <fillRectTo+0x18>
  1022b7:	90                   	nop
  1022b8:	c9                   	leave  
  1022b9:	c3                   	ret    

001022ba <fillRect>:
  1022ba:	55                   	push   ebp
  1022bb:	89 e5                	mov    ebp,esp
  1022bd:	83 ec 18             	sub    esp,0x18
  1022c0:	e8 8c e2 ff ff       	call   100551 <__x86.get_pc_thunk.ax>
  1022c5:	05 3b 1d 01 00       	add    eax,0x11d3b
  1022ca:	8b 45 0c             	mov    eax,DWORD PTR [ebp+0xc]
  1022cd:	89 45 f4             	mov    DWORD PTR [ebp-0xc],eax
  1022d0:	eb 2c                	jmp    1022fe <fillRect+0x44>
  1022d2:	8b 45 08             	mov    eax,DWORD PTR [ebp+0x8]
  1022d5:	89 45 f0             	mov    DWORD PTR [ebp-0x10],eax
  1022d8:	eb 18                	jmp    1022f2 <fillRect+0x38>
  1022da:	83 ec 04             	sub    esp,0x4
  1022dd:	ff 75 18             	push   DWORD PTR [ebp+0x18]
  1022e0:	ff 75 f4             	push   DWORD PTR [ebp-0xc]
  1022e3:	ff 75 f0             	push   DWORD PTR [ebp-0x10]
  1022e6:	e8 a3 fb ff ff       	call   101e8e <putPixel>
  1022eb:	83 c4 10             	add    esp,0x10
  1022ee:	83 45 f0 01          	add    DWORD PTR [ebp-0x10],0x1
  1022f2:	8b 45 f0             	mov    eax,DWORD PTR [ebp-0x10]
  1022f5:	3b 45 10             	cmp    eax,DWORD PTR [ebp+0x10]
  1022f8:	7c e0                	jl     1022da <fillRect+0x20>
  1022fa:	83 45 f4 01          	add    DWORD PTR [ebp-0xc],0x1
  1022fe:	8b 45 f4             	mov    eax,DWORD PTR [ebp-0xc]
  102301:	3b 45 14             	cmp    eax,DWORD PTR [ebp+0x14]
  102304:	7c cc                	jl     1022d2 <fillRect+0x18>
  102306:	90                   	nop
  102307:	c9                   	leave  
  102308:	c3                   	ret    

00102309 <drawGlyphTo>:
  102309:	55                   	push   ebp
  10230a:	89 e5                	mov    ebp,esp
  10230c:	83 ec 20             	sub    esp,0x20
  10230f:	e8 3d e2 ff ff       	call   100551 <__x86.get_pc_thunk.ax>
  102314:	05 ec 1c 01 00       	add    eax,0x11cec
  102319:	8b 45 14             	mov    eax,DWORD PTR [ebp+0x14]
  10231c:	0f af 45 0c          	imul   eax,DWORD PTR [ebp+0xc]
  102320:	89 c2                	mov    edx,eax
  102322:	8b 45 10             	mov    eax,DWORD PTR [ebp+0x10]
  102325:	01 d0                	add    eax,edx
  102327:	89 45 fc             	mov    DWORD PTR [ebp-0x4],eax
  10232a:	c7 45 f8 00 00 00 00 	mov    DWORD PTR [ebp-0x8],0x0
  102331:	eb 49                	jmp    10237c <drawGlyphTo+0x73>
  102333:	8b 55 f8             	mov    edx,DWORD PTR [ebp-0x8]
  102336:	8b 45 18             	mov    eax,DWORD PTR [ebp+0x18]
  102339:	01 d0                	add    eax,edx
  10233b:	0f b6 00             	movzx  eax,BYTE PTR [eax]
  10233e:	88 45 ef             	mov    BYTE PTR [ebp-0x11],al
  102341:	c6 45 f7 80          	mov    BYTE PTR [ebp-0x9],0x80
  102345:	8b 45 fc             	mov    eax,DWORD PTR [ebp-0x4]
  102348:	89 45 f0             	mov    DWORD PTR [ebp-0x10],eax
  10234b:	eb 1f                	jmp    10236c <drawGlyphTo+0x63>
  10234d:	0f b6 45 ef          	movzx  eax,BYTE PTR [ebp-0x11]
  102351:	22 45 f7             	and    al,BYTE PTR [ebp-0x9]
  102354:	84 c0                	test   al,al
  102356:	74 0d                	je     102365 <drawGlyphTo+0x5c>
  102358:	8b 55 08             	mov    edx,DWORD PTR [ebp+0x8]
  10235b:	8b 45 f0             	mov    eax,DWORD PTR [ebp-0x10]
  10235e:	01 d0                	add    eax,edx
  102360:	8b 55 1c             	mov    edx,DWORD PTR [ebp+0x1c]
  102363:	88 10                	mov    BYTE PTR [eax],dl
  102365:	83 45 f0 01          	add    DWORD PTR [ebp-0x10],0x1
  102369:	d0 6d f7             	shr    BYTE PTR [ebp-0x9],1
  10236c:	80 7d f7 00          	cmp    BYTE PTR [ebp-0x9],0x0
  102370:	75 db                	jne    10234d <drawGlyphTo+0x44>
  102372:	8b 45 0c             	mov    eax,DWORD PTR [ebp+0xc]
  102375:	01 45 fc             	add    DWORD PTR [ebp-0x4],eax
  102378:	83 45 f8 01          	add    DWORD PTR [ebp-0x8],0x1
  10237c:	83 7d f8 0f          	cmp    DWORD PTR [ebp-0x8],0xf
  102380:	7e b1                	jle    102333 <drawGlyphTo+0x2a>
  102382:	90                   	nop
  102383:	c9                   	leave  
  102384:	c3                   	ret    

00102385 <drawGlyph>:
  102385:	55                   	push   ebp
  102386:	89 e5                	mov    ebp,esp
  102388:	53                   	push   ebx
  102389:	83 ec 24             	sub    esp,0x24
  10238c:	e8 c4 e1 ff ff       	call   100555 <__x86.get_pc_thunk.bx>
  102391:	81 c3 6f 1c 01 00    	add    ebx,0x11c6f
  102397:	c7 c0 90 ee 11 00    	mov    eax,0x11ee90
  10239d:	8b 00                	mov    eax,DWORD PTR [eax]
  10239f:	0f af 45 0c          	imul   eax,DWORD PTR [ebp+0xc]
  1023a3:	89 c2                	mov    edx,eax
  1023a5:	8b 45 08             	mov    eax,DWORD PTR [ebp+0x8]
  1023a8:	01 d0                	add    eax,edx
  1023aa:	89 45 f4             	mov    DWORD PTR [ebp-0xc],eax
  1023ad:	c7 45 f0 00 00 00 00 	mov    DWORD PTR [ebp-0x10],0x0
  1023b4:	e9 83 00 00 00       	jmp    10243c <drawGlyph+0xb7>
  1023b9:	8b 55 f0             	mov    edx,DWORD PTR [ebp-0x10]
  1023bc:	8b 45 10             	mov    eax,DWORD PTR [ebp+0x10]
  1023bf:	01 d0                	add    eax,edx
  1023c1:	0f b6 00             	movzx  eax,BYTE PTR [eax]
  1023c4:	88 45 e7             	mov    BYTE PTR [ebp-0x19],al
  1023c7:	c6 45 ef 80          	mov    BYTE PTR [ebp-0x11],0x80
  1023cb:	8b 45 f4             	mov    eax,DWORD PTR [ebp-0xc]
  1023ce:	89 45 e8             	mov    DWORD PTR [ebp-0x18],eax
  1023d1:	eb 54                	jmp    102427 <drawGlyph+0xa2>
  1023d3:	0f b6 45 e7          	movzx  eax,BYTE PTR [ebp-0x19]
  1023d7:	22 45 ef             	and    al,BYTE PTR [ebp-0x11]
  1023da:	84 c0                	test   al,al
  1023dc:	74 42                	je     102420 <drawGlyph+0x9b>
  1023de:	c7 c0 a8 ee 15 00    	mov    eax,0x15eea8
  1023e4:	8b 00                	mov    eax,DWORD PTR [eax]
  1023e6:	39 45 e8             	cmp    DWORD PTR [ebp-0x18],eax
  1023e9:	72 0d                	jb     1023f8 <drawGlyph+0x73>
  1023eb:	c7 c0 a0 ee 15 00    	mov    eax,0x15eea0
  1023f1:	8b 00                	mov    eax,DWORD PTR [eax]
  1023f3:	39 45 e8             	cmp    DWORD PTR [ebp-0x18],eax
  1023f6:	72 15                	jb     10240d <drawGlyph+0x88>
  1023f8:	8b 45 e8             	mov    eax,DWORD PTR [ebp-0x18]
  1023fb:	c1 e8 10             	shr    eax,0x10
  1023fe:	0f b7 c0             	movzx  eax,ax
  102401:	83 ec 0c             	sub    esp,0xc
  102404:	50                   	push   eax
  102405:	e8 2b 12 00 00       	call   103635 <bga_set_bank>
  10240a:	83 c4 10             	add    esp,0x10
  10240d:	8b 93 b8 01 00 00    	mov    edx,DWORD PTR [ebx+0x1b8]
  102413:	8b 45 e8             	mov    eax,DWORD PTR [ebp-0x18]
  102416:	0f b7 c0             	movzx  eax,ax
  102419:	01 d0                	add    eax,edx
  10241b:	8b 55 14             	mov    edx,DWORD PTR [ebp+0x14]
  10241e:	88 10                	mov    BYTE PTR [eax],dl
  102420:	83 45 e8 01          	add    DWORD PTR [ebp-0x18],0x1
  102424:	d0 6d ef             	shr    BYTE PTR [ebp-0x11],1
  102427:	80 7d ef 00          	cmp    BYTE PTR [ebp-0x11],0x0
  10242b:	75 a6                	jne    1023d3 <drawGlyph+0x4e>
  10242d:	c7 c0 90 ee 11 00    	mov    eax,0x11ee90
  102433:	8b 00                	mov    eax,DWORD PTR [eax]
  102435:	01 45 f4             	add    DWORD PTR [ebp-0xc],eax
  102438:	83 45 f0 01          	add    DWORD PTR [ebp-0x10],0x1
  10243c:	c7 c0 f0 3f 11 00    	mov    eax,0x113ff0
  102442:	0f b6 40 01          	movzx  eax,BYTE PTR [eax+0x1]
  102446:	0f b6 c0             	movzx  eax,al
  102449:	39 45 f0             	cmp    DWORD PTR [ebp-0x10],eax
  10244c:	0f 8c 67 ff ff ff    	jl     1023b9 <drawGlyph+0x34>
  102452:	90                   	nop
  102453:	8b 5d fc             	mov    ebx,DWORD PTR [ebp-0x4]
  102456:	c9                   	leave  
  102457:	c3                   	ret    

00102458 <drawCharTo>:
  102458:	55                   	push   ebp
  102459:	89 e5                	mov    ebp,esp
  10245b:	83 ec 14             	sub    esp,0x14
  10245e:	e8 ee e0 ff ff       	call   100551 <__x86.get_pc_thunk.ax>
  102463:	05 9d 1b 01 00       	add    eax,0x11b9d
  102468:	8b 55 18             	mov    edx,DWORD PTR [ebp+0x18]
  10246b:	88 55 ec             	mov    BYTE PTR [ebp-0x14],dl
  10246e:	c7 c2 f0 3f 11 00    	mov    edx,0x113ff0
  102474:	8b 4a 0c             	mov    ecx,DWORD PTR [edx+0xc]
  102477:	0f be 55 ec          	movsx  edx,BYTE PTR [ebp-0x14]
  10247b:	c7 c0 a0 ee 11 00    	mov    eax,0x11eea0
  102481:	8b 04 90             	mov    eax,DWORD PTR [eax+edx*4]
  102484:	c1 e0 04             	shl    eax,0x4
  102487:	01 c8                	add    eax,ecx
  102489:	89 45 fc             	mov    DWORD PTR [ebp-0x4],eax
  10248c:	ff 75 1c             	push   DWORD PTR [ebp+0x1c]
  10248f:	ff 75 fc             	push   DWORD PTR [ebp-0x4]
  102492:	ff 75 14             	push   DWORD PTR [ebp+0x14]
  102495:	ff 75 10             	push   DWORD PTR [ebp+0x10]
  102498:	ff 75 0c             	push   DWORD PTR [ebp+0xc]
  10249b:	ff 75 08             	push   DWORD PTR [ebp+0x8]
  10249e:	e8 66 fe ff ff       	call   102309 <drawGlyphTo>
  1024a3:	83 c4 18             	add    esp,0x18
  1024a6:	90                   	nop
  1024a7:	c9                   	leave  
  1024a8:	c3                   	ret    

001024a9 <drawChar>:
  1024a9:	55                   	push   ebp
  1024aa:	89 e5                	mov    ebp,esp
  1024ac:	83 ec 28             	sub    esp,0x28
  1024af:	e8 9d e0 ff ff       	call   100551 <__x86.get_pc_thunk.ax>
  1024b4:	05 4c 1b 01 00       	add    eax,0x11b4c
  1024b9:	8b 55 10             	mov    edx,DWORD PTR [ebp+0x10]
  1024bc:	88 55 e4             	mov    BYTE PTR [ebp-0x1c],dl
  1024bf:	c7 c2 f0 3f 11 00    	mov    edx,0x113ff0
  1024c5:	8b 4a 0c             	mov    ecx,DWORD PTR [edx+0xc]
  1024c8:	0f be 55 e4          	movsx  edx,BYTE PTR [ebp-0x1c]
  1024cc:	c7 c0 a0 ee 11 00    	mov    eax,0x11eea0
  1024d2:	8b 04 90             	mov    eax,DWORD PTR [eax+edx*4]
  1024d5:	c1 e0 04             	shl    eax,0x4
  1024d8:	01 c8                	add    eax,ecx
  1024da:	89 45 f4             	mov    DWORD PTR [ebp-0xc],eax
  1024dd:	ff 75 14             	push   DWORD PTR [ebp+0x14]
  1024e0:	ff 75 f4             	push   DWORD PTR [ebp-0xc]
  1024e3:	ff 75 0c             	push   DWORD PTR [ebp+0xc]
  1024e6:	ff 75 08             	push   DWORD PTR [ebp+0x8]
  1024e9:	e8 97 fe ff ff       	call   102385 <drawGlyph>
  1024ee:	83 c4 10             	add    esp,0x10
  1024f1:	90                   	nop
  1024f2:	c9                   	leave  
  1024f3:	c3                   	ret    

001024f4 <drawTextTo>:
  1024f4:	55                   	push   ebp
  1024f5:	89 e5                	mov    ebp,esp
  1024f7:	e8 55 e0 ff ff       	call   100551 <__x86.get_pc_thunk.ax>
  1024fc:	05 04 1b 01 00       	add    eax,0x11b04
  102501:	eb 2b                	jmp    10252e <drawTextTo+0x3a>
  102503:	8b 45 18             	mov    eax,DWORD PTR [ebp+0x18]
  102506:	8d 50 01             	lea    edx,[eax+0x1]
  102509:	89 55 18             	mov    DWORD PTR [ebp+0x18],edx
  10250c:	0f b6 00             	movzx  eax,BYTE PTR [eax]
  10250f:	0f be c0             	movsx  eax,al
  102512:	ff 75 1c             	push   DWORD PTR [ebp+0x1c]
  102515:	50                   	push   eax
  102516:	ff 75 14             	push   DWORD PTR [ebp+0x14]
  102519:	ff 75 10             	push   DWORD PTR [ebp+0x10]
  10251c:	ff 75 0c             	push   DWORD PTR [ebp+0xc]
  10251f:	ff 75 08             	push   DWORD PTR [ebp+0x8]
  102522:	e8 31 ff ff ff       	call   102458 <drawCharTo>
  102527:	83 c4 18             	add    esp,0x18
  10252a:	83 45 10 08          	add    DWORD PTR [ebp+0x10],0x8
  10252e:	8b 45 18             	mov    eax,DWORD PTR [ebp+0x18]
  102531:	0f b6 00             	movzx  eax,BYTE PTR [eax]
  102534:	84 c0                	test   al,al
  102536:	75 cb                	jne    102503 <drawTextTo+0xf>
  102538:	90                   	nop
  102539:	c9                   	leave  
  10253a:	c3                   	ret    

0010253b <drawText>:
  10253b:	55                   	push   ebp
  10253c:	89 e5                	mov    ebp,esp
  10253e:	83 ec 08             	sub    esp,0x8
  102541:	e8 0b e0 ff ff       	call   100551 <__x86.get_pc_thunk.ax>
  102546:	05 ba 1a 01 00       	add    eax,0x11aba
  10254b:	eb 25                	jmp    102572 <drawText+0x37>
  10254d:	8b 45 10             	mov    eax,DWORD PTR [ebp+0x10]
  102550:	8d 50 01             	lea    edx,[eax+0x1]
  102553:	89 55 10             	mov    DWORD PTR [ebp+0x10],edx
  102556:	0f b6 00             	movzx  eax,BYTE PTR [eax]
  102559:	0f be c0             	movsx  eax,al
  10255c:	ff 75 14             	push   DWORD PTR [ebp+0x14]
  10255f:	50                   	push   eax
  102560:	ff 75 0c             	push   DWORD PTR [ebp+0xc]
  102563:	ff 75 08             	push   DWORD PTR [ebp+0x8]
  102566:	e8 3e ff ff ff       	call   1024a9 <drawChar>
  10256b:	83 c4 10             	add    esp,0x10
  10256e:	83 45 08 08          	add    DWORD PTR [ebp+0x8],0x8
  102572:	8b 45 10             	mov    eax,DWORD PTR [ebp+0x10]
  102575:	0f b6 00             	movzx  eax,BYTE PTR [eax]
  102578:	84 c0                	test   al,al
  10257a:	75 d1                	jne    10254d <drawText+0x12>
  10257c:	90                   	nop
  10257d:	c9                   	leave  
  10257e:	c3                   	ret    

0010257f <gotoxy>:
  10257f:	55                   	push   ebp
  102580:	89 e5                	mov    ebp,esp
  102582:	e8 ca df ff ff       	call   100551 <__x86.get_pc_thunk.ax>
  102587:	05 79 1a 01 00       	add    eax,0x11a79
  10258c:	c7 c2 98 ee 11 00    	mov    edx,0x11ee98
  102592:	8b 4d 08             	mov    ecx,DWORD PTR [ebp+0x8]
  102595:	89 0a                	mov    DWORD PTR [edx],ecx
  102597:	c7 c0 84 ee 11 00    	mov    eax,0x11ee84
  10259d:	8b 55 0c             	mov    edx,DWORD PTR [ebp+0xc]
  1025a0:	89 10                	mov    DWORD PTR [eax],edx
  1025a2:	90                   	nop
  1025a3:	5d                   	pop    ebp
  1025a4:	c3                   	ret    

001025a5 <putchar>:
  1025a5:	55                   	push   ebp
  1025a6:	89 e5                	mov    ebp,esp
  1025a8:	53                   	push   ebx
  1025a9:	83 ec 14             	sub    esp,0x14
  1025ac:	e8 a4 df ff ff       	call   100555 <__x86.get_pc_thunk.bx>
  1025b1:	81 c3 4f 1a 01 00    	add    ebx,0x11a4f
  1025b7:	8b 45 08             	mov    eax,DWORD PTR [ebp+0x8]
  1025ba:	88 45 f4             	mov    BYTE PTR [ebp-0xc],al
  1025bd:	80 7d f4 0a          	cmp    BYTE PTR [ebp-0xc],0xa
  1025c1:	75 2d                	jne    1025f0 <putchar+0x4b>
  1025c3:	c7 c0 98 ee 11 00    	mov    eax,0x11ee98
  1025c9:	c7 00 00 00 00 00    	mov    DWORD PTR [eax],0x0
  1025cf:	c7 c0 f0 3f 11 00    	mov    eax,0x113ff0
  1025d5:	0f b6 40 01          	movzx  eax,BYTE PTR [eax+0x1]
  1025d9:	0f b6 d0             	movzx  edx,al
  1025dc:	c7 c0 84 ee 11 00    	mov    eax,0x11ee84
  1025e2:	8b 00                	mov    eax,DWORD PTR [eax]
  1025e4:	01 c2                	add    edx,eax
  1025e6:	c7 c0 84 ee 11 00    	mov    eax,0x11ee84
  1025ec:	89 10                	mov    DWORD PTR [eax],edx
  1025ee:	eb 6d                	jmp    10265d <putchar+0xb8>
  1025f0:	80 7d f4 09          	cmp    BYTE PTR [ebp-0xc],0x9
  1025f4:	75 27                	jne    10261d <putchar+0x78>
  1025f6:	c7 c0 f0 3f 11 00    	mov    eax,0x113ff0
  1025fc:	0f b6 00             	movzx  eax,BYTE PTR [eax]
  1025ff:	0f b6 c0             	movzx  eax,al
  102602:	8d 14 85 00 00 00 00 	lea    edx,[eax*4+0x0]
  102609:	c7 c0 98 ee 11 00    	mov    eax,0x11ee98
  10260f:	8b 00                	mov    eax,DWORD PTR [eax]
  102611:	01 c2                	add    edx,eax
  102613:	c7 c0 98 ee 11 00    	mov    eax,0x11ee98
  102619:	89 10                	mov    DWORD PTR [eax],edx
  10261b:	eb 40                	jmp    10265d <putchar+0xb8>
  10261d:	0f be 4d f4          	movsx  ecx,BYTE PTR [ebp-0xc]
  102621:	c7 c0 84 ee 11 00    	mov    eax,0x11ee84
  102627:	8b 10                	mov    edx,DWORD PTR [eax]
  102629:	c7 c0 98 ee 11 00    	mov    eax,0x11ee98
  10262f:	8b 00                	mov    eax,DWORD PTR [eax]
  102631:	ff 75 0c             	push   DWORD PTR [ebp+0xc]
  102634:	51                   	push   ecx
  102635:	52                   	push   edx
  102636:	50                   	push   eax
  102637:	e8 6d fe ff ff       	call   1024a9 <drawChar>
  10263c:	83 c4 10             	add    esp,0x10
  10263f:	c7 c0 f0 3f 11 00    	mov    eax,0x113ff0
  102645:	0f b6 00             	movzx  eax,BYTE PTR [eax]
  102648:	0f b6 d0             	movzx  edx,al
  10264b:	c7 c0 98 ee 11 00    	mov    eax,0x11ee98
  102651:	8b 00                	mov    eax,DWORD PTR [eax]
  102653:	01 c2                	add    edx,eax
  102655:	c7 c0 98 ee 11 00    	mov    eax,0x11ee98
  10265b:	89 10                	mov    DWORD PTR [eax],edx
  10265d:	c7 c0 98 ee 11 00    	mov    eax,0x11ee98
  102663:	8b 10                	mov    edx,DWORD PTR [eax]
  102665:	c7 c0 88 ee 11 00    	mov    eax,0x11ee88
  10266b:	8b 00                	mov    eax,DWORD PTR [eax]
  10266d:	39 c2                	cmp    edx,eax
  10266f:	7c 2b                	jl     10269c <putchar+0xf7>
  102671:	c7 c0 98 ee 11 00    	mov    eax,0x11ee98
  102677:	c7 00 00 00 00 00    	mov    DWORD PTR [eax],0x0
  10267d:	c7 c0 f0 3f 11 00    	mov    eax,0x113ff0
  102683:	0f b6 40 01          	movzx  eax,BYTE PTR [eax+0x1]
  102687:	0f b6 d0             	movzx  edx,al
  10268a:	c7 c0 84 ee 11 00    	mov    eax,0x11ee84
  102690:	8b 00                	mov    eax,DWORD PTR [eax]
  102692:	01 c2                	add    edx,eax
  102694:	c7 c0 84 ee 11 00    	mov    eax,0x11ee84
  10269a:	89 10                	mov    DWORD PTR [eax],edx
  10269c:	c7 c0 84 ee 11 00    	mov    eax,0x11ee84
  1026a2:	8b 10                	mov    edx,DWORD PTR [eax]
  1026a4:	c7 c0 8c ee 11 00    	mov    eax,0x11ee8c
  1026aa:	8b 00                	mov    eax,DWORD PTR [eax]
  1026ac:	39 c2                	cmp    edx,eax
  1026ae:	7c 0c                	jl     1026bc <putchar+0x117>
  1026b0:	c7 c0 84 ee 11 00    	mov    eax,0x11ee84
  1026b6:	c7 00 00 00 00 00    	mov    DWORD PTR [eax],0x0
  1026bc:	90                   	nop
  1026bd:	8b 5d fc             	mov    ebx,DWORD PTR [ebp-0x4]
  1026c0:	c9                   	leave  
  1026c1:	c3                   	ret    

001026c2 <printstr>:
  1026c2:	55                   	push   ebp
  1026c3:	89 e5                	mov    ebp,esp
  1026c5:	83 ec 08             	sub    esp,0x8
  1026c8:	e8 84 de ff ff       	call   100551 <__x86.get_pc_thunk.ax>
  1026cd:	05 33 19 01 00       	add    eax,0x11933
  1026d2:	eb 1e                	jmp    1026f2 <printstr+0x30>
  1026d4:	8b 45 08             	mov    eax,DWORD PTR [ebp+0x8]
  1026d7:	8d 50 01             	lea    edx,[eax+0x1]
  1026da:	89 55 08             	mov    DWORD PTR [ebp+0x8],edx
  1026dd:	0f b6 00             	movzx  eax,BYTE PTR [eax]
  1026e0:	0f be c0             	movsx  eax,al
  1026e3:	83 ec 08             	sub    esp,0x8
  1026e6:	ff 75 0c             	push   DWORD PTR [ebp+0xc]
  1026e9:	50                   	push   eax
  1026ea:	e8 b6 fe ff ff       	call   1025a5 <putchar>
  1026ef:	83 c4 10             	add    esp,0x10
  1026f2:	8b 45 08             	mov    eax,DWORD PTR [ebp+0x8]
  1026f5:	0f b6 00             	movzx  eax,BYTE PTR [eax]
  1026f8:	84 c0                	test   al,al
  1026fa:	75 d8                	jne    1026d4 <printstr+0x12>
  1026fc:	90                   	nop
  1026fd:	c9                   	leave  
  1026fe:	c3                   	ret    

001026ff <drawWindowTo>:
  1026ff:	55                   	push   ebp
  102700:	89 e5                	mov    ebp,esp
  102702:	53                   	push   ebx
  102703:	e8 4d de ff ff       	call   100555 <__x86.get_pc_thunk.bx>
  102708:	81 c3 f8 18 01 00    	add    ebx,0x118f8
  10270e:	6a 08                	push   0x8
  102710:	6a 00                	push   0x0
  102712:	ff 75 10             	push   DWORD PTR [ebp+0x10]
  102715:	6a 00                	push   0x0
  102717:	6a 00                	push   0x0
  102719:	ff 75 0c             	push   DWORD PTR [ebp+0xc]
  10271c:	ff 75 08             	push   DWORD PTR [ebp+0x8]
  10271f:	e8 da f7 ff ff       	call   101efe <drawLineTo>
  102724:	83 c4 1c             	add    esp,0x1c
  102727:	8b 45 10             	mov    eax,DWORD PTR [ebp+0x10]
  10272a:	83 e8 01             	sub    eax,0x1
  10272d:	6a 07                	push   0x7
  10272f:	6a 01                	push   0x1
  102731:	50                   	push   eax
  102732:	6a 01                	push   0x1
  102734:	6a 01                	push   0x1
  102736:	ff 75 0c             	push   DWORD PTR [ebp+0xc]
  102739:	ff 75 08             	push   DWORD PTR [ebp+0x8]
  10273c:	e8 bd f7 ff ff       	call   101efe <drawLineTo>
  102741:	83 c4 1c             	add    esp,0x1c
  102744:	6a 08                	push   0x8
  102746:	ff 75 14             	push   DWORD PTR [ebp+0x14]
  102749:	6a 00                	push   0x0
  10274b:	6a 00                	push   0x0
  10274d:	6a 00                	push   0x0
  10274f:	ff 75 0c             	push   DWORD PTR [ebp+0xc]
  102752:	ff 75 08             	push   DWORD PTR [ebp+0x8]
  102755:	e8 a4 f7 ff ff       	call   101efe <drawLineTo>
  10275a:	83 c4 1c             	add    esp,0x1c
  10275d:	8b 45 14             	mov    eax,DWORD PTR [ebp+0x14]
  102760:	83 e8 01             	sub    eax,0x1
  102763:	6a 07                	push   0x7
  102765:	50                   	push   eax
  102766:	6a 01                	push   0x1
  102768:	6a 01                	push   0x1
  10276a:	6a 01                	push   0x1
  10276c:	ff 75 0c             	push   DWORD PTR [ebp+0xc]
  10276f:	ff 75 08             	push   DWORD PTR [ebp+0x8]
  102772:	e8 87 f7 ff ff       	call   101efe <drawLineTo>
  102777:	83 c4 1c             	add    esp,0x1c
  10277a:	8b 45 10             	mov    eax,DWORD PTR [ebp+0x10]
  10277d:	8d 50 ff             	lea    edx,[eax-0x1]
  102780:	8b 45 10             	mov    eax,DWORD PTR [ebp+0x10]
  102783:	83 e8 01             	sub    eax,0x1
  102786:	6a 00                	push   0x0
  102788:	ff 75 14             	push   DWORD PTR [ebp+0x14]
  10278b:	52                   	push   edx
  10278c:	6a 00                	push   0x0
  10278e:	50                   	push   eax
  10278f:	ff 75 0c             	push   DWORD PTR [ebp+0xc]
  102792:	ff 75 08             	push   DWORD PTR [ebp+0x8]
  102795:	e8 64 f7 ff ff       	call   101efe <drawLineTo>
  10279a:	83 c4 1c             	add    esp,0x1c
  10279d:	8b 45 14             	mov    eax,DWORD PTR [ebp+0x14]
  1027a0:	8d 48 ff             	lea    ecx,[eax-0x1]
  1027a3:	8b 45 10             	mov    eax,DWORD PTR [ebp+0x10]
  1027a6:	8d 50 fe             	lea    edx,[eax-0x2]
  1027a9:	8b 45 10             	mov    eax,DWORD PTR [ebp+0x10]
  1027ac:	83 e8 02             	sub    eax,0x2
  1027af:	6a 0f                	push   0xf
  1027b1:	51                   	push   ecx
  1027b2:	52                   	push   edx
  1027b3:	6a 01                	push   0x1
  1027b5:	50                   	push   eax
  1027b6:	ff 75 0c             	push   DWORD PTR [ebp+0xc]
  1027b9:	ff 75 08             	push   DWORD PTR [ebp+0x8]
  1027bc:	e8 3d f7 ff ff       	call   101efe <drawLineTo>
  1027c1:	83 c4 1c             	add    esp,0x1c
  1027c4:	8b 45 14             	mov    eax,DWORD PTR [ebp+0x14]
  1027c7:	8d 50 ff             	lea    edx,[eax-0x1]
  1027ca:	8b 45 14             	mov    eax,DWORD PTR [ebp+0x14]
  1027cd:	83 e8 01             	sub    eax,0x1
  1027d0:	6a 00                	push   0x0
  1027d2:	52                   	push   edx
  1027d3:	ff 75 10             	push   DWORD PTR [ebp+0x10]
  1027d6:	50                   	push   eax
  1027d7:	6a 00                	push   0x0
  1027d9:	ff 75 0c             	push   DWORD PTR [ebp+0xc]
  1027dc:	ff 75 08             	push   DWORD PTR [ebp+0x8]
  1027df:	e8 1a f7 ff ff       	call   101efe <drawLineTo>
  1027e4:	83 c4 1c             	add    esp,0x1c
  1027e7:	8b 45 14             	mov    eax,DWORD PTR [ebp+0x14]
  1027ea:	8d 48 fe             	lea    ecx,[eax-0x2]
  1027ed:	8b 45 10             	mov    eax,DWORD PTR [ebp+0x10]
  1027f0:	8d 50 ff             	lea    edx,[eax-0x1]
  1027f3:	8b 45 14             	mov    eax,DWORD PTR [ebp+0x14]
  1027f6:	83 e8 02             	sub    eax,0x2
  1027f9:	6a 0f                	push   0xf
  1027fb:	51                   	push   ecx
  1027fc:	52                   	push   edx
  1027fd:	50                   	push   eax
  1027fe:	6a 01                	push   0x1
  102800:	ff 75 0c             	push   DWORD PTR [ebp+0xc]
  102803:	ff 75 08             	push   DWORD PTR [ebp+0x8]
  102806:	e8 f3 f6 ff ff       	call   101efe <drawLineTo>
  10280b:	83 c4 1c             	add    esp,0x1c
  10280e:	8b 45 14             	mov    eax,DWORD PTR [ebp+0x14]
  102811:	8d 50 fe             	lea    edx,[eax-0x2]
  102814:	8b 45 10             	mov    eax,DWORD PTR [ebp+0x10]
  102817:	83 e8 02             	sub    eax,0x2
  10281a:	6a 08                	push   0x8
  10281c:	52                   	push   edx
  10281d:	50                   	push   eax
  10281e:	6a 02                	push   0x2
  102820:	6a 02                	push   0x2
  102822:	ff 75 0c             	push   DWORD PTR [ebp+0xc]
  102825:	ff 75 08             	push   DWORD PTR [ebp+0x8]
  102828:	e8 3b fa ff ff       	call   102268 <fillRectTo>
  10282d:	83 c4 1c             	add    esp,0x1c
  102830:	8b 45 10             	mov    eax,DWORD PTR [ebp+0x10]
  102833:	83 e8 03             	sub    eax,0x3
  102836:	6a 0c                	push   0xc
  102838:	6a 14                	push   0x14
  10283a:	50                   	push   eax
  10283b:	6a 03                	push   0x3
  10283d:	6a 03                	push   0x3
  10283f:	ff 75 0c             	push   DWORD PTR [ebp+0xc]
  102842:	ff 75 08             	push   DWORD PTR [ebp+0x8]
  102845:	e8 1e fa ff ff       	call   102268 <fillRectTo>
  10284a:	83 c4 1c             	add    esp,0x1c
  10284d:	6a 07                	push   0x7
  10284f:	ff 75 18             	push   DWORD PTR [ebp+0x18]
  102852:	6a 04                	push   0x4
  102854:	6a 18                	push   0x18
  102856:	ff 75 0c             	push   DWORD PTR [ebp+0xc]
  102859:	ff 75 08             	push   DWORD PTR [ebp+0x8]
  10285c:	e8 93 fc ff ff       	call   1024f4 <drawTextTo>
  102861:	83 c4 18             	add    esp,0x18
  102864:	8b 45 10             	mov    eax,DWORD PTR [ebp+0x10]
  102867:	8d 50 fb             	lea    edx,[eax-0x5]
  10286a:	8b 45 10             	mov    eax,DWORD PTR [ebp+0x10]
  10286d:	83 e8 13             	sub    eax,0x13
  102870:	6a 08                	push   0x8
  102872:	6a 12                	push   0x12
  102874:	52                   	push   edx
  102875:	6a 05                	push   0x5
  102877:	50                   	push   eax
  102878:	ff 75 0c             	push   DWORD PTR [ebp+0xc]
  10287b:	ff 75 08             	push   DWORD PTR [ebp+0x8]
  10287e:	e8 e5 f9 ff ff       	call   102268 <fillRectTo>
  102883:	83 c4 1c             	add    esp,0x1c
  102886:	8b 45 10             	mov    eax,DWORD PTR [ebp+0x10]
  102889:	8d 50 ec             	lea    edx,[eax-0x14]
  10288c:	6a 00                	push   0x0
  10288e:	8d 83 c0 06 ff ff    	lea    eax,[ebx-0xf940]
  102894:	50                   	push   eax
  102895:	6a 05                	push   0x5
  102897:	52                   	push   edx
  102898:	ff 75 0c             	push   DWORD PTR [ebp+0xc]
  10289b:	ff 75 08             	push   DWORD PTR [ebp+0x8]
  10289e:	e8 66 fa ff ff       	call   102309 <drawGlyphTo>
  1028a3:	83 c4 18             	add    esp,0x18
  1028a6:	8b 45 10             	mov    eax,DWORD PTR [ebp+0x10]
  1028a9:	8d 50 f4             	lea    edx,[eax-0xc]
  1028ac:	6a 00                	push   0x0
  1028ae:	8d 83 d0 06 ff ff    	lea    eax,[ebx-0xf930]
  1028b4:	50                   	push   eax
  1028b5:	6a 05                	push   0x5
  1028b7:	52                   	push   edx
  1028b8:	ff 75 0c             	push   DWORD PTR [ebp+0xc]
  1028bb:	ff 75 08             	push   DWORD PTR [ebp+0x8]
  1028be:	e8 46 fa ff ff       	call   102309 <drawGlyphTo>
  1028c3:	83 c4 18             	add    esp,0x18
  1028c6:	90                   	nop
  1028c7:	8b 5d fc             	mov    ebx,DWORD PTR [ebp-0x4]
  1028ca:	c9                   	leave  
  1028cb:	c3                   	ret    

001028cc <init_sheets>:
  1028cc:	55                   	push   ebp
  1028cd:	89 e5                	mov    ebp,esp
  1028cf:	53                   	push   ebx
  1028d0:	83 ec 14             	sub    esp,0x14
  1028d3:	e8 7d dc ff ff       	call   100555 <__x86.get_pc_thunk.bx>
  1028d8:	81 c3 28 17 01 00    	add    ebx,0x11728
  1028de:	83 ec 0c             	sub    esp,0xc
  1028e1:	68 10 24 00 00       	push   0x2410
  1028e6:	e8 0f 14 00 00       	call   103cfa <mm_alloc_4k>
  1028eb:	83 c4 10             	add    esp,0x10
  1028ee:	89 c2                	mov    edx,eax
  1028f0:	c7 c0 94 ee 11 00    	mov    eax,0x11ee94
  1028f6:	89 10                	mov    DWORD PTR [eax],edx
  1028f8:	c7 c0 94 ee 11 00    	mov    eax,0x11ee94
  1028fe:	8b 00                	mov    eax,DWORD PTR [eax]
  102900:	85 c0                	test   eax,eax
  102902:	75 0a                	jne    10290e <init_sheets+0x42>
  102904:	b8 ff ff ff ff       	mov    eax,0xffffffff
  102909:	e9 af 00 00 00       	jmp    1029bd <init_sheets+0xf1>
  10290e:	8b 45 08             	mov    eax,DWORD PTR [ebp+0x8]
  102911:	0f af 45 0c          	imul   eax,DWORD PTR [ebp+0xc]
  102915:	83 ec 0c             	sub    esp,0xc
  102918:	50                   	push   eax
  102919:	e8 dc 13 00 00       	call   103cfa <mm_alloc_4k>
  10291e:	83 c4 10             	add    esp,0x10
  102921:	89 c2                	mov    edx,eax
  102923:	c7 c0 94 ee 11 00    	mov    eax,0x11ee94
  102929:	8b 00                	mov    eax,DWORD PTR [eax]
  10292b:	89 10                	mov    DWORD PTR [eax],edx
  10292d:	c7 c0 94 ee 11 00    	mov    eax,0x11ee94
  102933:	8b 00                	mov    eax,DWORD PTR [eax]
  102935:	8b 00                	mov    eax,DWORD PTR [eax]
  102937:	85 c0                	test   eax,eax
  102939:	75 20                	jne    10295b <init_sheets+0x8f>
  10293b:	c7 c0 94 ee 11 00    	mov    eax,0x11ee94
  102941:	8b 00                	mov    eax,DWORD PTR [eax]
  102943:	83 ec 08             	sub    esp,0x8
  102946:	68 e0 7f 00 00       	push   0x7fe0
  10294b:	50                   	push   eax
  10294c:	e8 d3 13 00 00       	call   103d24 <mm_free_4k>
  102951:	83 c4 10             	add    esp,0x10
  102954:	b8 ff ff ff ff       	mov    eax,0xffffffff
  102959:	eb 62                	jmp    1029bd <init_sheets+0xf1>
  10295b:	c7 c0 94 ee 11 00    	mov    eax,0x11ee94
  102961:	8b 00                	mov    eax,DWORD PTR [eax]
  102963:	8b 55 08             	mov    edx,DWORD PTR [ebp+0x8]
  102966:	89 50 04             	mov    DWORD PTR [eax+0x4],edx
  102969:	c7 c0 94 ee 11 00    	mov    eax,0x11ee94
  10296f:	8b 00                	mov    eax,DWORD PTR [eax]
  102971:	8b 55 0c             	mov    edx,DWORD PTR [ebp+0xc]
  102974:	89 50 08             	mov    DWORD PTR [eax+0x8],edx
  102977:	c7 c0 94 ee 11 00    	mov    eax,0x11ee94
  10297d:	8b 00                	mov    eax,DWORD PTR [eax]
  10297f:	c7 40 0c ff ff ff ff 	mov    DWORD PTR [eax+0xc],0xffffffff
  102986:	c7 45 f4 00 00 00 00 	mov    DWORD PTR [ebp-0xc],0x0
  10298d:	eb 20                	jmp    1029af <init_sheets+0xe3>
  10298f:	c7 c0 94 ee 11 00    	mov    eax,0x11ee94
  102995:	8b 00                	mov    eax,DWORD PTR [eax]
  102997:	8b 55 f4             	mov    edx,DWORD PTR [ebp-0xc]
  10299a:	83 c2 21             	add    edx,0x21
  10299d:	c1 e2 05             	shl    edx,0x5
  1029a0:	01 d0                	add    eax,edx
  1029a2:	83 c0 0c             	add    eax,0xc
  1029a5:	c7 00 00 00 00 00    	mov    DWORD PTR [eax],0x0
  1029ab:	83 45 f4 01          	add    DWORD PTR [ebp-0xc],0x1
  1029af:	81 7d f4 ff 00 00 00 	cmp    DWORD PTR [ebp-0xc],0xff
  1029b6:	7e d7                	jle    10298f <init_sheets+0xc3>
  1029b8:	b8 00 00 00 00       	mov    eax,0x0
  1029bd:	8b 5d fc             	mov    ebx,DWORD PTR [ebp-0x4]
  1029c0:	c9                   	leave  
  1029c1:	c3                   	ret    

001029c2 <alloc_sheet>:
  1029c2:	55                   	push   ebp
  1029c3:	89 e5                	mov    ebp,esp
  1029c5:	83 ec 10             	sub    esp,0x10
  1029c8:	e8 84 db ff ff       	call   100551 <__x86.get_pc_thunk.ax>
  1029cd:	05 33 16 01 00       	add    eax,0x11633
  1029d2:	c7 45 fc 00 00 00 00 	mov    DWORD PTR [ebp-0x4],0x0
  1029d9:	eb 52                	jmp    102a2d <alloc_sheet+0x6b>
  1029db:	c7 c2 94 ee 11 00    	mov    edx,0x11ee94
  1029e1:	8b 12                	mov    edx,DWORD PTR [edx]
  1029e3:	8b 4d fc             	mov    ecx,DWORD PTR [ebp-0x4]
  1029e6:	83 c1 21             	add    ecx,0x21
  1029e9:	c1 e1 05             	shl    ecx,0x5
  1029ec:	01 ca                	add    edx,ecx
  1029ee:	83 c2 0c             	add    edx,0xc
  1029f1:	8b 12                	mov    edx,DWORD PTR [edx]
  1029f3:	85 d2                	test   edx,edx
  1029f5:	75 32                	jne    102a29 <alloc_sheet+0x67>
  1029f7:	c7 c0 94 ee 11 00    	mov    eax,0x11ee94
  1029fd:	8b 00                	mov    eax,DWORD PTR [eax]
  1029ff:	8b 55 fc             	mov    edx,DWORD PTR [ebp-0x4]
  102a02:	c1 e2 05             	shl    edx,0x5
  102a05:	81 c2 10 04 00 00    	add    edx,0x410
  102a0b:	01 d0                	add    eax,edx
  102a0d:	89 45 f8             	mov    DWORD PTR [ebp-0x8],eax
  102a10:	8b 45 f8             	mov    eax,DWORD PTR [ebp-0x8]
  102a13:	c7 40 1c 01 00 00 00 	mov    DWORD PTR [eax+0x1c],0x1
  102a1a:	8b 45 f8             	mov    eax,DWORD PTR [ebp-0x8]
  102a1d:	c7 40 18 ff ff ff ff 	mov    DWORD PTR [eax+0x18],0xffffffff
  102a24:	8b 45 f8             	mov    eax,DWORD PTR [ebp-0x8]
  102a27:	eb 12                	jmp    102a3b <alloc_sheet+0x79>
  102a29:	83 45 fc 01          	add    DWORD PTR [ebp-0x4],0x1
  102a2d:	81 7d fc ff 00 00 00 	cmp    DWORD PTR [ebp-0x4],0xff
  102a34:	7e a5                	jle    1029db <alloc_sheet+0x19>
  102a36:	b8 00 00 00 00       	mov    eax,0x0
  102a3b:	c9                   	leave  
  102a3c:	c3                   	ret    

00102a3d <free_sheet>:
  102a3d:	55                   	push   ebp
  102a3e:	89 e5                	mov    ebp,esp
  102a40:	83 ec 08             	sub    esp,0x8
  102a43:	e8 09 db ff ff       	call   100551 <__x86.get_pc_thunk.ax>
  102a48:	05 b8 15 01 00       	add    eax,0x115b8
  102a4d:	8b 45 08             	mov    eax,DWORD PTR [ebp+0x8]
  102a50:	8b 40 18             	mov    eax,DWORD PTR [eax+0x18]
  102a53:	85 c0                	test   eax,eax
  102a55:	78 10                	js     102a67 <free_sheet+0x2a>
  102a57:	83 ec 08             	sub    esp,0x8
  102a5a:	6a ff                	push   0xffffffff
  102a5c:	ff 75 08             	push   DWORD PTR [ebp+0x8]
  102a5f:	e8 43 00 00 00       	call   102aa7 <movez>
  102a64:	83 c4 10             	add    esp,0x10
  102a67:	8b 45 08             	mov    eax,DWORD PTR [ebp+0x8]
  102a6a:	c7 40 1c 00 00 00 00 	mov    DWORD PTR [eax+0x1c],0x0
  102a71:	90                   	nop
  102a72:	c9                   	leave  
  102a73:	c3                   	ret    

00102a74 <sheet_setbuf>:
  102a74:	55                   	push   ebp
  102a75:	89 e5                	mov    ebp,esp
  102a77:	e8 d5 da ff ff       	call   100551 <__x86.get_pc_thunk.ax>
  102a7c:	05 84 15 01 00       	add    eax,0x11584
  102a81:	8b 45 08             	mov    eax,DWORD PTR [ebp+0x8]
  102a84:	8b 55 0c             	mov    edx,DWORD PTR [ebp+0xc]
  102a87:	89 10                	mov    DWORD PTR [eax],edx
  102a89:	8b 45 08             	mov    eax,DWORD PTR [ebp+0x8]
  102a8c:	8b 55 10             	mov    edx,DWORD PTR [ebp+0x10]
  102a8f:	89 50 04             	mov    DWORD PTR [eax+0x4],edx
  102a92:	8b 45 08             	mov    eax,DWORD PTR [ebp+0x8]
  102a95:	8b 55 14             	mov    edx,DWORD PTR [ebp+0x14]
  102a98:	89 50 08             	mov    DWORD PTR [eax+0x8],edx
  102a9b:	8b 45 08             	mov    eax,DWORD PTR [ebp+0x8]
  102a9e:	8b 55 18             	mov    edx,DWORD PTR [ebp+0x18]
  102aa1:	89 50 14             	mov    DWORD PTR [eax+0x14],edx
  102aa4:	90                   	nop
  102aa5:	5d                   	pop    ebp
  102aa6:	c3                   	ret    

00102aa7 <movez>:
  102aa7:	55                   	push   ebp
  102aa8:	89 e5                	mov    ebp,esp
  102aaa:	56                   	push   esi
  102aab:	53                   	push   ebx
  102aac:	83 ec 20             	sub    esp,0x20
  102aaf:	e8 9d da ff ff       	call   100551 <__x86.get_pc_thunk.ax>
  102ab4:	05 4c 15 01 00       	add    eax,0x1154c
  102ab9:	8b 55 08             	mov    edx,DWORD PTR [ebp+0x8]
  102abc:	8b 52 18             	mov    edx,DWORD PTR [edx+0x18]
  102abf:	89 55 e4             	mov    DWORD PTR [ebp-0x1c],edx
  102ac2:	c7 c2 94 ee 11 00    	mov    edx,0x11ee94
  102ac8:	8b 12                	mov    edx,DWORD PTR [edx]
  102aca:	8b 52 0c             	mov    edx,DWORD PTR [edx+0xc]
  102acd:	83 c2 01             	add    edx,0x1
  102ad0:	39 55 0c             	cmp    DWORD PTR [ebp+0xc],edx
  102ad3:	7e 11                	jle    102ae6 <movez+0x3f>
  102ad5:	c7 c2 94 ee 11 00    	mov    edx,0x11ee94
  102adb:	8b 12                	mov    edx,DWORD PTR [edx]
  102add:	8b 52 0c             	mov    edx,DWORD PTR [edx+0xc]
  102ae0:	83 c2 01             	add    edx,0x1
  102ae3:	89 55 0c             	mov    DWORD PTR [ebp+0xc],edx
  102ae6:	83 7d 0c ff          	cmp    DWORD PTR [ebp+0xc],0xffffffff
  102aea:	7d 07                	jge    102af3 <movez+0x4c>
  102aec:	c7 45 0c ff ff ff ff 	mov    DWORD PTR [ebp+0xc],0xffffffff
  102af3:	8b 55 08             	mov    edx,DWORD PTR [ebp+0x8]
  102af6:	8b 4d 0c             	mov    ecx,DWORD PTR [ebp+0xc]
  102af9:	89 4a 18             	mov    DWORD PTR [edx+0x18],ecx
  102afc:	8b 55 e4             	mov    edx,DWORD PTR [ebp-0x1c]
  102aff:	3b 55 0c             	cmp    edx,DWORD PTR [ebp+0xc]
  102b02:	0f 8e 65 01 00 00    	jle    102c6d <movez+0x1c6>
  102b08:	83 7d 0c 00          	cmp    DWORD PTR [ebp+0xc],0x0
  102b0c:	78 66                	js     102b74 <movez+0xcd>
  102b0e:	8b 55 e4             	mov    edx,DWORD PTR [ebp-0x1c]
  102b11:	89 55 f4             	mov    DWORD PTR [ebp-0xc],edx
  102b14:	eb 40                	jmp    102b56 <movez+0xaf>
  102b16:	c7 c2 94 ee 11 00    	mov    edx,0x11ee94
  102b1c:	8b 0a                	mov    ecx,DWORD PTR [edx]
  102b1e:	8b 55 f4             	mov    edx,DWORD PTR [ebp-0xc]
  102b21:	8d 5a ff             	lea    ebx,[edx-0x1]
  102b24:	c7 c2 94 ee 11 00    	mov    edx,0x11ee94
  102b2a:	8b 12                	mov    edx,DWORD PTR [edx]
  102b2c:	83 c3 04             	add    ebx,0x4
  102b2f:	8b 0c 99             	mov    ecx,DWORD PTR [ecx+ebx*4]
  102b32:	8b 5d f4             	mov    ebx,DWORD PTR [ebp-0xc]
  102b35:	83 c3 04             	add    ebx,0x4
  102b38:	89 0c 9a             	mov    DWORD PTR [edx+ebx*4],ecx
  102b3b:	c7 c2 94 ee 11 00    	mov    edx,0x11ee94
  102b41:	8b 12                	mov    edx,DWORD PTR [edx]
  102b43:	8b 4d f4             	mov    ecx,DWORD PTR [ebp-0xc]
  102b46:	83 c1 04             	add    ecx,0x4
  102b49:	8b 14 8a             	mov    edx,DWORD PTR [edx+ecx*4]
  102b4c:	8b 4d f4             	mov    ecx,DWORD PTR [ebp-0xc]
  102b4f:	89 4a 18             	mov    DWORD PTR [edx+0x18],ecx
  102b52:	83 6d f4 01          	sub    DWORD PTR [ebp-0xc],0x1
  102b56:	8b 55 f4             	mov    edx,DWORD PTR [ebp-0xc]
  102b59:	3b 55 0c             	cmp    edx,DWORD PTR [ebp+0xc]
  102b5c:	7f b8                	jg     102b16 <movez+0x6f>
  102b5e:	c7 c0 94 ee 11 00    	mov    eax,0x11ee94
  102b64:	8b 00                	mov    eax,DWORD PTR [eax]
  102b66:	8b 55 0c             	mov    edx,DWORD PTR [ebp+0xc]
  102b69:	8d 4a 04             	lea    ecx,[edx+0x4]
  102b6c:	8b 55 08             	mov    edx,DWORD PTR [ebp+0x8]
  102b6f:	89 14 88             	mov    DWORD PTR [eax+ecx*4],edx
  102b72:	eb 79                	jmp    102bed <movez+0x146>
  102b74:	c7 c2 94 ee 11 00    	mov    edx,0x11ee94
  102b7a:	8b 12                	mov    edx,DWORD PTR [edx]
  102b7c:	8b 52 0c             	mov    edx,DWORD PTR [edx+0xc]
  102b7f:	39 55 e4             	cmp    DWORD PTR [ebp-0x1c],edx
  102b82:	7d 58                	jge    102bdc <movez+0x135>
  102b84:	8b 55 e4             	mov    edx,DWORD PTR [ebp-0x1c]
  102b87:	89 55 f0             	mov    DWORD PTR [ebp-0x10],edx
  102b8a:	eb 40                	jmp    102bcc <movez+0x125>
  102b8c:	c7 c2 94 ee 11 00    	mov    edx,0x11ee94
  102b92:	8b 0a                	mov    ecx,DWORD PTR [edx]
  102b94:	8b 55 f0             	mov    edx,DWORD PTR [ebp-0x10]
  102b97:	8d 5a 01             	lea    ebx,[edx+0x1]
  102b9a:	c7 c2 94 ee 11 00    	mov    edx,0x11ee94
  102ba0:	8b 12                	mov    edx,DWORD PTR [edx]
  102ba2:	83 c3 04             	add    ebx,0x4
  102ba5:	8b 0c 99             	mov    ecx,DWORD PTR [ecx+ebx*4]
  102ba8:	8b 5d f0             	mov    ebx,DWORD PTR [ebp-0x10]
  102bab:	83 c3 04             	add    ebx,0x4
  102bae:	89 0c 9a             	mov    DWORD PTR [edx+ebx*4],ecx
  102bb1:	c7 c2 94 ee 11 00    	mov    edx,0x11ee94
  102bb7:	8b 12                	mov    edx,DWORD PTR [edx]
  102bb9:	8b 4d f0             	mov    ecx,DWORD PTR [ebp-0x10]
  102bbc:	83 c1 04             	add    ecx,0x4
  102bbf:	8b 14 8a             	mov    edx,DWORD PTR [edx+ecx*4]
  102bc2:	8b 4d f0             	mov    ecx,DWORD PTR [ebp-0x10]
  102bc5:	89 4a 18             	mov    DWORD PTR [edx+0x18],ecx
  102bc8:	83 45 f0 01          	add    DWORD PTR [ebp-0x10],0x1
  102bcc:	c7 c2 94 ee 11 00    	mov    edx,0x11ee94
  102bd2:	8b 12                	mov    edx,DWORD PTR [edx]
  102bd4:	8b 52 0c             	mov    edx,DWORD PTR [edx+0xc]
  102bd7:	39 55 f0             	cmp    DWORD PTR [ebp-0x10],edx
  102bda:	7c b0                	jl     102b8c <movez+0xe5>
  102bdc:	c7 c0 94 ee 11 00    	mov    eax,0x11ee94
  102be2:	8b 00                	mov    eax,DWORD PTR [eax]
  102be4:	8b 50 0c             	mov    edx,DWORD PTR [eax+0xc]
  102be7:	83 ea 01             	sub    edx,0x1
  102bea:	89 50 0c             	mov    DWORD PTR [eax+0xc],edx
  102bed:	8b 45 08             	mov    eax,DWORD PTR [ebp+0x8]
  102bf0:	8b 50 10             	mov    edx,DWORD PTR [eax+0x10]
  102bf3:	8b 45 08             	mov    eax,DWORD PTR [ebp+0x8]
  102bf6:	8b 40 08             	mov    eax,DWORD PTR [eax+0x8]
  102bf9:	8d 1c 02             	lea    ebx,[edx+eax*1]
  102bfc:	8b 45 08             	mov    eax,DWORD PTR [ebp+0x8]
  102bff:	8b 50 0c             	mov    edx,DWORD PTR [eax+0xc]
  102c02:	8b 45 08             	mov    eax,DWORD PTR [ebp+0x8]
  102c05:	8b 40 04             	mov    eax,DWORD PTR [eax+0x4]
  102c08:	8d 0c 02             	lea    ecx,[edx+eax*1]
  102c0b:	8b 45 08             	mov    eax,DWORD PTR [ebp+0x8]
  102c0e:	8b 50 10             	mov    edx,DWORD PTR [eax+0x10]
  102c11:	8b 45 08             	mov    eax,DWORD PTR [ebp+0x8]
  102c14:	8b 40 0c             	mov    eax,DWORD PTR [eax+0xc]
  102c17:	83 ec 0c             	sub    esp,0xc
  102c1a:	ff 75 0c             	push   DWORD PTR [ebp+0xc]
  102c1d:	53                   	push   ebx
  102c1e:	51                   	push   ecx
  102c1f:	52                   	push   edx
  102c20:	50                   	push   eax
  102c21:	e8 3d 02 00 00       	call   102e63 <refresh_map>
  102c26:	83 c4 20             	add    esp,0x20
  102c29:	8b 45 08             	mov    eax,DWORD PTR [ebp+0x8]
  102c2c:	8b 50 10             	mov    edx,DWORD PTR [eax+0x10]
  102c2f:	8b 45 08             	mov    eax,DWORD PTR [ebp+0x8]
  102c32:	8b 40 08             	mov    eax,DWORD PTR [eax+0x8]
  102c35:	8d 1c 02             	lea    ebx,[edx+eax*1]
  102c38:	8b 45 08             	mov    eax,DWORD PTR [ebp+0x8]
  102c3b:	8b 50 0c             	mov    edx,DWORD PTR [eax+0xc]
  102c3e:	8b 45 08             	mov    eax,DWORD PTR [ebp+0x8]
  102c41:	8b 40 04             	mov    eax,DWORD PTR [eax+0x4]
  102c44:	8d 0c 02             	lea    ecx,[edx+eax*1]
  102c47:	8b 45 08             	mov    eax,DWORD PTR [ebp+0x8]
  102c4a:	8b 50 10             	mov    edx,DWORD PTR [eax+0x10]
  102c4d:	8b 45 08             	mov    eax,DWORD PTR [ebp+0x8]
  102c50:	8b 40 0c             	mov    eax,DWORD PTR [eax+0xc]
  102c53:	83 ec 08             	sub    esp,0x8
  102c56:	ff 75 0c             	push   DWORD PTR [ebp+0xc]
  102c59:	ff 75 0c             	push   DWORD PTR [ebp+0xc]
  102c5c:	53                   	push   ebx
  102c5d:	51                   	push   ecx
  102c5e:	52                   	push   edx
  102c5f:	50                   	push   eax
  102c60:	e8 ed 03 00 00       	call   103052 <refresh>
  102c65:	83 c4 20             	add    esp,0x20
  102c68:	e9 79 01 00 00       	jmp    102de6 <movez+0x33f>
  102c6d:	8b 55 e4             	mov    edx,DWORD PTR [ebp-0x1c]
  102c70:	3b 55 0c             	cmp    edx,DWORD PTR [ebp+0xc]
  102c73:	0f 8d 6d 01 00 00    	jge    102de6 <movez+0x33f>
  102c79:	83 7d e4 00          	cmp    DWORD PTR [ebp-0x1c],0x0
  102c7d:	78 69                	js     102ce8 <movez+0x241>
  102c7f:	8b 55 e4             	mov    edx,DWORD PTR [ebp-0x1c]
  102c82:	89 55 ec             	mov    DWORD PTR [ebp-0x14],edx
  102c85:	eb 40                	jmp    102cc7 <movez+0x220>
  102c87:	c7 c2 94 ee 11 00    	mov    edx,0x11ee94
  102c8d:	8b 0a                	mov    ecx,DWORD PTR [edx]
  102c8f:	8b 55 ec             	mov    edx,DWORD PTR [ebp-0x14]
  102c92:	8d 5a 01             	lea    ebx,[edx+0x1]
  102c95:	c7 c2 94 ee 11 00    	mov    edx,0x11ee94
  102c9b:	8b 12                	mov    edx,DWORD PTR [edx]
  102c9d:	83 c3 04             	add    ebx,0x4
  102ca0:	8b 0c 99             	mov    ecx,DWORD PTR [ecx+ebx*4]
  102ca3:	8b 5d ec             	mov    ebx,DWORD PTR [ebp-0x14]
  102ca6:	83 c3 04             	add    ebx,0x4
  102ca9:	89 0c 9a             	mov    DWORD PTR [edx+ebx*4],ecx
  102cac:	c7 c2 94 ee 11 00    	mov    edx,0x11ee94
  102cb2:	8b 12                	mov    edx,DWORD PTR [edx]
  102cb4:	8b 4d ec             	mov    ecx,DWORD PTR [ebp-0x14]
  102cb7:	83 c1 04             	add    ecx,0x4
  102cba:	8b 14 8a             	mov    edx,DWORD PTR [edx+ecx*4]
  102cbd:	8b 4d ec             	mov    ecx,DWORD PTR [ebp-0x14]
  102cc0:	89 4a 18             	mov    DWORD PTR [edx+0x18],ecx
  102cc3:	83 45 ec 01          	add    DWORD PTR [ebp-0x14],0x1
  102cc7:	8b 55 ec             	mov    edx,DWORD PTR [ebp-0x14]
  102cca:	3b 55 0c             	cmp    edx,DWORD PTR [ebp+0xc]
  102ccd:	7c b8                	jl     102c87 <movez+0x1e0>
  102ccf:	c7 c0 94 ee 11 00    	mov    eax,0x11ee94
  102cd5:	8b 00                	mov    eax,DWORD PTR [eax]
  102cd7:	8b 55 0c             	mov    edx,DWORD PTR [ebp+0xc]
  102cda:	8d 4a 04             	lea    ecx,[edx+0x4]
  102cdd:	8b 55 08             	mov    edx,DWORD PTR [ebp+0x8]
  102ce0:	89 14 88             	mov    DWORD PTR [eax+ecx*4],edx
  102ce3:	e9 83 00 00 00       	jmp    102d6b <movez+0x2c4>
  102ce8:	c7 c2 94 ee 11 00    	mov    edx,0x11ee94
  102cee:	8b 12                	mov    edx,DWORD PTR [edx]
  102cf0:	8b 52 0c             	mov    edx,DWORD PTR [edx+0xc]
  102cf3:	89 55 e8             	mov    DWORD PTR [ebp-0x18],edx
  102cf6:	eb 46                	jmp    102d3e <movez+0x297>
  102cf8:	c7 c2 94 ee 11 00    	mov    edx,0x11ee94
  102cfe:	8b 0a                	mov    ecx,DWORD PTR [edx]
  102d00:	c7 c2 94 ee 11 00    	mov    edx,0x11ee94
  102d06:	8b 12                	mov    edx,DWORD PTR [edx]
  102d08:	8b 5d e8             	mov    ebx,DWORD PTR [ebp-0x18]
  102d0b:	8d 73 01             	lea    esi,[ebx+0x1]
  102d0e:	8b 5d e8             	mov    ebx,DWORD PTR [ebp-0x18]
  102d11:	83 c3 04             	add    ebx,0x4
  102d14:	8b 0c 99             	mov    ecx,DWORD PTR [ecx+ebx*4]
  102d17:	8d 5e 04             	lea    ebx,[esi+0x4]
  102d1a:	89 0c 9a             	mov    DWORD PTR [edx+ebx*4],ecx
  102d1d:	c7 c2 94 ee 11 00    	mov    edx,0x11ee94
  102d23:	8b 12                	mov    edx,DWORD PTR [edx]
  102d25:	8b 4d e8             	mov    ecx,DWORD PTR [ebp-0x18]
  102d28:	83 c1 01             	add    ecx,0x1
  102d2b:	83 c1 04             	add    ecx,0x4
  102d2e:	8b 14 8a             	mov    edx,DWORD PTR [edx+ecx*4]
  102d31:	8b 4d e8             	mov    ecx,DWORD PTR [ebp-0x18]
  102d34:	83 c1 01             	add    ecx,0x1
  102d37:	89 4a 18             	mov    DWORD PTR [edx+0x18],ecx
  102d3a:	83 6d e8 01          	sub    DWORD PTR [ebp-0x18],0x1
  102d3e:	8b 55 e8             	mov    edx,DWORD PTR [ebp-0x18]
  102d41:	3b 55 0c             	cmp    edx,DWORD PTR [ebp+0xc]
  102d44:	7d b2                	jge    102cf8 <movez+0x251>
  102d46:	c7 c2 94 ee 11 00    	mov    edx,0x11ee94
  102d4c:	8b 12                	mov    edx,DWORD PTR [edx]
  102d4e:	8b 4d 0c             	mov    ecx,DWORD PTR [ebp+0xc]
  102d51:	8d 59 04             	lea    ebx,[ecx+0x4]
  102d54:	8b 4d 08             	mov    ecx,DWORD PTR [ebp+0x8]
  102d57:	89 0c 9a             	mov    DWORD PTR [edx+ebx*4],ecx
  102d5a:	c7 c0 94 ee 11 00    	mov    eax,0x11ee94
  102d60:	8b 00                	mov    eax,DWORD PTR [eax]
  102d62:	8b 50 0c             	mov    edx,DWORD PTR [eax+0xc]
  102d65:	83 c2 01             	add    edx,0x1
  102d68:	89 50 0c             	mov    DWORD PTR [eax+0xc],edx
  102d6b:	8b 45 08             	mov    eax,DWORD PTR [ebp+0x8]
  102d6e:	8b 50 10             	mov    edx,DWORD PTR [eax+0x10]
  102d71:	8b 45 08             	mov    eax,DWORD PTR [ebp+0x8]
  102d74:	8b 40 08             	mov    eax,DWORD PTR [eax+0x8]
  102d77:	8d 1c 02             	lea    ebx,[edx+eax*1]
  102d7a:	8b 45 08             	mov    eax,DWORD PTR [ebp+0x8]
  102d7d:	8b 50 0c             	mov    edx,DWORD PTR [eax+0xc]
  102d80:	8b 45 08             	mov    eax,DWORD PTR [ebp+0x8]
  102d83:	8b 40 04             	mov    eax,DWORD PTR [eax+0x4]
  102d86:	8d 0c 02             	lea    ecx,[edx+eax*1]
  102d89:	8b 45 08             	mov    eax,DWORD PTR [ebp+0x8]
  102d8c:	8b 50 10             	mov    edx,DWORD PTR [eax+0x10]
  102d8f:	8b 45 08             	mov    eax,DWORD PTR [ebp+0x8]
  102d92:	8b 40 0c             	mov    eax,DWORD PTR [eax+0xc]
  102d95:	83 ec 0c             	sub    esp,0xc
  102d98:	ff 75 0c             	push   DWORD PTR [ebp+0xc]
  102d9b:	53                   	push   ebx
  102d9c:	51                   	push   ecx
  102d9d:	52                   	push   edx
  102d9e:	50                   	push   eax
  102d9f:	e8 bf 00 00 00       	call   102e63 <refresh_map>
  102da4:	83 c4 20             	add    esp,0x20
  102da7:	8b 45 08             	mov    eax,DWORD PTR [ebp+0x8]
  102daa:	8b 50 10             	mov    edx,DWORD PTR [eax+0x10]
  102dad:	8b 45 08             	mov    eax,DWORD PTR [ebp+0x8]
  102db0:	8b 40 08             	mov    eax,DWORD PTR [eax+0x8]
  102db3:	8d 1c 02             	lea    ebx,[edx+eax*1]
  102db6:	8b 45 08             	mov    eax,DWORD PTR [ebp+0x8]
  102db9:	8b 50 0c             	mov    edx,DWORD PTR [eax+0xc]
  102dbc:	8b 45 08             	mov    eax,DWORD PTR [ebp+0x8]
  102dbf:	8b 40 04             	mov    eax,DWORD PTR [eax+0x4]
  102dc2:	8d 0c 02             	lea    ecx,[edx+eax*1]
  102dc5:	8b 45 08             	mov    eax,DWORD PTR [ebp+0x8]
  102dc8:	8b 50 10             	mov    edx,DWORD PTR [eax+0x10]
  102dcb:	8b 45 08             	mov    eax,DWORD PTR [ebp+0x8]
  102dce:	8b 40 0c             	mov    eax,DWORD PTR [eax+0xc]
  102dd1:	83 ec 08             	sub    esp,0x8
  102dd4:	ff 75 0c             	push   DWORD PTR [ebp+0xc]
  102dd7:	ff 75 0c             	push   DWORD PTR [ebp+0xc]
  102dda:	53                   	push   ebx
  102ddb:	51                   	push   ecx
  102ddc:	52                   	push   edx
  102ddd:	50                   	push   eax
  102dde:	e8 6f 02 00 00       	call   103052 <refresh>
  102de3:	83 c4 20             	add    esp,0x20
  102de6:	90                   	nop
  102de7:	8d 65 f8             	lea    esp,[ebp-0x8]
  102dea:	5b                   	pop    ebx
  102deb:	5e                   	pop    esi
  102dec:	5d                   	pop    ebp
  102ded:	c3                   	ret    

00102dee <refresh_local>:
  102dee:	55                   	push   ebp
  102def:	89 e5                	mov    ebp,esp
  102df1:	57                   	push   edi
  102df2:	56                   	push   esi
  102df3:	53                   	push   ebx
  102df4:	83 ec 1c             	sub    esp,0x1c
  102df7:	e8 55 d7 ff ff       	call   100551 <__x86.get_pc_thunk.ax>
  102dfc:	05 04 12 01 00       	add    eax,0x11204
  102e01:	8b 45 08             	mov    eax,DWORD PTR [ebp+0x8]
  102e04:	8b 40 18             	mov    eax,DWORD PTR [eax+0x18]
  102e07:	85 c0                	test   eax,eax
  102e09:	78 4f                	js     102e5a <refresh_local+0x6c>
  102e0b:	8b 45 08             	mov    eax,DWORD PTR [ebp+0x8]
  102e0e:	8b 58 18             	mov    ebx,DWORD PTR [eax+0x18]
  102e11:	8b 45 08             	mov    eax,DWORD PTR [ebp+0x8]
  102e14:	8b 48 18             	mov    ecx,DWORD PTR [eax+0x18]
  102e17:	8b 45 08             	mov    eax,DWORD PTR [ebp+0x8]
  102e1a:	8b 50 10             	mov    edx,DWORD PTR [eax+0x10]
  102e1d:	8b 45 18             	mov    eax,DWORD PTR [ebp+0x18]
  102e20:	8d 3c 02             	lea    edi,[edx+eax*1]
  102e23:	8b 45 08             	mov    eax,DWORD PTR [ebp+0x8]
  102e26:	8b 50 0c             	mov    edx,DWORD PTR [eax+0xc]
  102e29:	8b 45 14             	mov    eax,DWORD PTR [ebp+0x14]
  102e2c:	8d 34 02             	lea    esi,[edx+eax*1]
  102e2f:	8b 45 08             	mov    eax,DWORD PTR [ebp+0x8]
  102e32:	8b 50 10             	mov    edx,DWORD PTR [eax+0x10]
  102e35:	8b 45 10             	mov    eax,DWORD PTR [ebp+0x10]
  102e38:	01 c2                	add    edx,eax
  102e3a:	8b 45 08             	mov    eax,DWORD PTR [ebp+0x8]
  102e3d:	8b 40 0c             	mov    eax,DWORD PTR [eax+0xc]
  102e40:	89 45 e4             	mov    DWORD PTR [ebp-0x1c],eax
  102e43:	8b 45 0c             	mov    eax,DWORD PTR [ebp+0xc]
  102e46:	03 45 e4             	add    eax,DWORD PTR [ebp-0x1c]
  102e49:	83 ec 08             	sub    esp,0x8
  102e4c:	53                   	push   ebx
  102e4d:	51                   	push   ecx
  102e4e:	57                   	push   edi
  102e4f:	56                   	push   esi
  102e50:	52                   	push   edx
  102e51:	50                   	push   eax
  102e52:	e8 fb 01 00 00       	call   103052 <refresh>
  102e57:	83 c4 20             	add    esp,0x20
  102e5a:	90                   	nop
  102e5b:	8d 65 f4             	lea    esp,[ebp-0xc]
  102e5e:	5b                   	pop    ebx
  102e5f:	5e                   	pop    esi
  102e60:	5f                   	pop    edi
  102e61:	5d                   	pop    ebp
  102e62:	c3                   	ret    

00102e63 <refresh_map>:
  102e63:	55                   	push   ebp
  102e64:	89 e5                	mov    ebp,esp
  102e66:	83 ec 40             	sub    esp,0x40
  102e69:	e8 e3 d6 ff ff       	call   100551 <__x86.get_pc_thunk.ax>
  102e6e:	05 92 11 01 00       	add    eax,0x11192
  102e73:	83 7d 08 00          	cmp    DWORD PTR [ebp+0x8],0x0
  102e77:	79 07                	jns    102e80 <refresh_map+0x1d>
  102e79:	c7 45 08 00 00 00 00 	mov    DWORD PTR [ebp+0x8],0x0
  102e80:	83 7d 0c 00          	cmp    DWORD PTR [ebp+0xc],0x0
  102e84:	79 07                	jns    102e8d <refresh_map+0x2a>
  102e86:	c7 45 0c 00 00 00 00 	mov    DWORD PTR [ebp+0xc],0x0
  102e8d:	c7 c2 94 ee 11 00    	mov    edx,0x11ee94
  102e93:	8b 12                	mov    edx,DWORD PTR [edx]
  102e95:	8b 52 04             	mov    edx,DWORD PTR [edx+0x4]
  102e98:	39 55 10             	cmp    DWORD PTR [ebp+0x10],edx
  102e9b:	7e 0e                	jle    102eab <refresh_map+0x48>
  102e9d:	c7 c2 94 ee 11 00    	mov    edx,0x11ee94
  102ea3:	8b 12                	mov    edx,DWORD PTR [edx]
  102ea5:	8b 52 04             	mov    edx,DWORD PTR [edx+0x4]
  102ea8:	89 55 10             	mov    DWORD PTR [ebp+0x10],edx
  102eab:	c7 c2 94 ee 11 00    	mov    edx,0x11ee94
  102eb1:	8b 12                	mov    edx,DWORD PTR [edx]
  102eb3:	8b 52 08             	mov    edx,DWORD PTR [edx+0x8]
  102eb6:	39 55 14             	cmp    DWORD PTR [ebp+0x14],edx
  102eb9:	7e 0e                	jle    102ec9 <refresh_map+0x66>
  102ebb:	c7 c2 94 ee 11 00    	mov    edx,0x11ee94
  102ec1:	8b 12                	mov    edx,DWORD PTR [edx]
  102ec3:	8b 52 08             	mov    edx,DWORD PTR [edx+0x8]
  102ec6:	89 55 14             	mov    DWORD PTR [ebp+0x14],edx
  102ec9:	8b 55 18             	mov    edx,DWORD PTR [ebp+0x18]
  102ecc:	89 55 fc             	mov    DWORD PTR [ebp-0x4],edx
  102ecf:	e9 67 01 00 00       	jmp    10303b <refresh_map+0x1d8>
  102ed4:	c7 c2 94 ee 11 00    	mov    edx,0x11ee94
  102eda:	8b 12                	mov    edx,DWORD PTR [edx]
  102edc:	8b 4d fc             	mov    ecx,DWORD PTR [ebp-0x4]
  102edf:	83 c1 04             	add    ecx,0x4
  102ee2:	8b 14 8a             	mov    edx,DWORD PTR [edx+ecx*4]
  102ee5:	89 55 e0             	mov    DWORD PTR [ebp-0x20],edx
  102ee8:	8b 4d e0             	mov    ecx,DWORD PTR [ebp-0x20]
  102eeb:	c7 c2 94 ee 11 00    	mov    edx,0x11ee94
  102ef1:	8b 12                	mov    edx,DWORD PTR [edx]
  102ef3:	81 c2 10 04 00 00    	add    edx,0x410
  102ef9:	29 d1                	sub    ecx,edx
  102efb:	89 ca                	mov    edx,ecx
  102efd:	c1 fa 05             	sar    edx,0x5
  102f00:	89 55 dc             	mov    DWORD PTR [ebp-0x24],edx
  102f03:	8b 55 e0             	mov    edx,DWORD PTR [ebp-0x20]
  102f06:	8b 12                	mov    edx,DWORD PTR [edx]
  102f08:	89 55 d8             	mov    DWORD PTR [ebp-0x28],edx
  102f0b:	c7 c2 94 ee 11 00    	mov    edx,0x11ee94
  102f11:	8b 12                	mov    edx,DWORD PTR [edx]
  102f13:	8b 12                	mov    edx,DWORD PTR [edx]
  102f15:	89 55 d4             	mov    DWORD PTR [ebp-0x2c],edx
  102f18:	8b 55 e0             	mov    edx,DWORD PTR [ebp-0x20]
  102f1b:	8b 52 0c             	mov    edx,DWORD PTR [edx+0xc]
  102f1e:	8b 4d 08             	mov    ecx,DWORD PTR [ebp+0x8]
  102f21:	29 d1                	sub    ecx,edx
  102f23:	89 ca                	mov    edx,ecx
  102f25:	89 55 f8             	mov    DWORD PTR [ebp-0x8],edx
  102f28:	8b 55 e0             	mov    edx,DWORD PTR [ebp-0x20]
  102f2b:	8b 52 0c             	mov    edx,DWORD PTR [edx+0xc]
  102f2e:	8b 4d 10             	mov    ecx,DWORD PTR [ebp+0x10]
  102f31:	29 d1                	sub    ecx,edx
  102f33:	89 ca                	mov    edx,ecx
  102f35:	89 55 f4             	mov    DWORD PTR [ebp-0xc],edx
  102f38:	8b 55 e0             	mov    edx,DWORD PTR [ebp-0x20]
  102f3b:	8b 52 10             	mov    edx,DWORD PTR [edx+0x10]
  102f3e:	8b 4d 0c             	mov    ecx,DWORD PTR [ebp+0xc]
  102f41:	29 d1                	sub    ecx,edx
  102f43:	89 ca                	mov    edx,ecx
  102f45:	89 55 f0             	mov    DWORD PTR [ebp-0x10],edx
  102f48:	8b 55 e0             	mov    edx,DWORD PTR [ebp-0x20]
  102f4b:	8b 52 10             	mov    edx,DWORD PTR [edx+0x10]
  102f4e:	8b 4d 14             	mov    ecx,DWORD PTR [ebp+0x14]
  102f51:	29 d1                	sub    ecx,edx
  102f53:	89 ca                	mov    edx,ecx
  102f55:	89 55 ec             	mov    DWORD PTR [ebp-0x14],edx
  102f58:	83 7d f8 00          	cmp    DWORD PTR [ebp-0x8],0x0
  102f5c:	79 07                	jns    102f65 <refresh_map+0x102>
  102f5e:	c7 45 f8 00 00 00 00 	mov    DWORD PTR [ebp-0x8],0x0
  102f65:	83 7d f0 00          	cmp    DWORD PTR [ebp-0x10],0x0
  102f69:	79 07                	jns    102f72 <refresh_map+0x10f>
  102f6b:	c7 45 f0 00 00 00 00 	mov    DWORD PTR [ebp-0x10],0x0
  102f72:	8b 55 e0             	mov    edx,DWORD PTR [ebp-0x20]
  102f75:	8b 52 04             	mov    edx,DWORD PTR [edx+0x4]
  102f78:	39 55 f4             	cmp    DWORD PTR [ebp-0xc],edx
  102f7b:	7e 09                	jle    102f86 <refresh_map+0x123>
  102f7d:	8b 55 e0             	mov    edx,DWORD PTR [ebp-0x20]
  102f80:	8b 52 04             	mov    edx,DWORD PTR [edx+0x4]
  102f83:	89 55 f4             	mov    DWORD PTR [ebp-0xc],edx
  102f86:	8b 55 e0             	mov    edx,DWORD PTR [ebp-0x20]
  102f89:	8b 52 08             	mov    edx,DWORD PTR [edx+0x8]
  102f8c:	39 55 ec             	cmp    DWORD PTR [ebp-0x14],edx
  102f8f:	7e 09                	jle    102f9a <refresh_map+0x137>
  102f91:	8b 55 e0             	mov    edx,DWORD PTR [ebp-0x20]
  102f94:	8b 52 08             	mov    edx,DWORD PTR [edx+0x8]
  102f97:	89 55 ec             	mov    DWORD PTR [ebp-0x14],edx
  102f9a:	8b 55 f0             	mov    edx,DWORD PTR [ebp-0x10]
  102f9d:	89 55 e8             	mov    DWORD PTR [ebp-0x18],edx
  102fa0:	e9 86 00 00 00       	jmp    10302b <refresh_map+0x1c8>
  102fa5:	8b 55 e0             	mov    edx,DWORD PTR [ebp-0x20]
  102fa8:	8b 4a 10             	mov    ecx,DWORD PTR [edx+0x10]
  102fab:	8b 55 e8             	mov    edx,DWORD PTR [ebp-0x18]
  102fae:	01 ca                	add    edx,ecx
  102fb0:	89 55 d0             	mov    DWORD PTR [ebp-0x30],edx
  102fb3:	8b 55 f8             	mov    edx,DWORD PTR [ebp-0x8]
  102fb6:	89 55 e4             	mov    DWORD PTR [ebp-0x1c],edx
  102fb9:	eb 64                	jmp    10301f <refresh_map+0x1bc>
  102fbb:	8b 55 e0             	mov    edx,DWORD PTR [ebp-0x20]
  102fbe:	8b 4a 0c             	mov    ecx,DWORD PTR [edx+0xc]
  102fc1:	8b 55 e4             	mov    edx,DWORD PTR [ebp-0x1c]
  102fc4:	01 ca                	add    edx,ecx
  102fc6:	89 55 cc             	mov    DWORD PTR [ebp-0x34],edx
  102fc9:	8b 55 e0             	mov    edx,DWORD PTR [ebp-0x20]
  102fcc:	8b 52 04             	mov    edx,DWORD PTR [edx+0x4]
  102fcf:	89 d1                	mov    ecx,edx
  102fd1:	0f af 4d e8          	imul   ecx,DWORD PTR [ebp-0x18]
  102fd5:	8b 55 e4             	mov    edx,DWORD PTR [ebp-0x1c]
  102fd8:	01 ca                	add    edx,ecx
  102fda:	89 d1                	mov    ecx,edx
  102fdc:	8b 55 d8             	mov    edx,DWORD PTR [ebp-0x28]
  102fdf:	01 ca                	add    edx,ecx
  102fe1:	0f b6 12             	movzx  edx,BYTE PTR [edx]
  102fe4:	88 55 cb             	mov    BYTE PTR [ebp-0x35],dl
  102fe7:	c7 c2 94 ee 11 00    	mov    edx,0x11ee94
  102fed:	8b 12                	mov    edx,DWORD PTR [edx]
  102fef:	8b 52 04             	mov    edx,DWORD PTR [edx+0x4]
  102ff2:	89 d1                	mov    ecx,edx
  102ff4:	0f af 4d d0          	imul   ecx,DWORD PTR [ebp-0x30]
  102ff8:	8b 55 cc             	mov    edx,DWORD PTR [ebp-0x34]
  102ffb:	01 ca                	add    edx,ecx
  102ffd:	89 55 c4             	mov    DWORD PTR [ebp-0x3c],edx
  103000:	0f b6 4d cb          	movzx  ecx,BYTE PTR [ebp-0x35]
  103004:	8b 55 e0             	mov    edx,DWORD PTR [ebp-0x20]
  103007:	8b 52 14             	mov    edx,DWORD PTR [edx+0x14]
  10300a:	39 d1                	cmp    ecx,edx
  10300c:	74 0d                	je     10301b <refresh_map+0x1b8>
  10300e:	8b 4d c4             	mov    ecx,DWORD PTR [ebp-0x3c]
  103011:	8b 55 d4             	mov    edx,DWORD PTR [ebp-0x2c]
  103014:	01 ca                	add    edx,ecx
  103016:	8b 4d dc             	mov    ecx,DWORD PTR [ebp-0x24]
  103019:	88 0a                	mov    BYTE PTR [edx],cl
  10301b:	83 45 e4 01          	add    DWORD PTR [ebp-0x1c],0x1
  10301f:	8b 55 e4             	mov    edx,DWORD PTR [ebp-0x1c]
  103022:	3b 55 f4             	cmp    edx,DWORD PTR [ebp-0xc]
  103025:	7c 94                	jl     102fbb <refresh_map+0x158>
  103027:	83 45 e8 01          	add    DWORD PTR [ebp-0x18],0x1
  10302b:	8b 55 e8             	mov    edx,DWORD PTR [ebp-0x18]
  10302e:	3b 55 ec             	cmp    edx,DWORD PTR [ebp-0x14]
  103031:	0f 8c 6e ff ff ff    	jl     102fa5 <refresh_map+0x142>
  103037:	83 45 fc 01          	add    DWORD PTR [ebp-0x4],0x1
  10303b:	c7 c2 94 ee 11 00    	mov    edx,0x11ee94
  103041:	8b 12                	mov    edx,DWORD PTR [edx]
  103043:	8b 52 0c             	mov    edx,DWORD PTR [edx+0xc]
  103046:	39 55 fc             	cmp    DWORD PTR [ebp-0x4],edx
  103049:	0f 8e 85 fe ff ff    	jle    102ed4 <refresh_map+0x71>
  10304f:	90                   	nop
  103050:	c9                   	leave  
  103051:	c3                   	ret    

00103052 <refresh>:
  103052:	55                   	push   ebp
  103053:	89 e5                	mov    ebp,esp
  103055:	53                   	push   ebx
  103056:	83 ec 44             	sub    esp,0x44
  103059:	e8 f7 d4 ff ff       	call   100555 <__x86.get_pc_thunk.bx>
  10305e:	81 c3 a2 0f 01 00    	add    ebx,0x10fa2
  103064:	83 7d 08 00          	cmp    DWORD PTR [ebp+0x8],0x0
  103068:	79 07                	jns    103071 <refresh+0x1f>
  10306a:	c7 45 08 00 00 00 00 	mov    DWORD PTR [ebp+0x8],0x0
  103071:	83 7d 0c 00          	cmp    DWORD PTR [ebp+0xc],0x0
  103075:	79 07                	jns    10307e <refresh+0x2c>
  103077:	c7 45 0c 00 00 00 00 	mov    DWORD PTR [ebp+0xc],0x0
  10307e:	c7 c0 94 ee 11 00    	mov    eax,0x11ee94
  103084:	8b 00                	mov    eax,DWORD PTR [eax]
  103086:	8b 40 04             	mov    eax,DWORD PTR [eax+0x4]
  103089:	39 45 10             	cmp    DWORD PTR [ebp+0x10],eax
  10308c:	7e 0e                	jle    10309c <refresh+0x4a>
  10308e:	c7 c0 94 ee 11 00    	mov    eax,0x11ee94
  103094:	8b 00                	mov    eax,DWORD PTR [eax]
  103096:	8b 40 04             	mov    eax,DWORD PTR [eax+0x4]
  103099:	89 45 10             	mov    DWORD PTR [ebp+0x10],eax
  10309c:	c7 c0 94 ee 11 00    	mov    eax,0x11ee94
  1030a2:	8b 00                	mov    eax,DWORD PTR [eax]
  1030a4:	8b 40 08             	mov    eax,DWORD PTR [eax+0x8]
  1030a7:	39 45 14             	cmp    DWORD PTR [ebp+0x14],eax
  1030aa:	7e 0e                	jle    1030ba <refresh+0x68>
  1030ac:	c7 c0 94 ee 11 00    	mov    eax,0x11ee94
  1030b2:	8b 00                	mov    eax,DWORD PTR [eax]
  1030b4:	8b 40 08             	mov    eax,DWORD PTR [eax+0x8]
  1030b7:	89 45 14             	mov    DWORD PTR [ebp+0x14],eax
  1030ba:	c7 c0 94 ee 11 00    	mov    eax,0x11ee94
  1030c0:	8b 00                	mov    eax,DWORD PTR [eax]
  1030c2:	8b 40 0c             	mov    eax,DWORD PTR [eax+0xc]
  1030c5:	39 45 1c             	cmp    DWORD PTR [ebp+0x1c],eax
  1030c8:	7e 0e                	jle    1030d8 <refresh+0x86>
  1030ca:	c7 c0 94 ee 11 00    	mov    eax,0x11ee94
  1030d0:	8b 00                	mov    eax,DWORD PTR [eax]
  1030d2:	8b 40 0c             	mov    eax,DWORD PTR [eax+0xc]
  1030d5:	89 45 1c             	mov    DWORD PTR [ebp+0x1c],eax
  1030d8:	8b 45 18             	mov    eax,DWORD PTR [ebp+0x18]
  1030db:	89 45 f4             	mov    DWORD PTR [ebp-0xc],eax
  1030de:	e9 74 01 00 00       	jmp    103257 <refresh+0x205>
  1030e3:	c7 c0 94 ee 11 00    	mov    eax,0x11ee94
  1030e9:	8b 00                	mov    eax,DWORD PTR [eax]
  1030eb:	8b 55 f4             	mov    edx,DWORD PTR [ebp-0xc]
  1030ee:	83 c2 04             	add    edx,0x4
  1030f1:	8b 04 90             	mov    eax,DWORD PTR [eax+edx*4]
  1030f4:	89 45 d8             	mov    DWORD PTR [ebp-0x28],eax
  1030f7:	8b 55 d8             	mov    edx,DWORD PTR [ebp-0x28]
  1030fa:	c7 c0 94 ee 11 00    	mov    eax,0x11ee94
  103100:	8b 00                	mov    eax,DWORD PTR [eax]
  103102:	05 10 04 00 00       	add    eax,0x410
  103107:	29 c2                	sub    edx,eax
  103109:	89 d0                	mov    eax,edx
  10310b:	c1 f8 05             	sar    eax,0x5
  10310e:	89 45 d4             	mov    DWORD PTR [ebp-0x2c],eax
  103111:	8b 45 d8             	mov    eax,DWORD PTR [ebp-0x28]
  103114:	8b 00                	mov    eax,DWORD PTR [eax]
  103116:	89 45 d0             	mov    DWORD PTR [ebp-0x30],eax
  103119:	c7 c0 94 ee 11 00    	mov    eax,0x11ee94
  10311f:	8b 00                	mov    eax,DWORD PTR [eax]
  103121:	8b 00                	mov    eax,DWORD PTR [eax]
  103123:	89 45 cc             	mov    DWORD PTR [ebp-0x34],eax
  103126:	8b 45 d8             	mov    eax,DWORD PTR [ebp-0x28]
  103129:	8b 40 0c             	mov    eax,DWORD PTR [eax+0xc]
  10312c:	8b 55 08             	mov    edx,DWORD PTR [ebp+0x8]
  10312f:	29 c2                	sub    edx,eax
  103131:	89 d0                	mov    eax,edx
  103133:	89 45 f0             	mov    DWORD PTR [ebp-0x10],eax
  103136:	8b 45 d8             	mov    eax,DWORD PTR [ebp-0x28]
  103139:	8b 40 0c             	mov    eax,DWORD PTR [eax+0xc]
  10313c:	8b 55 10             	mov    edx,DWORD PTR [ebp+0x10]
  10313f:	29 c2                	sub    edx,eax
  103141:	89 d0                	mov    eax,edx
  103143:	89 45 ec             	mov    DWORD PTR [ebp-0x14],eax
  103146:	8b 45 d8             	mov    eax,DWORD PTR [ebp-0x28]
  103149:	8b 40 10             	mov    eax,DWORD PTR [eax+0x10]
  10314c:	8b 55 0c             	mov    edx,DWORD PTR [ebp+0xc]
  10314f:	29 c2                	sub    edx,eax
  103151:	89 d0                	mov    eax,edx
  103153:	89 45 e8             	mov    DWORD PTR [ebp-0x18],eax
  103156:	8b 45 d8             	mov    eax,DWORD PTR [ebp-0x28]
  103159:	8b 40 10             	mov    eax,DWORD PTR [eax+0x10]
  10315c:	8b 55 14             	mov    edx,DWORD PTR [ebp+0x14]
  10315f:	29 c2                	sub    edx,eax
  103161:	89 d0                	mov    eax,edx
  103163:	89 45 e4             	mov    DWORD PTR [ebp-0x1c],eax
  103166:	83 7d f0 00          	cmp    DWORD PTR [ebp-0x10],0x0
  10316a:	79 07                	jns    103173 <refresh+0x121>
  10316c:	c7 45 f0 00 00 00 00 	mov    DWORD PTR [ebp-0x10],0x0
  103173:	83 7d e8 00          	cmp    DWORD PTR [ebp-0x18],0x0
  103177:	79 07                	jns    103180 <refresh+0x12e>
  103179:	c7 45 e8 00 00 00 00 	mov    DWORD PTR [ebp-0x18],0x0
  103180:	8b 45 d8             	mov    eax,DWORD PTR [ebp-0x28]
  103183:	8b 40 04             	mov    eax,DWORD PTR [eax+0x4]
  103186:	39 45 ec             	cmp    DWORD PTR [ebp-0x14],eax
  103189:	7e 09                	jle    103194 <refresh+0x142>
  10318b:	8b 45 d8             	mov    eax,DWORD PTR [ebp-0x28]
  10318e:	8b 40 04             	mov    eax,DWORD PTR [eax+0x4]
  103191:	89 45 ec             	mov    DWORD PTR [ebp-0x14],eax
  103194:	8b 45 d8             	mov    eax,DWORD PTR [ebp-0x28]
  103197:	8b 40 08             	mov    eax,DWORD PTR [eax+0x8]
  10319a:	39 45 e4             	cmp    DWORD PTR [ebp-0x1c],eax
  10319d:	7e 09                	jle    1031a8 <refresh+0x156>
  10319f:	8b 45 d8             	mov    eax,DWORD PTR [ebp-0x28]
  1031a2:	8b 40 08             	mov    eax,DWORD PTR [eax+0x8]
  1031a5:	89 45 e4             	mov    DWORD PTR [ebp-0x1c],eax
  1031a8:	8b 45 e8             	mov    eax,DWORD PTR [ebp-0x18]
  1031ab:	89 45 e0             	mov    DWORD PTR [ebp-0x20],eax
  1031ae:	e9 94 00 00 00       	jmp    103247 <refresh+0x1f5>
  1031b3:	8b 45 d8             	mov    eax,DWORD PTR [ebp-0x28]
  1031b6:	8b 50 10             	mov    edx,DWORD PTR [eax+0x10]
  1031b9:	8b 45 e0             	mov    eax,DWORD PTR [ebp-0x20]
  1031bc:	01 d0                	add    eax,edx
  1031be:	89 45 c8             	mov    DWORD PTR [ebp-0x38],eax
  1031c1:	8b 45 f0             	mov    eax,DWORD PTR [ebp-0x10]
  1031c4:	89 45 dc             	mov    DWORD PTR [ebp-0x24],eax
  1031c7:	eb 72                	jmp    10323b <refresh+0x1e9>
  1031c9:	8b 45 d8             	mov    eax,DWORD PTR [ebp-0x28]
  1031cc:	8b 50 0c             	mov    edx,DWORD PTR [eax+0xc]
  1031cf:	8b 45 dc             	mov    eax,DWORD PTR [ebp-0x24]
  1031d2:	01 d0                	add    eax,edx
  1031d4:	89 45 c4             	mov    DWORD PTR [ebp-0x3c],eax
  1031d7:	c7 c0 94 ee 11 00    	mov    eax,0x11ee94
  1031dd:	8b 00                	mov    eax,DWORD PTR [eax]
  1031df:	8b 40 04             	mov    eax,DWORD PTR [eax+0x4]
  1031e2:	0f af 45 c8          	imul   eax,DWORD PTR [ebp-0x38]
  1031e6:	89 c2                	mov    edx,eax
  1031e8:	8b 45 c4             	mov    eax,DWORD PTR [ebp-0x3c]
  1031eb:	01 d0                	add    eax,edx
  1031ed:	89 45 c0             	mov    DWORD PTR [ebp-0x40],eax
  1031f0:	8b 55 c0             	mov    edx,DWORD PTR [ebp-0x40]
  1031f3:	8b 45 cc             	mov    eax,DWORD PTR [ebp-0x34]
  1031f6:	01 d0                	add    eax,edx
  1031f8:	0f b6 00             	movzx  eax,BYTE PTR [eax]
  1031fb:	0f b6 c0             	movzx  eax,al
  1031fe:	39 45 d4             	cmp    DWORD PTR [ebp-0x2c],eax
  103201:	75 34                	jne    103237 <refresh+0x1e5>
  103203:	8b 45 d8             	mov    eax,DWORD PTR [ebp-0x28]
  103206:	8b 40 04             	mov    eax,DWORD PTR [eax+0x4]
  103209:	0f af 45 e0          	imul   eax,DWORD PTR [ebp-0x20]
  10320d:	89 c2                	mov    edx,eax
  10320f:	8b 45 dc             	mov    eax,DWORD PTR [ebp-0x24]
  103212:	01 d0                	add    eax,edx
  103214:	89 c2                	mov    edx,eax
  103216:	8b 45 d0             	mov    eax,DWORD PTR [ebp-0x30]
  103219:	01 d0                	add    eax,edx
  10321b:	0f b6 00             	movzx  eax,BYTE PTR [eax]
  10321e:	88 45 bf             	mov    BYTE PTR [ebp-0x41],al
  103221:	0f b6 45 bf          	movzx  eax,BYTE PTR [ebp-0x41]
  103225:	83 ec 04             	sub    esp,0x4
  103228:	50                   	push   eax
  103229:	ff 75 c8             	push   DWORD PTR [ebp-0x38]
  10322c:	ff 75 c4             	push   DWORD PTR [ebp-0x3c]
  10322f:	e8 5a ec ff ff       	call   101e8e <putPixel>
  103234:	83 c4 10             	add    esp,0x10
  103237:	83 45 dc 01          	add    DWORD PTR [ebp-0x24],0x1
  10323b:	8b 45 dc             	mov    eax,DWORD PTR [ebp-0x24]
  10323e:	3b 45 ec             	cmp    eax,DWORD PTR [ebp-0x14]
  103241:	7c 86                	jl     1031c9 <refresh+0x177>
  103243:	83 45 e0 01          	add    DWORD PTR [ebp-0x20],0x1
  103247:	8b 45 e0             	mov    eax,DWORD PTR [ebp-0x20]
  10324a:	3b 45 e4             	cmp    eax,DWORD PTR [ebp-0x1c]
  10324d:	0f 8c 60 ff ff ff    	jl     1031b3 <refresh+0x161>
  103253:	83 45 f4 01          	add    DWORD PTR [ebp-0xc],0x1
  103257:	8b 45 f4             	mov    eax,DWORD PTR [ebp-0xc]
  10325a:	3b 45 1c             	cmp    eax,DWORD PTR [ebp+0x1c]
  10325d:	0f 8e 80 fe ff ff    	jle    1030e3 <refresh+0x91>
  103263:	90                   	nop
  103264:	8b 5d fc             	mov    ebx,DWORD PTR [ebp-0x4]
  103267:	c9                   	leave  
  103268:	c3                   	ret    

00103269 <movexy>:
  103269:	55                   	push   ebp
  10326a:	89 e5                	mov    ebp,esp
  10326c:	56                   	push   esi
  10326d:	53                   	push   ebx
  10326e:	83 ec 10             	sub    esp,0x10
  103271:	e8 db d2 ff ff       	call   100551 <__x86.get_pc_thunk.ax>
  103276:	05 8a 0d 01 00       	add    eax,0x10d8a
  10327b:	8b 45 08             	mov    eax,DWORD PTR [ebp+0x8]
  10327e:	8b 40 0c             	mov    eax,DWORD PTR [eax+0xc]
  103281:	89 45 f4             	mov    DWORD PTR [ebp-0xc],eax
  103284:	8b 45 08             	mov    eax,DWORD PTR [ebp+0x8]
  103287:	8b 40 10             	mov    eax,DWORD PTR [eax+0x10]
  10328a:	89 45 f0             	mov    DWORD PTR [ebp-0x10],eax
  10328d:	8b 45 08             	mov    eax,DWORD PTR [ebp+0x8]
  103290:	8b 55 0c             	mov    edx,DWORD PTR [ebp+0xc]
  103293:	89 50 0c             	mov    DWORD PTR [eax+0xc],edx
  103296:	8b 45 08             	mov    eax,DWORD PTR [ebp+0x8]
  103299:	8b 55 10             	mov    edx,DWORD PTR [ebp+0x10]
  10329c:	89 50 10             	mov    DWORD PTR [eax+0x10],edx
  10329f:	8b 45 08             	mov    eax,DWORD PTR [ebp+0x8]
  1032a2:	8b 40 18             	mov    eax,DWORD PTR [eax+0x18]
  1032a5:	85 c0                	test   eax,eax
  1032a7:	0f 88 c1 00 00 00    	js     10336e <movexy+0x105>
  1032ad:	8b 45 08             	mov    eax,DWORD PTR [ebp+0x8]
  1032b0:	8b 50 08             	mov    edx,DWORD PTR [eax+0x8]
  1032b3:	8b 45 f0             	mov    eax,DWORD PTR [ebp-0x10]
  1032b6:	01 c2                	add    edx,eax
  1032b8:	8b 45 08             	mov    eax,DWORD PTR [ebp+0x8]
  1032bb:	8b 48 04             	mov    ecx,DWORD PTR [eax+0x4]
  1032be:	8b 45 f4             	mov    eax,DWORD PTR [ebp-0xc]
  1032c1:	01 c8                	add    eax,ecx
  1032c3:	6a 00                	push   0x0
  1032c5:	52                   	push   edx
  1032c6:	50                   	push   eax
  1032c7:	ff 75 f0             	push   DWORD PTR [ebp-0x10]
  1032ca:	ff 75 f4             	push   DWORD PTR [ebp-0xc]
  1032cd:	e8 91 fb ff ff       	call   102e63 <refresh_map>
  1032d2:	83 c4 14             	add    esp,0x14
  1032d5:	8b 45 08             	mov    eax,DWORD PTR [ebp+0x8]
  1032d8:	8b 40 18             	mov    eax,DWORD PTR [eax+0x18]
  1032db:	8b 55 08             	mov    edx,DWORD PTR [ebp+0x8]
  1032de:	8b 4a 08             	mov    ecx,DWORD PTR [edx+0x8]
  1032e1:	8b 55 10             	mov    edx,DWORD PTR [ebp+0x10]
  1032e4:	01 d1                	add    ecx,edx
  1032e6:	8b 55 08             	mov    edx,DWORD PTR [ebp+0x8]
  1032e9:	8b 5a 04             	mov    ebx,DWORD PTR [edx+0x4]
  1032ec:	8b 55 0c             	mov    edx,DWORD PTR [ebp+0xc]
  1032ef:	01 da                	add    edx,ebx
  1032f1:	50                   	push   eax
  1032f2:	51                   	push   ecx
  1032f3:	52                   	push   edx
  1032f4:	ff 75 10             	push   DWORD PTR [ebp+0x10]
  1032f7:	ff 75 0c             	push   DWORD PTR [ebp+0xc]
  1032fa:	e8 64 fb ff ff       	call   102e63 <refresh_map>
  1032ff:	83 c4 14             	add    esp,0x14
  103302:	8b 45 08             	mov    eax,DWORD PTR [ebp+0x8]
  103305:	8b 40 18             	mov    eax,DWORD PTR [eax+0x18]
  103308:	8d 48 ff             	lea    ecx,[eax-0x1]
  10330b:	8b 45 08             	mov    eax,DWORD PTR [ebp+0x8]
  10330e:	8b 50 08             	mov    edx,DWORD PTR [eax+0x8]
  103311:	8b 45 f0             	mov    eax,DWORD PTR [ebp-0x10]
  103314:	01 c2                	add    edx,eax
  103316:	8b 45 08             	mov    eax,DWORD PTR [ebp+0x8]
  103319:	8b 58 04             	mov    ebx,DWORD PTR [eax+0x4]
  10331c:	8b 45 f4             	mov    eax,DWORD PTR [ebp-0xc]
  10331f:	01 d8                	add    eax,ebx
  103321:	83 ec 08             	sub    esp,0x8
  103324:	51                   	push   ecx
  103325:	6a 00                	push   0x0
  103327:	52                   	push   edx
  103328:	50                   	push   eax
  103329:	ff 75 f0             	push   DWORD PTR [ebp-0x10]
  10332c:	ff 75 f4             	push   DWORD PTR [ebp-0xc]
  10332f:	e8 1e fd ff ff       	call   103052 <refresh>
  103334:	83 c4 20             	add    esp,0x20
  103337:	8b 45 08             	mov    eax,DWORD PTR [ebp+0x8]
  10333a:	8b 50 18             	mov    edx,DWORD PTR [eax+0x18]
  10333d:	8b 45 08             	mov    eax,DWORD PTR [ebp+0x8]
  103340:	8b 40 18             	mov    eax,DWORD PTR [eax+0x18]
  103343:	8b 4d 08             	mov    ecx,DWORD PTR [ebp+0x8]
  103346:	8b 59 08             	mov    ebx,DWORD PTR [ecx+0x8]
  103349:	8b 4d 10             	mov    ecx,DWORD PTR [ebp+0x10]
  10334c:	01 cb                	add    ebx,ecx
  10334e:	8b 4d 08             	mov    ecx,DWORD PTR [ebp+0x8]
  103351:	8b 71 04             	mov    esi,DWORD PTR [ecx+0x4]
  103354:	8b 4d 0c             	mov    ecx,DWORD PTR [ebp+0xc]
  103357:	01 f1                	add    ecx,esi
  103359:	83 ec 08             	sub    esp,0x8
  10335c:	52                   	push   edx
  10335d:	50                   	push   eax
  10335e:	53                   	push   ebx
  10335f:	51                   	push   ecx
  103360:	ff 75 10             	push   DWORD PTR [ebp+0x10]
  103363:	ff 75 0c             	push   DWORD PTR [ebp+0xc]
  103366:	e8 e7 fc ff ff       	call   103052 <refresh>
  10336b:	83 c4 20             	add    esp,0x20
  10336e:	90                   	nop
  10336f:	8d 65 f8             	lea    esp,[ebp-0x8]
  103372:	5b                   	pop    ebx
  103373:	5e                   	pop    esi
  103374:	5d                   	pop    ebp
  103375:	c3                   	ret    
  103376:	66 90                	xchg   ax,ax
  103378:	66 90                	xchg   ax,ax
  10337a:	66 90                	xchg   ax,ax
  10337c:	66 90                	xchg   ax,ax
  10337e:	66 90                	xchg   ax,ax

00103380 <io_hlt>:
  103380:	f4                   	hlt    

00103381 <io_sti>:
  103381:	fb                   	sti    
  103382:	c3                   	ret    

00103383 <io_cli>:
  103383:	fa                   	cli    
  103384:	c3                   	ret    

00103385 <io_load_eflags>:
  103385:	9c                   	pushf  
  103386:	58                   	pop    eax
  103387:	c3                   	ret    

00103388 <io_store_eflags>:
  103388:	8b 44 24 04          	mov    eax,DWORD PTR [esp+0x4]
  10338c:	50                   	push   eax
  10338d:	9d                   	popf   
  10338e:	c3                   	ret    

0010338f <io_load_cr0>:
  10338f:	0f 20 c0             	mov    eax,cr0
  103392:	c3                   	ret    

00103393 <io_store_cr0>:
  103393:	8b 44 24 04          	mov    eax,DWORD PTR [esp+0x4]
  103397:	0f 22 c0             	mov    cr0,eax
  10339a:	c3                   	ret    

0010339b <io_load_cr1>:
  10339b:	0f 20 c8             	mov    eax,cr1
  10339e:	c3                   	ret    

0010339f <io_store_cr1>:
  10339f:	8b 44 24 04          	mov    eax,DWORD PTR [esp+0x4]
  1033a3:	0f 22 c8             	mov    cr1,eax
  1033a6:	c3                   	ret    

001033a7 <io_load_cr2>:
  1033a7:	0f 20 d0             	mov    eax,cr2
  1033aa:	c3                   	ret    

001033ab <io_store_cr2>:
  1033ab:	8b 44 24 04          	mov    eax,DWORD PTR [esp+0x4]
  1033af:	0f 22 d0             	mov    cr2,eax
  1033b2:	c3                   	ret    

001033b3 <io_load_cr3>:
  1033b3:	0f 20 d8             	mov    eax,cr3
  1033b6:	c3                   	ret    

001033b7 <io_store_cr3>:
  1033b7:	8b 44 24 04          	mov    eax,DWORD PTR [esp+0x4]
  1033bb:	0f 22 d8             	mov    cr3,eax
  1033be:	c3                   	ret    

001033bf <in8>:
  1033bf:	8b 54 24 04          	mov    edx,DWORD PTR [esp+0x4]
  1033c3:	b8 00 00 00 00       	mov    eax,0x0
  1033c8:	ec                   	in     al,dx
  1033c9:	c3                   	ret    

001033ca <in16>:
  1033ca:	8b 54 24 04          	mov    edx,DWORD PTR [esp+0x4]
  1033ce:	b8 00 00 00 00       	mov    eax,0x0
  1033d3:	66 ed                	in     ax,dx
  1033d5:	c3                   	ret    

001033d6 <in32>:
  1033d6:	8b 54 24 04          	mov    edx,DWORD PTR [esp+0x4]
  1033da:	ed                   	in     eax,dx
  1033db:	c3                   	ret    

001033dc <out8>:
  1033dc:	8b 54 24 04          	mov    edx,DWORD PTR [esp+0x4]
  1033e0:	8a 44 24 08          	mov    al,BYTE PTR [esp+0x8]
  1033e4:	ee                   	out    dx,al
  1033e5:	c3                   	ret    

001033e6 <out16>:
  1033e6:	8b 54 24 04          	mov    edx,DWORD PTR [esp+0x4]
  1033ea:	66 8b 44 24 08       	mov    ax,WORD PTR [esp+0x8]
  1033ef:	66 ef                	out    dx,ax
  1033f1:	c3                   	ret    

001033f2 <out32>:
  1033f2:	8b 54 24 04          	mov    edx,DWORD PTR [esp+0x4]
  1033f6:	8b 44 24 08          	mov    eax,DWORD PTR [esp+0x8]
  1033fa:	ef                   	out    dx,eax
  1033fb:	c3                   	ret    
  1033fc:	66 90                	xchg   ax,ax
  1033fe:	66 90                	xchg   ax,ax

00103400 <memcpy>:
  103400:	55                   	push   ebp
  103401:	89 e5                	mov    ebp,esp
  103403:	56                   	push   esi
  103404:	57                   	push   edi
  103405:	51                   	push   ecx
  103406:	8b 7d 08             	mov    edi,DWORD PTR [ebp+0x8]
  103409:	8b 75 0c             	mov    esi,DWORD PTR [ebp+0xc]
  10340c:	8b 4d 10             	mov    ecx,DWORD PTR [ebp+0x10]

0010340f <memcpy.1>:
  10340f:	83 f9 00             	cmp    ecx,0x0
  103412:	74 0b                	je     10341f <memcpy.2>
  103414:	3e 8a 06             	mov    al,BYTE PTR ds:[esi]
  103417:	46                   	inc    esi
  103418:	26 88 07             	mov    BYTE PTR es:[edi],al
  10341b:	47                   	inc    edi
  10341c:	49                   	dec    ecx
  10341d:	eb f0                	jmp    10340f <memcpy.1>

0010341f <memcpy.2>:
  10341f:	8b 45 08             	mov    eax,DWORD PTR [ebp+0x8]
  103422:	59                   	pop    ecx
  103423:	5f                   	pop    edi
  103424:	5e                   	pop    esi
  103425:	89 ec                	mov    esp,ebp
  103427:	5d                   	pop    ebp
  103428:	c3                   	ret    

00103429 <memset>:
  103429:	55                   	push   ebp
  10342a:	89 e5                	mov    ebp,esp
  10342c:	56                   	push   esi
  10342d:	57                   	push   edi
  10342e:	51                   	push   ecx
  10342f:	8b 7d 08             	mov    edi,DWORD PTR [ebp+0x8]
  103432:	8b 55 0c             	mov    edx,DWORD PTR [ebp+0xc]
  103435:	8b 4d 10             	mov    ecx,DWORD PTR [ebp+0x10]

00103438 <memset.1>:
  103438:	83 f9 00             	cmp    ecx,0x0
  10343b:	74 06                	je     103443 <memset.2>
  10343d:	88 17                	mov    BYTE PTR [edi],dl
  10343f:	47                   	inc    edi
  103440:	49                   	dec    ecx
  103441:	eb f5                	jmp    103438 <memset.1>

00103443 <memset.2>:
  103443:	59                   	pop    ecx
  103444:	5f                   	pop    edi
  103445:	5e                   	pop    esi
  103446:	89 ec                	mov    esp,ebp
  103448:	5d                   	pop    ebp
  103449:	c3                   	ret    

0010344a <strcpy>:
  10344a:	55                   	push   ebp
  10344b:	89 e5                	mov    ebp,esp
  10344d:	8b 75 0c             	mov    esi,DWORD PTR [ebp+0xc]
  103450:	8b 7d 08             	mov    edi,DWORD PTR [ebp+0x8]

00103453 <strcpy.1>:
  103453:	8a 06                	mov    al,BYTE PTR [esi]
  103455:	46                   	inc    esi
  103456:	88 07                	mov    BYTE PTR [edi],al
  103458:	47                   	inc    edi
  103459:	3c 00                	cmp    al,0x0
  10345b:	75 f6                	jne    103453 <strcpy.1>
  10345d:	8b 45 08             	mov    eax,DWORD PTR [ebp+0x8]
  103460:	5d                   	pop    ebp
  103461:	c3                   	ret    

00103462 <strlen>:
  103462:	55                   	push   ebp
  103463:	89 e5                	mov    ebp,esp
  103465:	b8 00 00 00 00       	mov    eax,0x0
  10346a:	8b 75 08             	mov    esi,DWORD PTR [ebp+0x8]

0010346d <strlen.1>:
  10346d:	80 3e 00             	cmp    BYTE PTR [esi],0x0
  103470:	74 04                	je     103476 <strlen.2>
  103472:	46                   	inc    esi
  103473:	40                   	inc    eax
  103474:	eb f7                	jmp    10346d <strlen.1>

00103476 <strlen.2>:
  103476:	5d                   	pop    ebp
  103477:	c3                   	ret    

00103478 <itoa>:
  103478:	55                   	push   ebp
  103479:	89 e5                	mov    ebp,esp
  10347b:	83 ec 10             	sub    esp,0x10
  10347e:	e8 86 00 00 00       	call   103509 <__x86.get_pc_thunk.cx>
  103483:	81 c1 7d 0b 01 00    	add    ecx,0x10b7d
  103489:	c7 45 fc 00 00 00 00 	mov    DWORD PTR [ebp-0x4],0x0
  103490:	8d 81 22 0a 00 00    	lea    eax,[ecx+0xa22]
  103496:	89 45 f8             	mov    DWORD PTR [ebp-0x8],eax
  103499:	83 6d f8 01          	sub    DWORD PTR [ebp-0x8],0x1
  10349d:	8b 45 f8             	mov    eax,DWORD PTR [ebp-0x8]
  1034a0:	c6 00 00             	mov    BYTE PTR [eax],0x0
  1034a3:	83 7d 08 00          	cmp    DWORD PTR [ebp+0x8],0x0
  1034a7:	79 0c                	jns    1034b5 <itoa+0x3d>
  1034a9:	c7 45 fc 01 00 00 00 	mov    DWORD PTR [ebp-0x4],0x1
  1034b0:	f7 5d 08             	neg    DWORD PTR [ebp+0x8]
  1034b3:	eb 39                	jmp    1034ee <itoa+0x76>
  1034b5:	83 7d 08 00          	cmp    DWORD PTR [ebp+0x8],0x0
  1034b9:	75 33                	jne    1034ee <itoa+0x76>
  1034bb:	83 6d f8 01          	sub    DWORD PTR [ebp-0x8],0x1
  1034bf:	8b 45 f8             	mov    eax,DWORD PTR [ebp-0x8]
  1034c2:	c6 00 30             	mov    BYTE PTR [eax],0x30
  1034c5:	8b 45 f8             	mov    eax,DWORD PTR [ebp-0x8]
  1034c8:	eb 3d                	jmp    103507 <itoa+0x8f>
  1034ca:	8b 45 08             	mov    eax,DWORD PTR [ebp+0x8]
  1034cd:	99                   	cdq    
  1034ce:	f7 7d 0c             	idiv   DWORD PTR [ebp+0xc]
  1034d1:	89 d0                	mov    eax,edx
  1034d3:	83 6d f8 01          	sub    DWORD PTR [ebp-0x8],0x1
  1034d7:	0f b6 94 01 10 07 ff 	movzx  edx,BYTE PTR [ecx+eax*1-0xf8f0]
  1034de:	ff 
  1034df:	8b 45 f8             	mov    eax,DWORD PTR [ebp-0x8]
  1034e2:	88 10                	mov    BYTE PTR [eax],dl
  1034e4:	8b 45 08             	mov    eax,DWORD PTR [ebp+0x8]
  1034e7:	99                   	cdq    
  1034e8:	f7 7d 0c             	idiv   DWORD PTR [ebp+0xc]
  1034eb:	89 45 08             	mov    DWORD PTR [ebp+0x8],eax
  1034ee:	83 7d 08 00          	cmp    DWORD PTR [ebp+0x8],0x0
  1034f2:	75 d6                	jne    1034ca <itoa+0x52>
  1034f4:	83 7d fc 00          	cmp    DWORD PTR [ebp-0x4],0x0
  1034f8:	74 0a                	je     103504 <itoa+0x8c>
  1034fa:	83 6d f8 01          	sub    DWORD PTR [ebp-0x8],0x1
  1034fe:	8b 45 f8             	mov    eax,DWORD PTR [ebp-0x8]
  103501:	c6 00 2d             	mov    BYTE PTR [eax],0x2d
  103504:	8b 45 f8             	mov    eax,DWORD PTR [ebp-0x8]
  103507:	c9                   	leave  
  103508:	c3                   	ret    

00103509 <__x86.get_pc_thunk.cx>:
  103509:	8b 0c 24             	mov    ecx,DWORD PTR [esp]
  10350c:	c3                   	ret    

0010350d <bga_write_register>:
  10350d:	55                   	push   ebp
  10350e:	89 e5                	mov    ebp,esp
  103510:	53                   	push   ebx
  103511:	83 ec 14             	sub    esp,0x14
  103514:	e8 3c d0 ff ff       	call   100555 <__x86.get_pc_thunk.bx>
  103519:	81 c3 e7 0a 01 00    	add    ebx,0x10ae7
  10351f:	8b 55 08             	mov    edx,DWORD PTR [ebp+0x8]
  103522:	8b 45 0c             	mov    eax,DWORD PTR [ebp+0xc]
  103525:	66 89 55 f4          	mov    WORD PTR [ebp-0xc],dx
  103529:	66 89 45 f0          	mov    WORD PTR [ebp-0x10],ax
  10352d:	0f b7 45 f4          	movzx  eax,WORD PTR [ebp-0xc]
  103531:	83 ec 08             	sub    esp,0x8
  103534:	50                   	push   eax
  103535:	68 ce 01 00 00       	push   0x1ce
  10353a:	e8 a7 fe ff ff       	call   1033e6 <out16>
  10353f:	83 c4 10             	add    esp,0x10
  103542:	0f b7 45 f0          	movzx  eax,WORD PTR [ebp-0x10]
  103546:	83 ec 08             	sub    esp,0x8
  103549:	50                   	push   eax
  10354a:	68 cf 01 00 00       	push   0x1cf
  10354f:	e8 92 fe ff ff       	call   1033e6 <out16>
  103554:	83 c4 10             	add    esp,0x10
  103557:	90                   	nop
  103558:	8b 5d fc             	mov    ebx,DWORD PTR [ebp-0x4]
  10355b:	c9                   	leave  
  10355c:	c3                   	ret    

0010355d <bga_read_register>:
  10355d:	55                   	push   ebp
  10355e:	89 e5                	mov    ebp,esp
  103560:	53                   	push   ebx
  103561:	83 ec 14             	sub    esp,0x14
  103564:	e8 ec cf ff ff       	call   100555 <__x86.get_pc_thunk.bx>
  103569:	81 c3 97 0a 01 00    	add    ebx,0x10a97
  10356f:	8b 45 08             	mov    eax,DWORD PTR [ebp+0x8]
  103572:	66 89 45 f4          	mov    WORD PTR [ebp-0xc],ax
  103576:	0f b7 45 f4          	movzx  eax,WORD PTR [ebp-0xc]
  10357a:	83 ec 08             	sub    esp,0x8
  10357d:	50                   	push   eax
  10357e:	68 ce 01 00 00       	push   0x1ce
  103583:	e8 5e fe ff ff       	call   1033e6 <out16>
  103588:	83 c4 10             	add    esp,0x10
  10358b:	83 ec 0c             	sub    esp,0xc
  10358e:	68 cf 01 00 00       	push   0x1cf
  103593:	e8 32 fe ff ff       	call   1033ca <in16>
  103598:	83 c4 10             	add    esp,0x10
  10359b:	8b 5d fc             	mov    ebx,DWORD PTR [ebp-0x4]
  10359e:	c9                   	leave  
  10359f:	c3                   	ret    

001035a0 <bga_set_video_mode>:
  1035a0:	55                   	push   ebp
  1035a1:	89 e5                	mov    ebp,esp
  1035a3:	83 ec 08             	sub    esp,0x8
  1035a6:	e8 a6 cf ff ff       	call   100551 <__x86.get_pc_thunk.ax>
  1035ab:	05 55 0a 01 00       	add    eax,0x10a55
  1035b0:	83 ec 08             	sub    esp,0x8
  1035b3:	6a 00                	push   0x0
  1035b5:	6a 04                	push   0x4
  1035b7:	e8 51 ff ff ff       	call   10350d <bga_write_register>
  1035bc:	83 c4 10             	add    esp,0x10
  1035bf:	8b 45 08             	mov    eax,DWORD PTR [ebp+0x8]
  1035c2:	0f b7 c0             	movzx  eax,ax
  1035c5:	83 ec 08             	sub    esp,0x8
  1035c8:	50                   	push   eax
  1035c9:	6a 01                	push   0x1
  1035cb:	e8 3d ff ff ff       	call   10350d <bga_write_register>
  1035d0:	83 c4 10             	add    esp,0x10
  1035d3:	8b 45 0c             	mov    eax,DWORD PTR [ebp+0xc]
  1035d6:	0f b7 c0             	movzx  eax,ax
  1035d9:	83 ec 08             	sub    esp,0x8
  1035dc:	50                   	push   eax
  1035dd:	6a 02                	push   0x2
  1035df:	e8 29 ff ff ff       	call   10350d <bga_write_register>
  1035e4:	83 c4 10             	add    esp,0x10
  1035e7:	8b 45 10             	mov    eax,DWORD PTR [ebp+0x10]
  1035ea:	0f b7 c0             	movzx  eax,ax
  1035ed:	83 ec 08             	sub    esp,0x8
  1035f0:	50                   	push   eax
  1035f1:	6a 03                	push   0x3
  1035f3:	e8 15 ff ff ff       	call   10350d <bga_write_register>
  1035f8:	83 c4 10             	add    esp,0x10
  1035fb:	83 7d 14 00          	cmp    DWORD PTR [ebp+0x14],0x0
  1035ff:	74 07                	je     103608 <bga_set_video_mode+0x68>
  103601:	ba 41 00 00 00       	mov    edx,0x41
  103606:	eb 05                	jmp    10360d <bga_set_video_mode+0x6d>
  103608:	ba 01 00 00 00       	mov    edx,0x1
  10360d:	83 7d 18 00          	cmp    DWORD PTR [ebp+0x18],0x0
  103611:	74 07                	je     10361a <bga_set_video_mode+0x7a>
  103613:	b8 00 00 00 00       	mov    eax,0x0
  103618:	eb 05                	jmp    10361f <bga_set_video_mode+0x7f>
  10361a:	b8 80 00 00 00       	mov    eax,0x80
  10361f:	09 d0                	or     eax,edx
  103621:	0f b7 c0             	movzx  eax,ax
  103624:	83 ec 08             	sub    esp,0x8
  103627:	50                   	push   eax
  103628:	6a 04                	push   0x4
  10362a:	e8 de fe ff ff       	call   10350d <bga_write_register>
  10362f:	83 c4 10             	add    esp,0x10
  103632:	90                   	nop
  103633:	c9                   	leave  
  103634:	c3                   	ret    

00103635 <bga_set_bank>:
  103635:	55                   	push   ebp
  103636:	89 e5                	mov    ebp,esp
  103638:	53                   	push   ebx
  103639:	83 ec 14             	sub    esp,0x14
  10363c:	e8 14 cf ff ff       	call   100555 <__x86.get_pc_thunk.bx>
  103641:	81 c3 bf 09 01 00    	add    ebx,0x109bf
  103647:	8b 45 08             	mov    eax,DWORD PTR [ebp+0x8]
  10364a:	66 89 45 f4          	mov    WORD PTR [ebp-0xc],ax
  10364e:	0f b7 55 f4          	movzx  edx,WORD PTR [ebp-0xc]
  103652:	c7 c0 a4 ee 15 00    	mov    eax,0x15eea4
  103658:	89 10                	mov    DWORD PTR [eax],edx
  10365a:	c7 c0 a4 ee 15 00    	mov    eax,0x15eea4
  103660:	8b 00                	mov    eax,DWORD PTR [eax]
  103662:	ba 00 00 01 00       	mov    edx,0x10000
  103667:	0f af d0             	imul   edx,eax
  10366a:	c7 c0 a8 ee 15 00    	mov    eax,0x15eea8
  103670:	89 10                	mov    DWORD PTR [eax],edx
  103672:	c7 c0 a8 ee 15 00    	mov    eax,0x15eea8
  103678:	8b 00                	mov    eax,DWORD PTR [eax]
  10367a:	ba 00 00 01 00       	mov    edx,0x10000
  10367f:	01 c2                	add    edx,eax
  103681:	c7 c0 a0 ee 15 00    	mov    eax,0x15eea0
  103687:	89 10                	mov    DWORD PTR [eax],edx
  103689:	e8 f5 fc ff ff       	call   103383 <io_cli>
  10368e:	0f b7 45 f4          	movzx  eax,WORD PTR [ebp-0xc]
  103692:	83 ec 08             	sub    esp,0x8
  103695:	50                   	push   eax
  103696:	6a 05                	push   0x5
  103698:	e8 70 fe ff ff       	call   10350d <bga_write_register>
  10369d:	83 c4 10             	add    esp,0x10
  1036a0:	e8 dc fc ff ff       	call   103381 <io_sti>
  1036a5:	90                   	nop
  1036a6:	8b 5d fc             	mov    ebx,DWORD PTR [ebp-0x4]
  1036a9:	c9                   	leave  
  1036aa:	c3                   	ret    

001036ab <fifo_init>:
  1036ab:	55                   	push   ebp
  1036ac:	89 e5                	mov    ebp,esp
  1036ae:	e8 9e ce ff ff       	call   100551 <__x86.get_pc_thunk.ax>
  1036b3:	05 4d 09 01 00       	add    eax,0x1094d
  1036b8:	8b 45 08             	mov    eax,DWORD PTR [ebp+0x8]
  1036bb:	8b 55 10             	mov    edx,DWORD PTR [ebp+0x10]
  1036be:	89 10                	mov    DWORD PTR [eax],edx
  1036c0:	8b 45 08             	mov    eax,DWORD PTR [ebp+0x8]
  1036c3:	8b 55 10             	mov    edx,DWORD PTR [ebp+0x10]
  1036c6:	89 50 04             	mov    DWORD PTR [eax+0x4],edx
  1036c9:	8b 45 08             	mov    eax,DWORD PTR [ebp+0x8]
  1036cc:	8b 55 10             	mov    edx,DWORD PTR [ebp+0x10]
  1036cf:	89 50 08             	mov    DWORD PTR [eax+0x8],edx
  1036d2:	8b 45 08             	mov    eax,DWORD PTR [ebp+0x8]
  1036d5:	8b 55 0c             	mov    edx,DWORD PTR [ebp+0xc]
  1036d8:	89 50 0c             	mov    DWORD PTR [eax+0xc],edx
  1036db:	8b 45 08             	mov    eax,DWORD PTR [ebp+0x8]
  1036de:	c7 40 10 00 00 00 00 	mov    DWORD PTR [eax+0x10],0x0
  1036e5:	8b 45 08             	mov    eax,DWORD PTR [ebp+0x8]
  1036e8:	c7 40 14 00 00 00 00 	mov    DWORD PTR [eax+0x14],0x0
  1036ef:	90                   	nop
  1036f0:	5d                   	pop    ebp
  1036f1:	c3                   	ret    

001036f2 <fifo_push>:
  1036f2:	55                   	push   ebp
  1036f3:	89 e5                	mov    ebp,esp
  1036f5:	83 ec 04             	sub    esp,0x4
  1036f8:	e8 54 ce ff ff       	call   100551 <__x86.get_pc_thunk.ax>
  1036fd:	05 03 09 01 00       	add    eax,0x10903
  103702:	8b 45 0c             	mov    eax,DWORD PTR [ebp+0xc]
  103705:	88 45 fc             	mov    BYTE PTR [ebp-0x4],al
  103708:	8b 45 08             	mov    eax,DWORD PTR [ebp+0x8]
  10370b:	8b 50 10             	mov    edx,DWORD PTR [eax+0x10]
  10370e:	8b 45 08             	mov    eax,DWORD PTR [ebp+0x8]
  103711:	8b 40 0c             	mov    eax,DWORD PTR [eax+0xc]
  103714:	39 c2                	cmp    edx,eax
  103716:	7c 18                	jl     103730 <fifo_push+0x3e>
  103718:	8b 45 08             	mov    eax,DWORD PTR [ebp+0x8]
  10371b:	8b 40 14             	mov    eax,DWORD PTR [eax+0x14]
  10371e:	83 c8 01             	or     eax,0x1
  103721:	89 c2                	mov    edx,eax
  103723:	8b 45 08             	mov    eax,DWORD PTR [ebp+0x8]
  103726:	89 50 14             	mov    DWORD PTR [eax+0x14],edx
  103729:	b8 ff ff ff ff       	mov    eax,0xffffffff
  10372e:	eb 4b                	jmp    10377b <fifo_push+0x89>
  103730:	8b 45 08             	mov    eax,DWORD PTR [ebp+0x8]
  103733:	8b 40 04             	mov    eax,DWORD PTR [eax+0x4]
  103736:	8d 48 01             	lea    ecx,[eax+0x1]
  103739:	8b 55 08             	mov    edx,DWORD PTR [ebp+0x8]
  10373c:	89 4a 04             	mov    DWORD PTR [edx+0x4],ecx
  10373f:	0f b6 55 fc          	movzx  edx,BYTE PTR [ebp-0x4]
  103743:	88 10                	mov    BYTE PTR [eax],dl
  103745:	8b 45 08             	mov    eax,DWORD PTR [ebp+0x8]
  103748:	8b 50 04             	mov    edx,DWORD PTR [eax+0x4]
  10374b:	8b 45 08             	mov    eax,DWORD PTR [ebp+0x8]
  10374e:	8b 08                	mov    ecx,DWORD PTR [eax]
  103750:	8b 45 08             	mov    eax,DWORD PTR [ebp+0x8]
  103753:	8b 40 0c             	mov    eax,DWORD PTR [eax+0xc]
  103756:	01 c8                	add    eax,ecx
  103758:	39 c2                	cmp    edx,eax
  10375a:	75 0b                	jne    103767 <fifo_push+0x75>
  10375c:	8b 45 08             	mov    eax,DWORD PTR [ebp+0x8]
  10375f:	8b 10                	mov    edx,DWORD PTR [eax]
  103761:	8b 45 08             	mov    eax,DWORD PTR [ebp+0x8]
  103764:	89 50 04             	mov    DWORD PTR [eax+0x4],edx
  103767:	8b 45 08             	mov    eax,DWORD PTR [ebp+0x8]
  10376a:	8b 40 10             	mov    eax,DWORD PTR [eax+0x10]
  10376d:	8d 50 01             	lea    edx,[eax+0x1]
  103770:	8b 45 08             	mov    eax,DWORD PTR [ebp+0x8]
  103773:	89 50 10             	mov    DWORD PTR [eax+0x10],edx
  103776:	b8 00 00 00 00       	mov    eax,0x0
  10377b:	c9                   	leave  
  10377c:	c3                   	ret    

0010377d <fifo_pop>:
  10377d:	55                   	push   ebp
  10377e:	89 e5                	mov    ebp,esp
  103780:	83 ec 10             	sub    esp,0x10
  103783:	e8 c9 cd ff ff       	call   100551 <__x86.get_pc_thunk.ax>
  103788:	05 78 08 01 00       	add    eax,0x10878
  10378d:	8b 45 08             	mov    eax,DWORD PTR [ebp+0x8]
  103790:	8b 40 10             	mov    eax,DWORD PTR [eax+0x10]
  103793:	85 c0                	test   eax,eax
  103795:	75 07                	jne    10379e <fifo_pop+0x21>
  103797:	b8 ff ff ff ff       	mov    eax,0xffffffff
  10379c:	eb 4c                	jmp    1037ea <fifo_pop+0x6d>
  10379e:	8b 45 08             	mov    eax,DWORD PTR [ebp+0x8]
  1037a1:	8b 40 08             	mov    eax,DWORD PTR [eax+0x8]
  1037a4:	8d 48 01             	lea    ecx,[eax+0x1]
  1037a7:	8b 55 08             	mov    edx,DWORD PTR [ebp+0x8]
  1037aa:	89 4a 08             	mov    DWORD PTR [edx+0x8],ecx
  1037ad:	0f b6 00             	movzx  eax,BYTE PTR [eax]
  1037b0:	0f b6 c0             	movzx  eax,al
  1037b3:	89 45 fc             	mov    DWORD PTR [ebp-0x4],eax
  1037b6:	8b 45 08             	mov    eax,DWORD PTR [ebp+0x8]
  1037b9:	8b 50 08             	mov    edx,DWORD PTR [eax+0x8]
  1037bc:	8b 45 08             	mov    eax,DWORD PTR [ebp+0x8]
  1037bf:	8b 08                	mov    ecx,DWORD PTR [eax]
  1037c1:	8b 45 08             	mov    eax,DWORD PTR [ebp+0x8]
  1037c4:	8b 40 0c             	mov    eax,DWORD PTR [eax+0xc]
  1037c7:	01 c8                	add    eax,ecx
  1037c9:	39 c2                	cmp    edx,eax
  1037cb:	75 0b                	jne    1037d8 <fifo_pop+0x5b>
  1037cd:	8b 45 08             	mov    eax,DWORD PTR [ebp+0x8]
  1037d0:	8b 10                	mov    edx,DWORD PTR [eax]
  1037d2:	8b 45 08             	mov    eax,DWORD PTR [ebp+0x8]
  1037d5:	89 50 08             	mov    DWORD PTR [eax+0x8],edx
  1037d8:	8b 45 08             	mov    eax,DWORD PTR [ebp+0x8]
  1037db:	8b 40 10             	mov    eax,DWORD PTR [eax+0x10]
  1037de:	8d 50 ff             	lea    edx,[eax-0x1]
  1037e1:	8b 45 08             	mov    eax,DWORD PTR [ebp+0x8]
  1037e4:	89 50 10             	mov    DWORD PTR [eax+0x10],edx
  1037e7:	8b 45 fc             	mov    eax,DWORD PTR [ebp-0x4]
  1037ea:	c9                   	leave  
  1037eb:	c3                   	ret    

001037ec <mm_init>:
  1037ec:	55                   	push   ebp
  1037ed:	89 e5                	mov    ebp,esp
  1037ef:	53                   	push   ebx
  1037f0:	83 ec 34             	sub    esp,0x34
  1037f3:	e8 5d cd ff ff       	call   100555 <__x86.get_pc_thunk.bx>
  1037f8:	81 c3 08 08 01 00    	add    ebx,0x10808
  1037fe:	8b 83 c4 01 00 00    	mov    eax,DWORD PTR [ebx+0x1c4]
  103804:	c7 00 00 00 00 00    	mov    DWORD PTR [eax],0x0
  10380a:	8b 83 c4 01 00 00    	mov    eax,DWORD PTR [ebx+0x1c4]
  103810:	c7 40 04 00 00 00 00 	mov    DWORD PTR [eax+0x4],0x0
  103817:	8b 83 c4 01 00 00    	mov    eax,DWORD PTR [ebx+0x1c4]
  10381d:	c7 40 08 00 00 00 00 	mov    DWORD PTR [eax+0x8],0x0
  103824:	8b 83 c4 01 00 00    	mov    eax,DWORD PTR [ebx+0x1c4]
  10382a:	c7 40 0c 00 00 00 00 	mov    DWORD PTR [eax+0xc],0x0
  103831:	c7 45 f4 00 00 00 00 	mov    DWORD PTR [ebp-0xc],0x0
  103838:	c7 45 f0 00 00 00 00 	mov    DWORD PTR [ebp-0x10],0x0
  10383f:	c7 45 ec 00 00 00 00 	mov    DWORD PTR [ebp-0x14],0x0
  103846:	c7 c0 ac ee 15 00    	mov    eax,0x15eeac
  10384c:	8b 00                	mov    eax,DWORD PTR [eax]
  10384e:	89 45 e0             	mov    DWORD PTR [ebp-0x20],eax
  103851:	c7 c0 ac ee 15 00    	mov    eax,0x15eeac
  103857:	8b 00                	mov    eax,DWORD PTR [eax]
  103859:	83 c0 04             	add    eax,0x4
  10385c:	89 45 e8             	mov    DWORD PTR [ebp-0x18],eax
  10385f:	8b 45 e0             	mov    eax,DWORD PTR [ebp-0x20]
  103862:	8b 00                	mov    eax,DWORD PTR [eax]
  103864:	89 45 dc             	mov    DWORD PTR [ebp-0x24],eax
  103867:	c7 45 e4 00 00 00 00 	mov    DWORD PTR [ebp-0x1c],0x0
  10386e:	eb 48                	jmp    1038b8 <mm_init+0xcc>
  103870:	83 ec 04             	sub    esp,0x4
  103873:	6a 14                	push   0x14
  103875:	ff 75 e8             	push   DWORD PTR [ebp-0x18]
  103878:	8d 45 c8             	lea    eax,[ebp-0x38]
  10387b:	50                   	push   eax
  10387c:	e8 7f fb ff ff       	call   103400 <memcpy>
  103881:	83 c4 10             	add    esp,0x10
  103884:	83 45 e8 14          	add    DWORD PTR [ebp-0x18],0x14
  103888:	8b 45 d0             	mov    eax,DWORD PTR [ebp-0x30]
  10388b:	01 45 f4             	add    DWORD PTR [ebp-0xc],eax
  10388e:	8b 45 d8             	mov    eax,DWORD PTR [ebp-0x28]
  103891:	83 f8 01             	cmp    eax,0x1
  103894:	75 1e                	jne    1038b4 <mm_init+0xc8>
  103896:	8b 45 d0             	mov    eax,DWORD PTR [ebp-0x30]
  103899:	01 45 ec             	add    DWORD PTR [ebp-0x14],eax
  10389c:	8b 55 c8             	mov    edx,DWORD PTR [ebp-0x38]
  10389f:	8b 45 d0             	mov    eax,DWORD PTR [ebp-0x30]
  1038a2:	01 d0                	add    eax,edx
  1038a4:	39 45 f0             	cmp    DWORD PTR [ebp-0x10],eax
  1038a7:	73 0b                	jae    1038b4 <mm_init+0xc8>
  1038a9:	8b 55 c8             	mov    edx,DWORD PTR [ebp-0x38]
  1038ac:	8b 45 d0             	mov    eax,DWORD PTR [ebp-0x30]
  1038af:	01 d0                	add    eax,edx
  1038b1:	89 45 f0             	mov    DWORD PTR [ebp-0x10],eax
  1038b4:	83 45 e4 01          	add    DWORD PTR [ebp-0x1c],0x1
  1038b8:	8b 45 e4             	mov    eax,DWORD PTR [ebp-0x1c]
  1038bb:	3b 45 dc             	cmp    eax,DWORD PTR [ebp-0x24]
  1038be:	72 b0                	jb     103870 <mm_init+0x84>
  1038c0:	8b 45 f0             	mov    eax,DWORD PTR [ebp-0x10]
  1038c3:	2d 00 00 40 00       	sub    eax,0x400000
  1038c8:	83 ec 08             	sub    esp,0x8
  1038cb:	50                   	push   eax
  1038cc:	68 00 00 40 00       	push   0x400000
  1038d1:	e8 69 01 00 00       	call   103a3f <mm_free>
  1038d6:	83 c4 10             	add    esp,0x10
  1038d9:	8b 45 f4             	mov    eax,DWORD PTR [ebp-0xc]
  1038dc:	8b 5d fc             	mov    ebx,DWORD PTR [ebp-0x4]
  1038df:	c9                   	leave  
  1038e0:	c3                   	ret    

001038e1 <mm_total>:
  1038e1:	55                   	push   ebp
  1038e2:	89 e5                	mov    ebp,esp
  1038e4:	83 ec 10             	sub    esp,0x10
  1038e7:	e8 65 cc ff ff       	call   100551 <__x86.get_pc_thunk.ax>
  1038ec:	05 14 07 01 00       	add    eax,0x10714
  1038f1:	c7 45 f8 00 00 00 00 	mov    DWORD PTR [ebp-0x8],0x0
  1038f8:	c7 45 fc 00 00 00 00 	mov    DWORD PTR [ebp-0x4],0x0
  1038ff:	eb 17                	jmp    103918 <mm_total+0x37>
  103901:	8b 90 c4 01 00 00    	mov    edx,DWORD PTR [eax+0x1c4]
  103907:	8b 4d fc             	mov    ecx,DWORD PTR [ebp-0x4]
  10390a:	83 c1 02             	add    ecx,0x2
  10390d:	8b 54 ca 04          	mov    edx,DWORD PTR [edx+ecx*8+0x4]
  103911:	01 55 f8             	add    DWORD PTR [ebp-0x8],edx
  103914:	83 45 fc 01          	add    DWORD PTR [ebp-0x4],0x1
  103918:	8b 90 c4 01 00 00    	mov    edx,DWORD PTR [eax+0x1c4]
  10391e:	8b 12                	mov    edx,DWORD PTR [edx]
  103920:	39 55 fc             	cmp    DWORD PTR [ebp-0x4],edx
  103923:	72 dc                	jb     103901 <mm_total+0x20>
  103925:	8b 45 f8             	mov    eax,DWORD PTR [ebp-0x8]
  103928:	c9                   	leave  
  103929:	c3                   	ret    

0010392a <mm_alloc>:
  10392a:	55                   	push   ebp
  10392b:	89 e5                	mov    ebp,esp
  10392d:	57                   	push   edi
  10392e:	56                   	push   esi
  10392f:	53                   	push   ebx
  103930:	83 ec 10             	sub    esp,0x10
  103933:	e8 19 cc ff ff       	call   100551 <__x86.get_pc_thunk.ax>
  103938:	05 c8 06 01 00       	add    eax,0x106c8
  10393d:	c7 45 f0 00 00 00 00 	mov    DWORD PTR [ebp-0x10],0x0
  103944:	e9 d8 00 00 00       	jmp    103a21 <mm_alloc+0xf7>
  103949:	8b 90 c4 01 00 00    	mov    edx,DWORD PTR [eax+0x1c4]
  10394f:	8b 4d f0             	mov    ecx,DWORD PTR [ebp-0x10]
  103952:	83 c1 02             	add    ecx,0x2
  103955:	8b 54 ca 04          	mov    edx,DWORD PTR [edx+ecx*8+0x4]
  103959:	39 55 08             	cmp    DWORD PTR [ebp+0x8],edx
  10395c:	0f 87 bb 00 00 00    	ja     103a1d <mm_alloc+0xf3>
  103962:	8b 90 c4 01 00 00    	mov    edx,DWORD PTR [eax+0x1c4]
  103968:	8b 4d f0             	mov    ecx,DWORD PTR [ebp-0x10]
  10396b:	83 c1 02             	add    ecx,0x2
  10396e:	8b 14 ca             	mov    edx,DWORD PTR [edx+ecx*8]
  103971:	89 55 ec             	mov    DWORD PTR [ebp-0x14],edx
  103974:	8b 90 c4 01 00 00    	mov    edx,DWORD PTR [eax+0x1c4]
  10397a:	8b 4d f0             	mov    ecx,DWORD PTR [ebp-0x10]
  10397d:	83 c1 02             	add    ecx,0x2
  103980:	8b 1c ca             	mov    ebx,DWORD PTR [edx+ecx*8]
  103983:	8b 90 c4 01 00 00    	mov    edx,DWORD PTR [eax+0x1c4]
  103989:	8b 4d 08             	mov    ecx,DWORD PTR [ebp+0x8]
  10398c:	01 cb                	add    ebx,ecx
  10398e:	8b 4d f0             	mov    ecx,DWORD PTR [ebp-0x10]
  103991:	83 c1 02             	add    ecx,0x2
  103994:	89 1c ca             	mov    DWORD PTR [edx+ecx*8],ebx
  103997:	8b 90 c4 01 00 00    	mov    edx,DWORD PTR [eax+0x1c4]
  10399d:	8b 4d f0             	mov    ecx,DWORD PTR [ebp-0x10]
  1039a0:	83 c1 02             	add    ecx,0x2
  1039a3:	8b 4c ca 04          	mov    ecx,DWORD PTR [edx+ecx*8+0x4]
  1039a7:	8b 90 c4 01 00 00    	mov    edx,DWORD PTR [eax+0x1c4]
  1039ad:	2b 4d 08             	sub    ecx,DWORD PTR [ebp+0x8]
  1039b0:	8b 5d f0             	mov    ebx,DWORD PTR [ebp-0x10]
  1039b3:	83 c3 02             	add    ebx,0x2
  1039b6:	89 4c da 04          	mov    DWORD PTR [edx+ebx*8+0x4],ecx
  1039ba:	8b 90 c4 01 00 00    	mov    edx,DWORD PTR [eax+0x1c4]
  1039c0:	8b 4d f0             	mov    ecx,DWORD PTR [ebp-0x10]
  1039c3:	83 c1 02             	add    ecx,0x2
  1039c6:	8b 54 ca 04          	mov    edx,DWORD PTR [edx+ecx*8+0x4]
  1039ca:	85 d2                	test   edx,edx
  1039cc:	75 4a                	jne    103a18 <mm_alloc+0xee>
  1039ce:	8b 90 c4 01 00 00    	mov    edx,DWORD PTR [eax+0x1c4]
  1039d4:	8b 0a                	mov    ecx,DWORD PTR [edx]
  1039d6:	83 e9 01             	sub    ecx,0x1
  1039d9:	89 0a                	mov    DWORD PTR [edx],ecx
  1039db:	eb 2e                	jmp    103a0b <mm_alloc+0xe1>
  1039dd:	8b 90 c4 01 00 00    	mov    edx,DWORD PTR [eax+0x1c4]
  1039e3:	8b 4d f0             	mov    ecx,DWORD PTR [ebp-0x10]
  1039e6:	8d 79 01             	lea    edi,[ecx+0x1]
  1039e9:	8b 98 c4 01 00 00    	mov    ebx,DWORD PTR [eax+0x1c4]
  1039ef:	8b 4d f0             	mov    ecx,DWORD PTR [ebp-0x10]
  1039f2:	8d 71 02             	lea    esi,[ecx+0x2]
  1039f5:	8d 4f 02             	lea    ecx,[edi+0x2]
  1039f8:	8d 0c ca             	lea    ecx,[edx+ecx*8]
  1039fb:	8b 11                	mov    edx,DWORD PTR [ecx]
  1039fd:	8b 49 04             	mov    ecx,DWORD PTR [ecx+0x4]
  103a00:	89 14 f3             	mov    DWORD PTR [ebx+esi*8],edx
  103a03:	89 4c f3 04          	mov    DWORD PTR [ebx+esi*8+0x4],ecx
  103a07:	83 45 f0 01          	add    DWORD PTR [ebp-0x10],0x1
  103a0b:	8b 90 c4 01 00 00    	mov    edx,DWORD PTR [eax+0x1c4]
  103a11:	8b 12                	mov    edx,DWORD PTR [edx]
  103a13:	39 55 f0             	cmp    DWORD PTR [ebp-0x10],edx
  103a16:	7c c5                	jl     1039dd <mm_alloc+0xb3>
  103a18:	8b 45 ec             	mov    eax,DWORD PTR [ebp-0x14]
  103a1b:	eb 1a                	jmp    103a37 <mm_alloc+0x10d>
  103a1d:	83 45 f0 01          	add    DWORD PTR [ebp-0x10],0x1
  103a21:	8b 90 c4 01 00 00    	mov    edx,DWORD PTR [eax+0x1c4]
  103a27:	8b 12                	mov    edx,DWORD PTR [edx]
  103a29:	39 55 f0             	cmp    DWORD PTR [ebp-0x10],edx
  103a2c:	0f 8c 17 ff ff ff    	jl     103949 <mm_alloc+0x1f>
  103a32:	b8 00 00 00 00       	mov    eax,0x0
  103a37:	83 c4 10             	add    esp,0x10
  103a3a:	5b                   	pop    ebx
  103a3b:	5e                   	pop    esi
  103a3c:	5f                   	pop    edi
  103a3d:	5d                   	pop    ebp
  103a3e:	c3                   	ret    

00103a3f <mm_free>:
  103a3f:	55                   	push   ebp
  103a40:	89 e5                	mov    ebp,esp
  103a42:	57                   	push   edi
  103a43:	56                   	push   esi
  103a44:	53                   	push   ebx
  103a45:	83 ec 10             	sub    esp,0x10
  103a48:	e8 04 cb ff ff       	call   100551 <__x86.get_pc_thunk.ax>
  103a4d:	05 b3 05 01 00       	add    eax,0x105b3
  103a52:	c7 45 f0 00 00 00 00 	mov    DWORD PTR [ebp-0x10],0x0
  103a59:	eb 18                	jmp    103a73 <mm_free+0x34>
  103a5b:	8b 90 c4 01 00 00    	mov    edx,DWORD PTR [eax+0x1c4]
  103a61:	8b 4d f0             	mov    ecx,DWORD PTR [ebp-0x10]
  103a64:	83 c1 02             	add    ecx,0x2
  103a67:	8b 14 ca             	mov    edx,DWORD PTR [edx+ecx*8]
  103a6a:	39 55 08             	cmp    DWORD PTR [ebp+0x8],edx
  103a6d:	72 13                	jb     103a82 <mm_free+0x43>
  103a6f:	83 45 f0 01          	add    DWORD PTR [ebp-0x10],0x1
  103a73:	8b 90 c4 01 00 00    	mov    edx,DWORD PTR [eax+0x1c4]
  103a79:	8b 12                	mov    edx,DWORD PTR [edx]
  103a7b:	39 55 f0             	cmp    DWORD PTR [ebp-0x10],edx
  103a7e:	7c db                	jl     103a5b <mm_free+0x1c>
  103a80:	eb 01                	jmp    103a83 <mm_free+0x44>
  103a82:	90                   	nop
  103a83:	83 7d f0 00          	cmp    DWORD PTR [ebp-0x10],0x0
  103a87:	0f 8e 18 01 00 00    	jle    103ba5 <mm_free+0x166>
  103a8d:	8b 90 c4 01 00 00    	mov    edx,DWORD PTR [eax+0x1c4]
  103a93:	8b 4d f0             	mov    ecx,DWORD PTR [ebp-0x10]
  103a96:	83 e9 01             	sub    ecx,0x1
  103a99:	83 c1 02             	add    ecx,0x2
  103a9c:	8b 0c ca             	mov    ecx,DWORD PTR [edx+ecx*8]
  103a9f:	8b 90 c4 01 00 00    	mov    edx,DWORD PTR [eax+0x1c4]
  103aa5:	8b 5d f0             	mov    ebx,DWORD PTR [ebp-0x10]
  103aa8:	83 eb 01             	sub    ebx,0x1
  103aab:	83 c3 02             	add    ebx,0x2
  103aae:	8b 54 da 04          	mov    edx,DWORD PTR [edx+ebx*8+0x4]
  103ab2:	01 ca                	add    edx,ecx
  103ab4:	39 55 08             	cmp    DWORD PTR [ebp+0x8],edx
  103ab7:	0f 85 e8 00 00 00    	jne    103ba5 <mm_free+0x166>
  103abd:	8b 90 c4 01 00 00    	mov    edx,DWORD PTR [eax+0x1c4]
  103ac3:	8b 4d f0             	mov    ecx,DWORD PTR [ebp-0x10]
  103ac6:	83 e9 01             	sub    ecx,0x1
  103ac9:	83 c1 02             	add    ecx,0x2
  103acc:	8b 5c ca 04          	mov    ebx,DWORD PTR [edx+ecx*8+0x4]
  103ad0:	8b 90 c4 01 00 00    	mov    edx,DWORD PTR [eax+0x1c4]
  103ad6:	8b 4d f0             	mov    ecx,DWORD PTR [ebp-0x10]
  103ad9:	8d 71 ff             	lea    esi,[ecx-0x1]
  103adc:	8b 4d 0c             	mov    ecx,DWORD PTR [ebp+0xc]
  103adf:	01 cb                	add    ebx,ecx
  103ae1:	8d 4e 02             	lea    ecx,[esi+0x2]
  103ae4:	89 5c ca 04          	mov    DWORD PTR [edx+ecx*8+0x4],ebx
  103ae8:	8b 90 c4 01 00 00    	mov    edx,DWORD PTR [eax+0x1c4]
  103aee:	8b 12                	mov    edx,DWORD PTR [edx]
  103af0:	39 55 f0             	cmp    DWORD PTR [ebp-0x10],edx
  103af3:	0f 8d a2 00 00 00    	jge    103b9b <mm_free+0x15c>
  103af9:	8b 4d 08             	mov    ecx,DWORD PTR [ebp+0x8]
  103afc:	8b 55 0c             	mov    edx,DWORD PTR [ebp+0xc]
  103aff:	8d 1c 11             	lea    ebx,[ecx+edx*1]
  103b02:	8b 90 c4 01 00 00    	mov    edx,DWORD PTR [eax+0x1c4]
  103b08:	8b 4d f0             	mov    ecx,DWORD PTR [ebp-0x10]
  103b0b:	83 c1 02             	add    ecx,0x2
  103b0e:	8b 14 ca             	mov    edx,DWORD PTR [edx+ecx*8]
  103b11:	39 d3                	cmp    ebx,edx
  103b13:	0f 85 82 00 00 00    	jne    103b9b <mm_free+0x15c>
  103b19:	8b 90 c4 01 00 00    	mov    edx,DWORD PTR [eax+0x1c4]
  103b1f:	8b 4d f0             	mov    ecx,DWORD PTR [ebp-0x10]
  103b22:	83 e9 01             	sub    ecx,0x1
  103b25:	83 c1 02             	add    ecx,0x2
  103b28:	8b 5c ca 04          	mov    ebx,DWORD PTR [edx+ecx*8+0x4]
  103b2c:	8b 90 c4 01 00 00    	mov    edx,DWORD PTR [eax+0x1c4]
  103b32:	8b 4d f0             	mov    ecx,DWORD PTR [ebp-0x10]
  103b35:	83 c1 02             	add    ecx,0x2
  103b38:	8b 4c ca 04          	mov    ecx,DWORD PTR [edx+ecx*8+0x4]
  103b3c:	8b 90 c4 01 00 00    	mov    edx,DWORD PTR [eax+0x1c4]
  103b42:	8b 75 f0             	mov    esi,DWORD PTR [ebp-0x10]
  103b45:	83 ee 01             	sub    esi,0x1
  103b48:	01 cb                	add    ebx,ecx
  103b4a:	8d 4e 02             	lea    ecx,[esi+0x2]
  103b4d:	89 5c ca 04          	mov    DWORD PTR [edx+ecx*8+0x4],ebx
  103b51:	8b 90 c4 01 00 00    	mov    edx,DWORD PTR [eax+0x1c4]
  103b57:	8b 0a                	mov    ecx,DWORD PTR [edx]
  103b59:	83 e9 01             	sub    ecx,0x1
  103b5c:	89 0a                	mov    DWORD PTR [edx],ecx
  103b5e:	eb 2e                	jmp    103b8e <mm_free+0x14f>
  103b60:	8b 90 c4 01 00 00    	mov    edx,DWORD PTR [eax+0x1c4]
  103b66:	8b 4d f0             	mov    ecx,DWORD PTR [ebp-0x10]
  103b69:	8d 79 01             	lea    edi,[ecx+0x1]
  103b6c:	8b 98 c4 01 00 00    	mov    ebx,DWORD PTR [eax+0x1c4]
  103b72:	8b 4d f0             	mov    ecx,DWORD PTR [ebp-0x10]
  103b75:	8d 71 02             	lea    esi,[ecx+0x2]
  103b78:	8d 4f 02             	lea    ecx,[edi+0x2]
  103b7b:	8d 0c ca             	lea    ecx,[edx+ecx*8]
  103b7e:	8b 11                	mov    edx,DWORD PTR [ecx]
  103b80:	8b 49 04             	mov    ecx,DWORD PTR [ecx+0x4]
  103b83:	89 14 f3             	mov    DWORD PTR [ebx+esi*8],edx
  103b86:	89 4c f3 04          	mov    DWORD PTR [ebx+esi*8+0x4],ecx
  103b8a:	83 45 f0 01          	add    DWORD PTR [ebp-0x10],0x1
  103b8e:	8b 90 c4 01 00 00    	mov    edx,DWORD PTR [eax+0x1c4]
  103b94:	8b 12                	mov    edx,DWORD PTR [edx]
  103b96:	39 55 f0             	cmp    DWORD PTR [ebp-0x10],edx
  103b99:	7c c5                	jl     103b60 <mm_free+0x121>
  103b9b:	b8 00 00 00 00       	mov    eax,0x0
  103ba0:	e9 4d 01 00 00       	jmp    103cf2 <mm_free+0x2b3>
  103ba5:	8b 90 c4 01 00 00    	mov    edx,DWORD PTR [eax+0x1c4]
  103bab:	8b 12                	mov    edx,DWORD PTR [edx]
  103bad:	39 55 f0             	cmp    DWORD PTR [ebp-0x10],edx
  103bb0:	7d 5d                	jge    103c0f <mm_free+0x1d0>
  103bb2:	8b 4d 08             	mov    ecx,DWORD PTR [ebp+0x8]
  103bb5:	8b 55 0c             	mov    edx,DWORD PTR [ebp+0xc]
  103bb8:	8d 1c 11             	lea    ebx,[ecx+edx*1]
  103bbb:	8b 90 c4 01 00 00    	mov    edx,DWORD PTR [eax+0x1c4]
  103bc1:	8b 4d f0             	mov    ecx,DWORD PTR [ebp-0x10]
  103bc4:	83 c1 02             	add    ecx,0x2
  103bc7:	8b 14 ca             	mov    edx,DWORD PTR [edx+ecx*8]
  103bca:	39 d3                	cmp    ebx,edx
  103bcc:	75 41                	jne    103c0f <mm_free+0x1d0>
  103bce:	8b 90 c4 01 00 00    	mov    edx,DWORD PTR [eax+0x1c4]
  103bd4:	8b 4d f0             	mov    ecx,DWORD PTR [ebp-0x10]
  103bd7:	8d 59 02             	lea    ebx,[ecx+0x2]
  103bda:	8b 4d 08             	mov    ecx,DWORD PTR [ebp+0x8]
  103bdd:	89 0c da             	mov    DWORD PTR [edx+ebx*8],ecx
  103be0:	8b 90 c4 01 00 00    	mov    edx,DWORD PTR [eax+0x1c4]
  103be6:	8b 4d f0             	mov    ecx,DWORD PTR [ebp-0x10]
  103be9:	83 c1 02             	add    ecx,0x2
  103bec:	8b 4c ca 04          	mov    ecx,DWORD PTR [edx+ecx*8+0x4]
  103bf0:	8b 80 c4 01 00 00    	mov    eax,DWORD PTR [eax+0x1c4]
  103bf6:	8b 55 0c             	mov    edx,DWORD PTR [ebp+0xc]
  103bf9:	01 d1                	add    ecx,edx
  103bfb:	8b 55 f0             	mov    edx,DWORD PTR [ebp-0x10]
  103bfe:	83 c2 02             	add    edx,0x2
  103c01:	89 4c d0 04          	mov    DWORD PTR [eax+edx*8+0x4],ecx
  103c05:	b8 00 00 00 00       	mov    eax,0x0
  103c0a:	e9 e3 00 00 00       	jmp    103cf2 <mm_free+0x2b3>
  103c0f:	8b 90 c4 01 00 00    	mov    edx,DWORD PTR [eax+0x1c4]
  103c15:	8b 12                	mov    edx,DWORD PTR [edx]
  103c17:	81 fa f9 0f 00 00    	cmp    edx,0xff9
  103c1d:	0f 8f a2 00 00 00    	jg     103cc5 <mm_free+0x286>
  103c23:	8b 90 c4 01 00 00    	mov    edx,DWORD PTR [eax+0x1c4]
  103c29:	8b 12                	mov    edx,DWORD PTR [edx]
  103c2b:	89 55 ec             	mov    DWORD PTR [ebp-0x14],edx
  103c2e:	eb 2e                	jmp    103c5e <mm_free+0x21f>
  103c30:	8b 90 c4 01 00 00    	mov    edx,DWORD PTR [eax+0x1c4]
  103c36:	8b 4d ec             	mov    ecx,DWORD PTR [ebp-0x14]
  103c39:	8d 79 ff             	lea    edi,[ecx-0x1]
  103c3c:	8b 98 c4 01 00 00    	mov    ebx,DWORD PTR [eax+0x1c4]
  103c42:	8b 4d ec             	mov    ecx,DWORD PTR [ebp-0x14]
  103c45:	8d 71 02             	lea    esi,[ecx+0x2]
  103c48:	8d 4f 02             	lea    ecx,[edi+0x2]
  103c4b:	8d 0c ca             	lea    ecx,[edx+ecx*8]
  103c4e:	8b 11                	mov    edx,DWORD PTR [ecx]
  103c50:	8b 49 04             	mov    ecx,DWORD PTR [ecx+0x4]
  103c53:	89 14 f3             	mov    DWORD PTR [ebx+esi*8],edx
  103c56:	89 4c f3 04          	mov    DWORD PTR [ebx+esi*8+0x4],ecx
  103c5a:	83 6d ec 01          	sub    DWORD PTR [ebp-0x14],0x1
  103c5e:	8b 55 ec             	mov    edx,DWORD PTR [ebp-0x14]
  103c61:	3b 55 f0             	cmp    edx,DWORD PTR [ebp-0x10]
  103c64:	7f ca                	jg     103c30 <mm_free+0x1f1>
  103c66:	8b 90 c4 01 00 00    	mov    edx,DWORD PTR [eax+0x1c4]
  103c6c:	8b 0a                	mov    ecx,DWORD PTR [edx]
  103c6e:	83 c1 01             	add    ecx,0x1
  103c71:	89 0a                	mov    DWORD PTR [edx],ecx
  103c73:	8b 90 c4 01 00 00    	mov    edx,DWORD PTR [eax+0x1c4]
  103c79:	8b 4a 04             	mov    ecx,DWORD PTR [edx+0x4]
  103c7c:	8b 90 c4 01 00 00    	mov    edx,DWORD PTR [eax+0x1c4]
  103c82:	8b 12                	mov    edx,DWORD PTR [edx]
  103c84:	39 d1                	cmp    ecx,edx
  103c86:	7d 11                	jge    103c99 <mm_free+0x25a>
  103c88:	8b 88 c4 01 00 00    	mov    ecx,DWORD PTR [eax+0x1c4]
  103c8e:	8b 90 c4 01 00 00    	mov    edx,DWORD PTR [eax+0x1c4]
  103c94:	8b 09                	mov    ecx,DWORD PTR [ecx]
  103c96:	89 4a 04             	mov    DWORD PTR [edx+0x4],ecx
  103c99:	8b 90 c4 01 00 00    	mov    edx,DWORD PTR [eax+0x1c4]
  103c9f:	8b 4d f0             	mov    ecx,DWORD PTR [ebp-0x10]
  103ca2:	8d 59 02             	lea    ebx,[ecx+0x2]
  103ca5:	8b 4d 08             	mov    ecx,DWORD PTR [ebp+0x8]
  103ca8:	89 0c da             	mov    DWORD PTR [edx+ebx*8],ecx
  103cab:	8b 80 c4 01 00 00    	mov    eax,DWORD PTR [eax+0x1c4]
  103cb1:	8b 55 f0             	mov    edx,DWORD PTR [ebp-0x10]
  103cb4:	8d 4a 02             	lea    ecx,[edx+0x2]
  103cb7:	8b 55 0c             	mov    edx,DWORD PTR [ebp+0xc]
  103cba:	89 54 c8 04          	mov    DWORD PTR [eax+ecx*8+0x4],edx
  103cbe:	b8 00 00 00 00       	mov    eax,0x0
  103cc3:	eb 2d                	jmp    103cf2 <mm_free+0x2b3>
  103cc5:	8b 90 c4 01 00 00    	mov    edx,DWORD PTR [eax+0x1c4]
  103ccb:	8b 4a 0c             	mov    ecx,DWORD PTR [edx+0xc]
  103cce:	83 c1 01             	add    ecx,0x1
  103cd1:	89 4a 0c             	mov    DWORD PTR [edx+0xc],ecx
  103cd4:	8b 90 c4 01 00 00    	mov    edx,DWORD PTR [eax+0x1c4]
  103cda:	8b 52 08             	mov    edx,DWORD PTR [edx+0x8]
  103cdd:	89 d1                	mov    ecx,edx
  103cdf:	8b 55 0c             	mov    edx,DWORD PTR [ebp+0xc]
  103ce2:	01 ca                	add    edx,ecx
  103ce4:	8b 80 c4 01 00 00    	mov    eax,DWORD PTR [eax+0x1c4]
  103cea:	89 50 08             	mov    DWORD PTR [eax+0x8],edx
  103ced:	b8 ff ff ff ff       	mov    eax,0xffffffff
  103cf2:	83 c4 10             	add    esp,0x10
  103cf5:	5b                   	pop    ebx
  103cf6:	5e                   	pop    esi
  103cf7:	5f                   	pop    edi
  103cf8:	5d                   	pop    ebp
  103cf9:	c3                   	ret    

00103cfa <mm_alloc_4k>:
  103cfa:	55                   	push   ebp
  103cfb:	89 e5                	mov    ebp,esp
  103cfd:	e8 4f c8 ff ff       	call   100551 <__x86.get_pc_thunk.ax>
  103d02:	05 fe 02 01 00       	add    eax,0x102fe
  103d07:	8b 45 08             	mov    eax,DWORD PTR [ebp+0x8]
  103d0a:	05 ff 0f 00 00       	add    eax,0xfff
  103d0f:	25 00 f0 ff ff       	and    eax,0xfffff000
  103d14:	89 45 08             	mov    DWORD PTR [ebp+0x8],eax
  103d17:	ff 75 08             	push   DWORD PTR [ebp+0x8]
  103d1a:	e8 0b fc ff ff       	call   10392a <mm_alloc>
  103d1f:	83 c4 04             	add    esp,0x4
  103d22:	c9                   	leave  
  103d23:	c3                   	ret    

00103d24 <mm_free_4k>:
  103d24:	55                   	push   ebp
  103d25:	89 e5                	mov    ebp,esp
  103d27:	e8 25 c8 ff ff       	call   100551 <__x86.get_pc_thunk.ax>
  103d2c:	05 d4 02 01 00       	add    eax,0x102d4
  103d31:	8b 45 0c             	mov    eax,DWORD PTR [ebp+0xc]
  103d34:	05 ff 0f 00 00       	add    eax,0xfff
  103d39:	25 00 f0 ff ff       	and    eax,0xfffff000
  103d3e:	89 45 0c             	mov    DWORD PTR [ebp+0xc],eax
  103d41:	ff 75 0c             	push   DWORD PTR [ebp+0xc]
  103d44:	ff 75 08             	push   DWORD PTR [ebp+0x8]
  103d47:	e8 f3 fc ff ff       	call   103a3f <mm_free>
  103d4c:	83 c4 08             	add    esp,0x8
  103d4f:	c9                   	leave  
  103d50:	c3                   	ret    

00103d51 <setup_paging>:
  103d51:	55                   	push   ebp
  103d52:	89 e5                	mov    ebp,esp
  103d54:	53                   	push   ebx
  103d55:	83 ec 24             	sub    esp,0x24
  103d58:	e8 f8 c7 ff ff       	call   100555 <__x86.get_pc_thunk.bx>
  103d5d:	81 c3 a3 02 01 00    	add    ebx,0x102a3
  103d63:	8b 45 08             	mov    eax,DWORD PTR [ebp+0x8]
  103d66:	c1 e8 16             	shr    eax,0x16
  103d69:	89 45 f4             	mov    DWORD PTR [ebp-0xc],eax
  103d6c:	8b 45 08             	mov    eax,DWORD PTR [ebp+0x8]
  103d6f:	25 ff ff 3f 00       	and    eax,0x3fffff
  103d74:	85 c0                	test   eax,eax
  103d76:	74 04                	je     103d7c <setup_paging+0x2b>
  103d78:	83 45 f4 01          	add    DWORD PTR [ebp-0xc],0x1
  103d7c:	8b 45 f4             	mov    eax,DWORD PTR [ebp-0xc]
  103d7f:	c1 e0 0a             	shl    eax,0xa
  103d82:	89 45 e8             	mov    DWORD PTR [ebp-0x18],eax
  103d85:	c7 45 f0 00 00 00 00 	mov    DWORD PTR [ebp-0x10],0x0
  103d8c:	eb 26                	jmp    103db4 <setup_paging+0x63>
  103d8e:	8b 45 f0             	mov    eax,DWORD PTR [ebp-0x10]
  103d91:	c1 e0 0c             	shl    eax,0xc
  103d94:	05 00 00 40 00       	add    eax,0x400000
  103d99:	83 c8 03             	or     eax,0x3
  103d9c:	89 c1                	mov    ecx,eax
  103d9e:	8b 83 bc 01 00 00    	mov    eax,DWORD PTR [ebx+0x1bc]
  103da4:	8b 55 f0             	mov    edx,DWORD PTR [ebp-0x10]
  103da7:	c1 e2 02             	shl    edx,0x2
  103daa:	01 d0                	add    eax,edx
  103dac:	89 ca                	mov    edx,ecx
  103dae:	89 10                	mov    DWORD PTR [eax],edx
  103db0:	83 45 f0 01          	add    DWORD PTR [ebp-0x10],0x1
  103db4:	8b 45 f0             	mov    eax,DWORD PTR [ebp-0x10]
  103db7:	39 45 f4             	cmp    DWORD PTR [ebp-0xc],eax
  103dba:	77 d2                	ja     103d8e <setup_paging+0x3d>
  103dbc:	c7 45 ec 00 00 00 00 	mov    DWORD PTR [ebp-0x14],0x0
  103dc3:	eb 21                	jmp    103de6 <setup_paging+0x95>
  103dc5:	8b 45 ec             	mov    eax,DWORD PTR [ebp-0x14]
  103dc8:	c1 e0 0c             	shl    eax,0xc
  103dcb:	83 c8 03             	or     eax,0x3
  103dce:	89 c1                	mov    ecx,eax
  103dd0:	8b 83 c0 01 00 00    	mov    eax,DWORD PTR [ebx+0x1c0]
  103dd6:	8b 55 ec             	mov    edx,DWORD PTR [ebp-0x14]
  103dd9:	c1 e2 02             	shl    edx,0x2
  103ddc:	01 d0                	add    eax,edx
  103dde:	89 ca                	mov    edx,ecx
  103de0:	89 10                	mov    DWORD PTR [eax],edx
  103de2:	83 45 ec 01          	add    DWORD PTR [ebp-0x14],0x1
  103de6:	8b 45 ec             	mov    eax,DWORD PTR [ebp-0x14]
  103de9:	39 45 e8             	cmp    DWORD PTR [ebp-0x18],eax
  103dec:	77 d7                	ja     103dc5 <setup_paging+0x74>
  103dee:	83 ec 0c             	sub    esp,0xc
  103df1:	68 00 00 20 00       	push   0x200000
  103df6:	e8 bc f5 ff ff       	call   1033b7 <io_store_cr3>
  103dfb:	83 c4 10             	add    esp,0x10
  103dfe:	e8 8c f5 ff ff       	call   10338f <io_load_cr0>
  103e03:	89 45 e4             	mov    DWORD PTR [ebp-0x1c],eax
  103e06:	8b 45 e4             	mov    eax,DWORD PTR [ebp-0x1c]
  103e09:	0d 00 00 00 80       	or     eax,0x80000000
  103e0e:	83 ec 0c             	sub    esp,0xc
  103e11:	50                   	push   eax
  103e12:	e8 7c f5 ff ff       	call   103393 <io_store_cr0>
  103e17:	83 c4 10             	add    esp,0x10
  103e1a:	90                   	nop
  103e1b:	8b 5d fc             	mov    ebx,DWORD PTR [ebp-0x4]
  103e1e:	c9                   	leave  
  103e1f:	c3                   	ret    
