
kernel.o:     file format elf32-i386


Disassembly of section .text:

00100000 <_start>:
  100000:	bc 00 7c 00 00       	mov    esp,0x7c00
  100005:	89 1d 0c e0 16 00    	mov    DWORD PTR ds:0x16e00c,ebx
  10000b:	0f 01 05 88 54 11 00 	sgdtd  ds:0x115488
  100012:	e8 36 00 00 00       	call   10004d <init_gdt_idt>
  100017:	e8 2e 01 00 00       	call   10014a <init_pic>
  10001c:	e8 ec 01 00 00       	call   10020d <setup_idt>
  100021:	e8 28 05 00 00       	call   10054e <init_tss>
  100026:	0f 01 15 88 54 11 00 	lgdtd  ds:0x115488
  10002d:	0f 01 1d 00 50 11 00 	lidtd  ds:0x115000
  100034:	ea 3b 00 10 00 08 00 	jmp    0x8:0x10003b

0010003b <flush>:
  10003b:	31 c0                	xor    eax,eax
  10003d:	66 b8 20 00          	mov    ax,0x20
  100041:	0f 00 d8             	ltr    ax
  100044:	e8 f0 0c 00 00       	call   100d39 <main>
  100049:	fb                   	sti    

0010004a <end>:
  10004a:	f4                   	hlt    
  10004b:	eb fd                	jmp    10004a <end>

0010004d <init_gdt_idt>:
  10004d:	55                   	push   ebp
  10004e:	89 e5                	mov    ebp,esp
  100050:	53                   	push   ebx
  100051:	83 ec 04             	sub    esp,0x4
  100054:	e8 70 05 00 00       	call   1005c9 <__x86.get_pc_thunk.bx>
  100059:	81 c3 a7 3f 01 00    	add    ebx,0x13fa7
  10005f:	c7 c0 88 54 11 00    	mov    eax,0x115488
  100065:	0f b7 00             	movzx  eax,WORD PTR [eax]
  100068:	0f b7 c0             	movzx  eax,ax
  10006b:	8d 50 01             	lea    edx,[eax+0x1]
  10006e:	c7 c0 88 54 11 00    	mov    eax,0x115488
  100074:	8b 40 02             	mov    eax,DWORD PTR [eax+0x2]
  100077:	83 ec 04             	sub    esp,0x4
  10007a:	52                   	push   edx
  10007b:	50                   	push   eax
  10007c:	c7 c0 20 50 11 00    	mov    eax,0x115020
  100082:	50                   	push   eax
  100083:	e8 b4 2e 00 00       	call   102f3c <memcpy>
  100088:	83 c4 10             	add    esp,0x10
  10008b:	c7 c0 88 54 11 00    	mov    eax,0x115488
  100091:	66 c7 00 ff 03       	mov    WORD PTR [eax],0x3ff
  100096:	c7 c0 20 50 11 00    	mov    eax,0x115020
  10009c:	89 c2                	mov    edx,eax
  10009e:	c7 c0 88 54 11 00    	mov    eax,0x115488
  1000a4:	89 50 02             	mov    DWORD PTR [eax+0x2],edx
  1000a7:	c7 c0 00 50 11 00    	mov    eax,0x115000
  1000ad:	66 c7 00 ff 07       	mov    WORD PTR [eax],0x7ff
  1000b2:	c7 c0 a0 54 11 00    	mov    eax,0x1154a0
  1000b8:	89 c2                	mov    edx,eax
  1000ba:	c7 c0 00 50 11 00    	mov    eax,0x115000
  1000c0:	89 50 02             	mov    DWORD PTR [eax+0x2],edx
  1000c3:	90                   	nop
  1000c4:	8b 5d fc             	mov    ebx,DWORD PTR [ebp-0x4]
  1000c7:	c9                   	leave  
  1000c8:	c3                   	ret    

001000c9 <init_igate>:
  1000c9:	55                   	push   ebp
  1000ca:	89 e5                	mov    ebp,esp
  1000cc:	53                   	push   ebx
  1000cd:	83 ec 1c             	sub    esp,0x1c
  1000d0:	e8 f0 04 00 00       	call   1005c5 <__x86.get_pc_thunk.ax>
  1000d5:	05 2b 3f 01 00       	add    eax,0x13f2b
  1000da:	8b 5d 08             	mov    ebx,DWORD PTR [ebp+0x8]
  1000dd:	8b 4d 0c             	mov    ecx,DWORD PTR [ebp+0xc]
  1000e0:	8b 55 14             	mov    edx,DWORD PTR [ebp+0x14]
  1000e3:	88 5d e8             	mov    BYTE PTR [ebp-0x18],bl
  1000e6:	88 4d e4             	mov    BYTE PTR [ebp-0x1c],cl
  1000e9:	88 55 e0             	mov    BYTE PTR [ebp-0x20],dl
  1000ec:	0f b6 55 e8          	movzx  edx,BYTE PTR [ebp-0x18]
  1000f0:	c1 e2 03             	shl    edx,0x3
  1000f3:	c7 c0 a0 54 11 00    	mov    eax,0x1154a0
  1000f9:	01 d0                	add    eax,edx
  1000fb:	89 45 f8             	mov    DWORD PTR [ebp-0x8],eax
  1000fe:	8b 45 10             	mov    eax,DWORD PTR [ebp+0x10]
  100101:	89 45 f4             	mov    DWORD PTR [ebp-0xc],eax
  100104:	8b 45 f4             	mov    eax,DWORD PTR [ebp-0xc]
  100107:	89 c2                	mov    edx,eax
  100109:	8b 45 f8             	mov    eax,DWORD PTR [ebp-0x8]
  10010c:	66 89 10             	mov    WORD PTR [eax],dx
  10010f:	8b 45 f8             	mov    eax,DWORD PTR [ebp-0x8]
  100112:	66 c7 40 02 08 00    	mov    WORD PTR [eax+0x2],0x8
  100118:	8b 45 f8             	mov    eax,DWORD PTR [ebp-0x8]
  10011b:	c6 40 04 00          	mov    BYTE PTR [eax+0x4],0x0
  10011f:	0f b6 45 e0          	movzx  eax,BYTE PTR [ebp-0x20]
  100123:	c1 e0 05             	shl    eax,0x5
  100126:	0a 45 e4             	or     al,BYTE PTR [ebp-0x1c]
  100129:	83 c8 80             	or     eax,0xffffff80
  10012c:	89 c2                	mov    edx,eax
  10012e:	8b 45 f8             	mov    eax,DWORD PTR [ebp-0x8]
  100131:	88 50 05             	mov    BYTE PTR [eax+0x5],dl
  100134:	8b 45 f4             	mov    eax,DWORD PTR [ebp-0xc]
  100137:	c1 e8 10             	shr    eax,0x10
  10013a:	89 c2                	mov    edx,eax
  10013c:	8b 45 f8             	mov    eax,DWORD PTR [ebp-0x8]
  10013f:	66 89 50 06          	mov    WORD PTR [eax+0x6],dx
  100143:	90                   	nop
  100144:	83 c4 1c             	add    esp,0x1c
  100147:	5b                   	pop    ebx
  100148:	5d                   	pop    ebp
  100149:	c3                   	ret    

0010014a <init_pic>:
  10014a:	55                   	push   ebp
  10014b:	89 e5                	mov    ebp,esp
  10014d:	53                   	push   ebx
  10014e:	83 ec 04             	sub    esp,0x4
  100151:	e8 73 04 00 00       	call   1005c9 <__x86.get_pc_thunk.bx>
  100156:	81 c3 aa 3e 01 00    	add    ebx,0x13eaa
  10015c:	83 ec 08             	sub    esp,0x8
  10015f:	6a 11                	push   0x11
  100161:	6a 20                	push   0x20
  100163:	e8 b4 2d 00 00       	call   102f1c <out8>
  100168:	83 c4 10             	add    esp,0x10
  10016b:	83 ec 08             	sub    esp,0x8
  10016e:	6a 11                	push   0x11
  100170:	68 a0 00 00 00       	push   0xa0
  100175:	e8 a2 2d 00 00       	call   102f1c <out8>
  10017a:	83 c4 10             	add    esp,0x10
  10017d:	83 ec 08             	sub    esp,0x8
  100180:	6a 20                	push   0x20
  100182:	6a 21                	push   0x21
  100184:	e8 93 2d 00 00       	call   102f1c <out8>
  100189:	83 c4 10             	add    esp,0x10
  10018c:	83 ec 08             	sub    esp,0x8
  10018f:	6a 28                	push   0x28
  100191:	68 a1 00 00 00       	push   0xa1
  100196:	e8 81 2d 00 00       	call   102f1c <out8>
  10019b:	83 c4 10             	add    esp,0x10
  10019e:	83 ec 08             	sub    esp,0x8
  1001a1:	6a 04                	push   0x4
  1001a3:	6a 21                	push   0x21
  1001a5:	e8 72 2d 00 00       	call   102f1c <out8>
  1001aa:	83 c4 10             	add    esp,0x10
  1001ad:	83 ec 08             	sub    esp,0x8
  1001b0:	6a 02                	push   0x2
  1001b2:	68 a1 00 00 00       	push   0xa1
  1001b7:	e8 60 2d 00 00       	call   102f1c <out8>
  1001bc:	83 c4 10             	add    esp,0x10
  1001bf:	83 ec 08             	sub    esp,0x8
  1001c2:	6a 01                	push   0x1
  1001c4:	6a 21                	push   0x21
  1001c6:	e8 51 2d 00 00       	call   102f1c <out8>
  1001cb:	83 c4 10             	add    esp,0x10
  1001ce:	83 ec 08             	sub    esp,0x8
  1001d1:	6a 01                	push   0x1
  1001d3:	68 a1 00 00 00       	push   0xa1
  1001d8:	e8 3f 2d 00 00       	call   102f1c <out8>
  1001dd:	83 c4 10             	add    esp,0x10
  1001e0:	83 ec 08             	sub    esp,0x8
  1001e3:	68 fb 00 00 00       	push   0xfb
  1001e8:	6a 21                	push   0x21
  1001ea:	e8 2d 2d 00 00       	call   102f1c <out8>
  1001ef:	83 c4 10             	add    esp,0x10
  1001f2:	83 ec 08             	sub    esp,0x8
  1001f5:	68 ff 00 00 00       	push   0xff
  1001fa:	68 a1 00 00 00       	push   0xa1
  1001ff:	e8 18 2d 00 00       	call   102f1c <out8>
  100204:	83 c4 10             	add    esp,0x10
  100207:	90                   	nop
  100208:	8b 5d fc             	mov    ebx,DWORD PTR [ebp-0x4]
  10020b:	c9                   	leave  
  10020c:	c3                   	ret    

0010020d <setup_idt>:
  10020d:	55                   	push   ebp
  10020e:	89 e5                	mov    ebp,esp
  100210:	53                   	push   ebx
  100211:	e8 b3 03 00 00       	call   1005c9 <__x86.get_pc_thunk.bx>
  100216:	81 c3 ea 3d 01 00    	add    ebx,0x13dea
  10021c:	6a 00                	push   0x0
  10021e:	c7 c0 d0 05 10 00    	mov    eax,0x1005d0
  100224:	50                   	push   eax
  100225:	6a 0e                	push   0xe
  100227:	6a 00                	push   0x0
  100229:	e8 9b fe ff ff       	call   1000c9 <init_igate>
  10022e:	83 c4 10             	add    esp,0x10
  100231:	6a 00                	push   0x0
  100233:	c7 c0 d6 05 10 00    	mov    eax,0x1005d6
  100239:	50                   	push   eax
  10023a:	6a 0e                	push   0xe
  10023c:	6a 01                	push   0x1
  10023e:	e8 86 fe ff ff       	call   1000c9 <init_igate>
  100243:	83 c4 10             	add    esp,0x10
  100246:	6a 00                	push   0x0
  100248:	c7 c0 dc 05 10 00    	mov    eax,0x1005dc
  10024e:	50                   	push   eax
  10024f:	6a 0e                	push   0xe
  100251:	6a 02                	push   0x2
  100253:	e8 71 fe ff ff       	call   1000c9 <init_igate>
  100258:	83 c4 10             	add    esp,0x10
  10025b:	6a 03                	push   0x3
  10025d:	c7 c0 e2 05 10 00    	mov    eax,0x1005e2
  100263:	50                   	push   eax
  100264:	6a 0e                	push   0xe
  100266:	6a 03                	push   0x3
  100268:	e8 5c fe ff ff       	call   1000c9 <init_igate>
  10026d:	83 c4 10             	add    esp,0x10
  100270:	6a 03                	push   0x3
  100272:	c7 c0 e8 05 10 00    	mov    eax,0x1005e8
  100278:	50                   	push   eax
  100279:	6a 0e                	push   0xe
  10027b:	6a 04                	push   0x4
  10027d:	e8 47 fe ff ff       	call   1000c9 <init_igate>
  100282:	83 c4 10             	add    esp,0x10
  100285:	6a 00                	push   0x0
  100287:	c7 c0 ee 05 10 00    	mov    eax,0x1005ee
  10028d:	50                   	push   eax
  10028e:	6a 0e                	push   0xe
  100290:	6a 05                	push   0x5
  100292:	e8 32 fe ff ff       	call   1000c9 <init_igate>
  100297:	83 c4 10             	add    esp,0x10
  10029a:	6a 00                	push   0x0
  10029c:	c7 c0 f4 05 10 00    	mov    eax,0x1005f4
  1002a2:	50                   	push   eax
  1002a3:	6a 0e                	push   0xe
  1002a5:	6a 06                	push   0x6
  1002a7:	e8 1d fe ff ff       	call   1000c9 <init_igate>
  1002ac:	83 c4 10             	add    esp,0x10
  1002af:	6a 00                	push   0x0
  1002b1:	c7 c0 fa 05 10 00    	mov    eax,0x1005fa
  1002b7:	50                   	push   eax
  1002b8:	6a 0e                	push   0xe
  1002ba:	6a 07                	push   0x7
  1002bc:	e8 08 fe ff ff       	call   1000c9 <init_igate>
  1002c1:	83 c4 10             	add    esp,0x10
  1002c4:	6a 00                	push   0x0
  1002c6:	c7 c0 00 06 10 00    	mov    eax,0x100600
  1002cc:	50                   	push   eax
  1002cd:	6a 0e                	push   0xe
  1002cf:	6a 08                	push   0x8
  1002d1:	e8 f3 fd ff ff       	call   1000c9 <init_igate>
  1002d6:	83 c4 10             	add    esp,0x10
  1002d9:	6a 00                	push   0x0
  1002db:	c7 c0 04 06 10 00    	mov    eax,0x100604
  1002e1:	50                   	push   eax
  1002e2:	6a 0e                	push   0xe
  1002e4:	6a 09                	push   0x9
  1002e6:	e8 de fd ff ff       	call   1000c9 <init_igate>
  1002eb:	83 c4 10             	add    esp,0x10
  1002ee:	6a 00                	push   0x0
  1002f0:	c7 c0 0a 06 10 00    	mov    eax,0x10060a
  1002f6:	50                   	push   eax
  1002f7:	6a 0e                	push   0xe
  1002f9:	6a 0a                	push   0xa
  1002fb:	e8 c9 fd ff ff       	call   1000c9 <init_igate>
  100300:	83 c4 10             	add    esp,0x10
  100303:	6a 00                	push   0x0
  100305:	c7 c0 0e 06 10 00    	mov    eax,0x10060e
  10030b:	50                   	push   eax
  10030c:	6a 0e                	push   0xe
  10030e:	6a 0b                	push   0xb
  100310:	e8 b4 fd ff ff       	call   1000c9 <init_igate>
  100315:	83 c4 10             	add    esp,0x10
  100318:	6a 00                	push   0x0
  10031a:	c7 c0 12 06 10 00    	mov    eax,0x100612
  100320:	50                   	push   eax
  100321:	6a 0e                	push   0xe
  100323:	6a 0c                	push   0xc
  100325:	e8 9f fd ff ff       	call   1000c9 <init_igate>
  10032a:	83 c4 10             	add    esp,0x10
  10032d:	6a 00                	push   0x0
  10032f:	c7 c0 16 06 10 00    	mov    eax,0x100616
  100335:	50                   	push   eax
  100336:	6a 0e                	push   0xe
  100338:	6a 0d                	push   0xd
  10033a:	e8 8a fd ff ff       	call   1000c9 <init_igate>
  10033f:	83 c4 10             	add    esp,0x10
  100342:	6a 00                	push   0x0
  100344:	c7 c0 1a 06 10 00    	mov    eax,0x10061a
  10034a:	50                   	push   eax
  10034b:	6a 0e                	push   0xe
  10034d:	6a 0e                	push   0xe
  10034f:	e8 75 fd ff ff       	call   1000c9 <init_igate>
  100354:	83 c4 10             	add    esp,0x10
  100357:	6a 00                	push   0x0
  100359:	c7 c0 1e 06 10 00    	mov    eax,0x10061e
  10035f:	50                   	push   eax
  100360:	6a 0e                	push   0xe
  100362:	6a 10                	push   0x10
  100364:	e8 60 fd ff ff       	call   1000c9 <init_igate>
  100369:	83 c4 10             	add    esp,0x10
  10036c:	6a 00                	push   0x0
  10036e:	c7 c0 30 06 10 00    	mov    eax,0x100630
  100374:	50                   	push   eax
  100375:	6a 0e                	push   0xe
  100377:	6a 20                	push   0x20
  100379:	e8 4b fd ff ff       	call   1000c9 <init_igate>
  10037e:	83 c4 10             	add    esp,0x10
  100381:	6a 00                	push   0x0
  100383:	c7 c0 60 06 10 00    	mov    eax,0x100660
  100389:	50                   	push   eax
  10038a:	6a 0e                	push   0xe
  10038c:	6a 21                	push   0x21
  10038e:	e8 36 fd ff ff       	call   1000c9 <init_igate>
  100393:	83 c4 10             	add    esp,0x10
  100396:	6a 00                	push   0x0
  100398:	c7 c0 90 06 10 00    	mov    eax,0x100690
  10039e:	50                   	push   eax
  10039f:	6a 0e                	push   0xe
  1003a1:	6a 22                	push   0x22
  1003a3:	e8 21 fd ff ff       	call   1000c9 <init_igate>
  1003a8:	83 c4 10             	add    esp,0x10
  1003ab:	6a 00                	push   0x0
  1003ad:	c7 c0 c0 06 10 00    	mov    eax,0x1006c0
  1003b3:	50                   	push   eax
  1003b4:	6a 0e                	push   0xe
  1003b6:	6a 23                	push   0x23
  1003b8:	e8 0c fd ff ff       	call   1000c9 <init_igate>
  1003bd:	83 c4 10             	add    esp,0x10
  1003c0:	6a 00                	push   0x0
  1003c2:	c7 c0 f0 06 10 00    	mov    eax,0x1006f0
  1003c8:	50                   	push   eax
  1003c9:	6a 0e                	push   0xe
  1003cb:	6a 24                	push   0x24
  1003cd:	e8 f7 fc ff ff       	call   1000c9 <init_igate>
  1003d2:	83 c4 10             	add    esp,0x10
  1003d5:	6a 00                	push   0x0
  1003d7:	c7 c0 20 07 10 00    	mov    eax,0x100720
  1003dd:	50                   	push   eax
  1003de:	6a 0e                	push   0xe
  1003e0:	6a 25                	push   0x25
  1003e2:	e8 e2 fc ff ff       	call   1000c9 <init_igate>
  1003e7:	83 c4 10             	add    esp,0x10
  1003ea:	6a 00                	push   0x0
  1003ec:	c7 c0 50 07 10 00    	mov    eax,0x100750
  1003f2:	50                   	push   eax
  1003f3:	6a 0e                	push   0xe
  1003f5:	6a 26                	push   0x26
  1003f7:	e8 cd fc ff ff       	call   1000c9 <init_igate>
  1003fc:	83 c4 10             	add    esp,0x10
  1003ff:	6a 00                	push   0x0
  100401:	c7 c0 80 07 10 00    	mov    eax,0x100780
  100407:	50                   	push   eax
  100408:	6a 0e                	push   0xe
  10040a:	6a 27                	push   0x27
  10040c:	e8 b8 fc ff ff       	call   1000c9 <init_igate>
  100411:	83 c4 10             	add    esp,0x10
  100414:	6a 00                	push   0x0
  100416:	c7 c0 b0 07 10 00    	mov    eax,0x1007b0
  10041c:	50                   	push   eax
  10041d:	6a 0e                	push   0xe
  10041f:	6a 28                	push   0x28
  100421:	e8 a3 fc ff ff       	call   1000c9 <init_igate>
  100426:	83 c4 10             	add    esp,0x10
  100429:	6a 00                	push   0x0
  10042b:	c7 c0 e0 07 10 00    	mov    eax,0x1007e0
  100431:	50                   	push   eax
  100432:	6a 0e                	push   0xe
  100434:	6a 29                	push   0x29
  100436:	e8 8e fc ff ff       	call   1000c9 <init_igate>
  10043b:	83 c4 10             	add    esp,0x10
  10043e:	6a 00                	push   0x0
  100440:	c7 c0 10 08 10 00    	mov    eax,0x100810
  100446:	50                   	push   eax
  100447:	6a 0e                	push   0xe
  100449:	6a 2a                	push   0x2a
  10044b:	e8 79 fc ff ff       	call   1000c9 <init_igate>
  100450:	83 c4 10             	add    esp,0x10
  100453:	6a 00                	push   0x0
  100455:	c7 c0 40 08 10 00    	mov    eax,0x100840
  10045b:	50                   	push   eax
  10045c:	6a 0e                	push   0xe
  10045e:	6a 2b                	push   0x2b
  100460:	e8 64 fc ff ff       	call   1000c9 <init_igate>
  100465:	83 c4 10             	add    esp,0x10
  100468:	6a 00                	push   0x0
  10046a:	c7 c0 70 08 10 00    	mov    eax,0x100870
  100470:	50                   	push   eax
  100471:	6a 0e                	push   0xe
  100473:	6a 2c                	push   0x2c
  100475:	e8 4f fc ff ff       	call   1000c9 <init_igate>
  10047a:	83 c4 10             	add    esp,0x10
  10047d:	6a 00                	push   0x0
  10047f:	c7 c0 a0 08 10 00    	mov    eax,0x1008a0
  100485:	50                   	push   eax
  100486:	6a 0e                	push   0xe
  100488:	6a 2d                	push   0x2d
  10048a:	e8 3a fc ff ff       	call   1000c9 <init_igate>
  10048f:	83 c4 10             	add    esp,0x10
  100492:	6a 00                	push   0x0
  100494:	c7 c0 d0 08 10 00    	mov    eax,0x1008d0
  10049a:	50                   	push   eax
  10049b:	6a 0e                	push   0xe
  10049d:	6a 2e                	push   0x2e
  10049f:	e8 25 fc ff ff       	call   1000c9 <init_igate>
  1004a4:	83 c4 10             	add    esp,0x10
  1004a7:	6a 00                	push   0x0
  1004a9:	c7 c0 00 09 10 00    	mov    eax,0x100900
  1004af:	50                   	push   eax
  1004b0:	6a 0e                	push   0xe
  1004b2:	6a 2f                	push   0x2f
  1004b4:	e8 10 fc ff ff       	call   1000c9 <init_igate>
  1004b9:	83 c4 10             	add    esp,0x10
  1004bc:	6a 03                	push   0x3
  1004be:	c7 c0 30 09 10 00    	mov    eax,0x100930
  1004c4:	50                   	push   eax
  1004c5:	6a 0e                	push   0xe
  1004c7:	68 90 00 00 00       	push   0x90
  1004cc:	e8 f8 fb ff ff       	call   1000c9 <init_igate>
  1004d1:	83 c4 10             	add    esp,0x10
  1004d4:	90                   	nop
  1004d5:	8b 5d fc             	mov    ebx,DWORD PTR [ebp-0x4]
  1004d8:	c9                   	leave  
  1004d9:	c3                   	ret    

001004da <init_proc_ldts>:
  1004da:	55                   	push   ebp
  1004db:	89 e5                	mov    ebp,esp
  1004dd:	53                   	push   ebx
  1004de:	83 ec 14             	sub    esp,0x14
  1004e1:	e8 e3 00 00 00       	call   1005c9 <__x86.get_pc_thunk.bx>
  1004e6:	81 c3 1a 3b 01 00    	add    ebx,0x13b1a
  1004ec:	c7 c0 c0 dc 12 00    	mov    eax,0x12dcc0
  1004f2:	89 45 f4             	mov    DWORD PTR [ebp-0xc],eax
  1004f5:	66 c7 45 f2 28 00    	mov    WORD PTR [ebp-0xe],0x28
  1004fb:	c7 45 ec 00 00 00 00 	mov    DWORD PTR [ebp-0x14],0x0
  100502:	eb 3e                	jmp    100542 <init_proc_ldts+0x68>
  100504:	83 ec 0c             	sub    esp,0xc
  100507:	6a 10                	push   0x10
  100509:	e8 46 07 00 00       	call   100c54 <seg2phys>
  10050e:	83 c4 10             	add    esp,0x10
  100511:	89 c2                	mov    edx,eax
  100513:	8b 45 f4             	mov    eax,DWORD PTR [ebp-0xc]
  100516:	83 c0 4c             	add    eax,0x4c
  100519:	01 d0                	add    eax,edx
  10051b:	68 82 00 00 00       	push   0x82
  100520:	6a 0f                	push   0xf
  100522:	50                   	push   eax
  100523:	c7 c0 20 50 11 00    	mov    eax,0x115020
  100529:	8d 40 28             	lea    eax,[eax+0x28]
  10052c:	50                   	push   eax
  10052d:	e8 ab 06 00 00       	call   100bdd <set_desc>
  100532:	83 c4 10             	add    esp,0x10
  100535:	83 45 f4 70          	add    DWORD PTR [ebp-0xc],0x70
  100539:	66 83 45 f2 08       	add    WORD PTR [ebp-0xe],0x8
  10053e:	83 45 ec 01          	add    DWORD PTR [ebp-0x14],0x1
  100542:	83 7d ec 02          	cmp    DWORD PTR [ebp-0x14],0x2
  100546:	7e bc                	jle    100504 <init_proc_ldts+0x2a>
  100548:	90                   	nop
  100549:	8b 5d fc             	mov    ebx,DWORD PTR [ebp-0x4]
  10054c:	c9                   	leave  
  10054d:	c3                   	ret    

0010054e <init_tss>:
  10054e:	55                   	push   ebp
  10054f:	89 e5                	mov    ebp,esp
  100551:	53                   	push   ebx
  100552:	83 ec 04             	sub    esp,0x4
  100555:	e8 6f 00 00 00       	call   1005c9 <__x86.get_pc_thunk.bx>
  10055a:	81 c3 a6 3a 01 00    	add    ebx,0x13aa6
  100560:	83 ec 04             	sub    esp,0x4
  100563:	6a 68                	push   0x68
  100565:	6a 00                	push   0x0
  100567:	c7 c0 20 54 11 00    	mov    eax,0x115420
  10056d:	50                   	push   eax
  10056e:	e8 08 2a 00 00       	call   102f7b <memset>
  100573:	83 c4 10             	add    esp,0x10
  100576:	c7 c0 20 54 11 00    	mov    eax,0x115420
  10057c:	66 c7 40 08 10 00    	mov    WORD PTR [eax+0x8],0x10
  100582:	c7 c0 20 54 11 00    	mov    eax,0x115420
  100588:	66 c7 40 66 68 00    	mov    WORD PTR [eax+0x66],0x68
  10058e:	83 ec 0c             	sub    esp,0xc
  100591:	6a 10                	push   0x10
  100593:	e8 bc 06 00 00       	call   100c54 <seg2phys>
  100598:	83 c4 10             	add    esp,0x10
  10059b:	89 c2                	mov    edx,eax
  10059d:	c7 c0 20 54 11 00    	mov    eax,0x115420
  1005a3:	01 d0                	add    eax,edx
  1005a5:	68 89 00 00 00       	push   0x89
  1005aa:	6a 67                	push   0x67
  1005ac:	50                   	push   eax
  1005ad:	c7 c0 20 50 11 00    	mov    eax,0x115020
  1005b3:	8d 40 20             	lea    eax,[eax+0x20]
  1005b6:	50                   	push   eax
  1005b7:	e8 21 06 00 00       	call   100bdd <set_desc>
  1005bc:	83 c4 10             	add    esp,0x10
  1005bf:	90                   	nop
  1005c0:	8b 5d fc             	mov    ebx,DWORD PTR [ebp-0x4]
  1005c3:	c9                   	leave  
  1005c4:	c3                   	ret    

001005c5 <__x86.get_pc_thunk.ax>:
  1005c5:	8b 04 24             	mov    eax,DWORD PTR [esp]
  1005c8:	c3                   	ret    

001005c9 <__x86.get_pc_thunk.bx>:
  1005c9:	8b 1c 24             	mov    ebx,DWORD PTR [esp]
  1005cc:	c3                   	ret    
  1005cd:	66 90                	xchg   ax,ax
  1005cf:	90                   	nop

001005d0 <divide_error>:
  1005d0:	6a ff                	push   0xffffffff
  1005d2:	6a 00                	push   0x0
  1005d4:	eb 4e                	jmp    100624 <exception>

001005d6 <single_step_exception>:
  1005d6:	6a ff                	push   0xffffffff
  1005d8:	6a 01                	push   0x1
  1005da:	eb 48                	jmp    100624 <exception>

001005dc <nmi>:
  1005dc:	6a ff                	push   0xffffffff
  1005de:	6a 02                	push   0x2
  1005e0:	eb 42                	jmp    100624 <exception>

001005e2 <breakpoint_exception>:
  1005e2:	6a ff                	push   0xffffffff
  1005e4:	6a 03                	push   0x3
  1005e6:	eb 3c                	jmp    100624 <exception>

001005e8 <overflow>:
  1005e8:	6a ff                	push   0xffffffff
  1005ea:	6a 04                	push   0x4
  1005ec:	eb 36                	jmp    100624 <exception>

001005ee <bounds_check>:
  1005ee:	6a ff                	push   0xffffffff
  1005f0:	6a 05                	push   0x5
  1005f2:	eb 30                	jmp    100624 <exception>

001005f4 <inval_opcode>:
  1005f4:	6a ff                	push   0xffffffff
  1005f6:	6a 06                	push   0x6
  1005f8:	eb 2a                	jmp    100624 <exception>

001005fa <copr_not_available>:
  1005fa:	6a ff                	push   0xffffffff
  1005fc:	6a 07                	push   0x7
  1005fe:	eb 24                	jmp    100624 <exception>

00100600 <double_fault>:
  100600:	6a 08                	push   0x8
  100602:	eb 20                	jmp    100624 <exception>

00100604 <copr_seg_overrun>:
  100604:	6a ff                	push   0xffffffff
  100606:	6a 09                	push   0x9
  100608:	eb 1a                	jmp    100624 <exception>

0010060a <inval_tss>:
  10060a:	6a 0a                	push   0xa
  10060c:	eb 16                	jmp    100624 <exception>

0010060e <segment_not_present>:
  10060e:	6a 0b                	push   0xb
  100610:	eb 12                	jmp    100624 <exception>

00100612 <stack_exception>:
  100612:	6a 0c                	push   0xc
  100614:	eb 0e                	jmp    100624 <exception>

00100616 <general_protection>:
  100616:	6a 0d                	push   0xd
  100618:	eb 0a                	jmp    100624 <exception>

0010061a <page_fault>:
  10061a:	6a 0e                	push   0xe
  10061c:	eb 06                	jmp    100624 <exception>

0010061e <copr_error>:
  10061e:	6a ff                	push   0xffffffff
  100620:	6a 10                	push   0x10
  100622:	eb 00                	jmp    100624 <exception>

00100624 <exception>:
  100624:	e8 7b 03 00 00       	call   1009a4 <exception_handler>
  100629:	83 c4 08             	add    esp,0x8
  10062c:	f4                   	hlt    
  10062d:	90                   	nop
  10062e:	90                   	nop
  10062f:	90                   	nop

00100630 <hwint00>:
  100630:	e8 ab 06 00 00       	call   100ce0 <save>
  100635:	e4 21                	in     al,0x21
  100637:	0c 01                	or     al,0x1
  100639:	e6 21                	out    0x21,al
  10063b:	b0 20                	mov    al,0x20
  10063d:	e6 20                	out    0x20,al
  10063f:	fb                   	sti    
  100640:	6a 00                	push   0x0
  100642:	ff 15 80 40 11 00    	call   DWORD PTR ds:0x114080
  100648:	59                   	pop    ecx
  100649:	fa                   	cli    
  10064a:	e4 21                	in     al,0x21
  10064c:	24 fe                	and    al,0xfe
  10064e:	e6 21                	out    0x21,al
  100650:	c3                   	ret    
  100651:	90                   	nop
  100652:	90                   	nop
  100653:	90                   	nop
  100654:	90                   	nop
  100655:	90                   	nop
  100656:	90                   	nop
  100657:	90                   	nop
  100658:	90                   	nop
  100659:	90                   	nop
  10065a:	90                   	nop
  10065b:	90                   	nop
  10065c:	90                   	nop
  10065d:	90                   	nop
  10065e:	90                   	nop
  10065f:	90                   	nop

00100660 <hwint01>:
  100660:	e8 7b 06 00 00       	call   100ce0 <save>
  100665:	e4 21                	in     al,0x21
  100667:	0c 02                	or     al,0x2
  100669:	e6 21                	out    0x21,al
  10066b:	b0 20                	mov    al,0x20
  10066d:	e6 20                	out    0x20,al
  10066f:	fb                   	sti    
  100670:	6a 01                	push   0x1
  100672:	ff 15 84 40 11 00    	call   DWORD PTR ds:0x114084
  100678:	59                   	pop    ecx
  100679:	fa                   	cli    
  10067a:	e4 21                	in     al,0x21
  10067c:	24 fd                	and    al,0xfd
  10067e:	e6 21                	out    0x21,al
  100680:	c3                   	ret    
  100681:	90                   	nop
  100682:	90                   	nop
  100683:	90                   	nop
  100684:	90                   	nop
  100685:	90                   	nop
  100686:	90                   	nop
  100687:	90                   	nop
  100688:	90                   	nop
  100689:	90                   	nop
  10068a:	90                   	nop
  10068b:	90                   	nop
  10068c:	90                   	nop
  10068d:	90                   	nop
  10068e:	90                   	nop
  10068f:	90                   	nop

00100690 <hwint02>:
  100690:	e8 4b 06 00 00       	call   100ce0 <save>
  100695:	e4 21                	in     al,0x21
  100697:	0c 04                	or     al,0x4
  100699:	e6 21                	out    0x21,al
  10069b:	b0 20                	mov    al,0x20
  10069d:	e6 20                	out    0x20,al
  10069f:	fb                   	sti    
  1006a0:	6a 02                	push   0x2
  1006a2:	ff 15 88 40 11 00    	call   DWORD PTR ds:0x114088
  1006a8:	59                   	pop    ecx
  1006a9:	fa                   	cli    
  1006aa:	e4 21                	in     al,0x21
  1006ac:	24 fb                	and    al,0xfb
  1006ae:	e6 21                	out    0x21,al
  1006b0:	c3                   	ret    
  1006b1:	90                   	nop
  1006b2:	90                   	nop
  1006b3:	90                   	nop
  1006b4:	90                   	nop
  1006b5:	90                   	nop
  1006b6:	90                   	nop
  1006b7:	90                   	nop
  1006b8:	90                   	nop
  1006b9:	90                   	nop
  1006ba:	90                   	nop
  1006bb:	90                   	nop
  1006bc:	90                   	nop
  1006bd:	90                   	nop
  1006be:	90                   	nop
  1006bf:	90                   	nop

001006c0 <hwint03>:
  1006c0:	e8 1b 06 00 00       	call   100ce0 <save>
  1006c5:	e4 21                	in     al,0x21
  1006c7:	0c 08                	or     al,0x8
  1006c9:	e6 21                	out    0x21,al
  1006cb:	b0 20                	mov    al,0x20
  1006cd:	e6 20                	out    0x20,al
  1006cf:	fb                   	sti    
  1006d0:	6a 03                	push   0x3
  1006d2:	ff 15 8c 40 11 00    	call   DWORD PTR ds:0x11408c
  1006d8:	59                   	pop    ecx
  1006d9:	fa                   	cli    
  1006da:	e4 21                	in     al,0x21
  1006dc:	24 f7                	and    al,0xf7
  1006de:	e6 21                	out    0x21,al
  1006e0:	c3                   	ret    
  1006e1:	90                   	nop
  1006e2:	90                   	nop
  1006e3:	90                   	nop
  1006e4:	90                   	nop
  1006e5:	90                   	nop
  1006e6:	90                   	nop
  1006e7:	90                   	nop
  1006e8:	90                   	nop
  1006e9:	90                   	nop
  1006ea:	90                   	nop
  1006eb:	90                   	nop
  1006ec:	90                   	nop
  1006ed:	90                   	nop
  1006ee:	90                   	nop
  1006ef:	90                   	nop

001006f0 <hwint04>:
  1006f0:	e8 eb 05 00 00       	call   100ce0 <save>
  1006f5:	e4 21                	in     al,0x21
  1006f7:	0c 10                	or     al,0x10
  1006f9:	e6 21                	out    0x21,al
  1006fb:	b0 20                	mov    al,0x20
  1006fd:	e6 20                	out    0x20,al
  1006ff:	fb                   	sti    
  100700:	6a 04                	push   0x4
  100702:	ff 15 90 40 11 00    	call   DWORD PTR ds:0x114090
  100708:	59                   	pop    ecx
  100709:	fa                   	cli    
  10070a:	e4 21                	in     al,0x21
  10070c:	24 ef                	and    al,0xef
  10070e:	e6 21                	out    0x21,al
  100710:	c3                   	ret    
  100711:	90                   	nop
  100712:	90                   	nop
  100713:	90                   	nop
  100714:	90                   	nop
  100715:	90                   	nop
  100716:	90                   	nop
  100717:	90                   	nop
  100718:	90                   	nop
  100719:	90                   	nop
  10071a:	90                   	nop
  10071b:	90                   	nop
  10071c:	90                   	nop
  10071d:	90                   	nop
  10071e:	90                   	nop
  10071f:	90                   	nop

00100720 <hwint05>:
  100720:	e8 bb 05 00 00       	call   100ce0 <save>
  100725:	e4 21                	in     al,0x21
  100727:	0c 20                	or     al,0x20
  100729:	e6 21                	out    0x21,al
  10072b:	b0 20                	mov    al,0x20
  10072d:	e6 20                	out    0x20,al
  10072f:	fb                   	sti    
  100730:	6a 05                	push   0x5
  100732:	ff 15 94 40 11 00    	call   DWORD PTR ds:0x114094
  100738:	59                   	pop    ecx
  100739:	fa                   	cli    
  10073a:	e4 21                	in     al,0x21
  10073c:	24 df                	and    al,0xdf
  10073e:	e6 21                	out    0x21,al
  100740:	c3                   	ret    
  100741:	90                   	nop
  100742:	90                   	nop
  100743:	90                   	nop
  100744:	90                   	nop
  100745:	90                   	nop
  100746:	90                   	nop
  100747:	90                   	nop
  100748:	90                   	nop
  100749:	90                   	nop
  10074a:	90                   	nop
  10074b:	90                   	nop
  10074c:	90                   	nop
  10074d:	90                   	nop
  10074e:	90                   	nop
  10074f:	90                   	nop

00100750 <hwint06>:
  100750:	e8 8b 05 00 00       	call   100ce0 <save>
  100755:	e4 21                	in     al,0x21
  100757:	0c 40                	or     al,0x40
  100759:	e6 21                	out    0x21,al
  10075b:	b0 20                	mov    al,0x20
  10075d:	e6 20                	out    0x20,al
  10075f:	fb                   	sti    
  100760:	6a 06                	push   0x6
  100762:	ff 15 98 40 11 00    	call   DWORD PTR ds:0x114098
  100768:	59                   	pop    ecx
  100769:	fa                   	cli    
  10076a:	e4 21                	in     al,0x21
  10076c:	24 bf                	and    al,0xbf
  10076e:	e6 21                	out    0x21,al
  100770:	c3                   	ret    
  100771:	90                   	nop
  100772:	90                   	nop
  100773:	90                   	nop
  100774:	90                   	nop
  100775:	90                   	nop
  100776:	90                   	nop
  100777:	90                   	nop
  100778:	90                   	nop
  100779:	90                   	nop
  10077a:	90                   	nop
  10077b:	90                   	nop
  10077c:	90                   	nop
  10077d:	90                   	nop
  10077e:	90                   	nop
  10077f:	90                   	nop

00100780 <hwint07>:
  100780:	e8 5b 05 00 00       	call   100ce0 <save>
  100785:	e4 21                	in     al,0x21
  100787:	0c 80                	or     al,0x80
  100789:	e6 21                	out    0x21,al
  10078b:	b0 20                	mov    al,0x20
  10078d:	e6 20                	out    0x20,al
  10078f:	fb                   	sti    
  100790:	6a 07                	push   0x7
  100792:	ff 15 9c 40 11 00    	call   DWORD PTR ds:0x11409c
  100798:	59                   	pop    ecx
  100799:	fa                   	cli    
  10079a:	e4 21                	in     al,0x21
  10079c:	24 7f                	and    al,0x7f
  10079e:	e6 21                	out    0x21,al
  1007a0:	c3                   	ret    
  1007a1:	90                   	nop
  1007a2:	90                   	nop
  1007a3:	90                   	nop
  1007a4:	90                   	nop
  1007a5:	90                   	nop
  1007a6:	90                   	nop
  1007a7:	90                   	nop
  1007a8:	90                   	nop
  1007a9:	90                   	nop
  1007aa:	90                   	nop
  1007ab:	90                   	nop
  1007ac:	90                   	nop
  1007ad:	90                   	nop
  1007ae:	90                   	nop
  1007af:	90                   	nop

001007b0 <hwint08>:
  1007b0:	e8 2b 05 00 00       	call   100ce0 <save>
  1007b5:	e4 a1                	in     al,0xa1
  1007b7:	0c 01                	or     al,0x1
  1007b9:	e6 a1                	out    0xa1,al
  1007bb:	b0 20                	mov    al,0x20
  1007bd:	e6 20                	out    0x20,al
  1007bf:	90                   	nop
  1007c0:	e6 a0                	out    0xa0,al
  1007c2:	90                   	nop
  1007c3:	fb                   	sti    
  1007c4:	6a 08                	push   0x8
  1007c6:	ff 15 a0 40 11 00    	call   DWORD PTR ds:0x1140a0
  1007cc:	59                   	pop    ecx
  1007cd:	fa                   	cli    
  1007ce:	e4 a1                	in     al,0xa1
  1007d0:	24 fe                	and    al,0xfe
  1007d2:	e6 a1                	out    0xa1,al
  1007d4:	c3                   	ret    
  1007d5:	90                   	nop
  1007d6:	90                   	nop
  1007d7:	90                   	nop
  1007d8:	90                   	nop
  1007d9:	90                   	nop
  1007da:	90                   	nop
  1007db:	90                   	nop
  1007dc:	90                   	nop
  1007dd:	90                   	nop
  1007de:	90                   	nop
  1007df:	90                   	nop

001007e0 <hwint09>:
  1007e0:	e8 fb 04 00 00       	call   100ce0 <save>
  1007e5:	e4 a1                	in     al,0xa1
  1007e7:	0c 02                	or     al,0x2
  1007e9:	e6 a1                	out    0xa1,al
  1007eb:	b0 20                	mov    al,0x20
  1007ed:	e6 20                	out    0x20,al
  1007ef:	90                   	nop
  1007f0:	e6 a0                	out    0xa0,al
  1007f2:	90                   	nop
  1007f3:	fb                   	sti    
  1007f4:	6a 09                	push   0x9
  1007f6:	ff 15 a4 40 11 00    	call   DWORD PTR ds:0x1140a4
  1007fc:	59                   	pop    ecx
  1007fd:	fa                   	cli    
  1007fe:	e4 a1                	in     al,0xa1
  100800:	24 fd                	and    al,0xfd
  100802:	e6 a1                	out    0xa1,al
  100804:	c3                   	ret    
  100805:	90                   	nop
  100806:	90                   	nop
  100807:	90                   	nop
  100808:	90                   	nop
  100809:	90                   	nop
  10080a:	90                   	nop
  10080b:	90                   	nop
  10080c:	90                   	nop
  10080d:	90                   	nop
  10080e:	90                   	nop
  10080f:	90                   	nop

00100810 <hwint10>:
  100810:	e8 cb 04 00 00       	call   100ce0 <save>
  100815:	e4 a1                	in     al,0xa1
  100817:	0c 04                	or     al,0x4
  100819:	e6 a1                	out    0xa1,al
  10081b:	b0 20                	mov    al,0x20
  10081d:	e6 20                	out    0x20,al
  10081f:	90                   	nop
  100820:	e6 a0                	out    0xa0,al
  100822:	90                   	nop
  100823:	fb                   	sti    
  100824:	6a 0a                	push   0xa
  100826:	ff 15 a8 40 11 00    	call   DWORD PTR ds:0x1140a8
  10082c:	59                   	pop    ecx
  10082d:	fa                   	cli    
  10082e:	e4 a1                	in     al,0xa1
  100830:	24 fb                	and    al,0xfb
  100832:	e6 a1                	out    0xa1,al
  100834:	c3                   	ret    
  100835:	90                   	nop
  100836:	90                   	nop
  100837:	90                   	nop
  100838:	90                   	nop
  100839:	90                   	nop
  10083a:	90                   	nop
  10083b:	90                   	nop
  10083c:	90                   	nop
  10083d:	90                   	nop
  10083e:	90                   	nop
  10083f:	90                   	nop

00100840 <hwint11>:
  100840:	e8 9b 04 00 00       	call   100ce0 <save>
  100845:	e4 a1                	in     al,0xa1
  100847:	0c 08                	or     al,0x8
  100849:	e6 a1                	out    0xa1,al
  10084b:	b0 20                	mov    al,0x20
  10084d:	e6 20                	out    0x20,al
  10084f:	90                   	nop
  100850:	e6 a0                	out    0xa0,al
  100852:	90                   	nop
  100853:	fb                   	sti    
  100854:	6a 0b                	push   0xb
  100856:	ff 15 ac 40 11 00    	call   DWORD PTR ds:0x1140ac
  10085c:	59                   	pop    ecx
  10085d:	fa                   	cli    
  10085e:	e4 a1                	in     al,0xa1
  100860:	24 f7                	and    al,0xf7
  100862:	e6 a1                	out    0xa1,al
  100864:	c3                   	ret    
  100865:	90                   	nop
  100866:	90                   	nop
  100867:	90                   	nop
  100868:	90                   	nop
  100869:	90                   	nop
  10086a:	90                   	nop
  10086b:	90                   	nop
  10086c:	90                   	nop
  10086d:	90                   	nop
  10086e:	90                   	nop
  10086f:	90                   	nop

00100870 <hwint12>:
  100870:	e8 6b 04 00 00       	call   100ce0 <save>
  100875:	e4 a1                	in     al,0xa1
  100877:	0c 10                	or     al,0x10
  100879:	e6 a1                	out    0xa1,al
  10087b:	b0 20                	mov    al,0x20
  10087d:	e6 20                	out    0x20,al
  10087f:	90                   	nop
  100880:	e6 a0                	out    0xa0,al
  100882:	90                   	nop
  100883:	fb                   	sti    
  100884:	6a 0c                	push   0xc
  100886:	ff 15 b0 40 11 00    	call   DWORD PTR ds:0x1140b0
  10088c:	59                   	pop    ecx
  10088d:	fa                   	cli    
  10088e:	e4 a1                	in     al,0xa1
  100890:	24 ef                	and    al,0xef
  100892:	e6 a1                	out    0xa1,al
  100894:	c3                   	ret    
  100895:	90                   	nop
  100896:	90                   	nop
  100897:	90                   	nop
  100898:	90                   	nop
  100899:	90                   	nop
  10089a:	90                   	nop
  10089b:	90                   	nop
  10089c:	90                   	nop
  10089d:	90                   	nop
  10089e:	90                   	nop
  10089f:	90                   	nop

001008a0 <hwint13>:
  1008a0:	e8 3b 04 00 00       	call   100ce0 <save>
  1008a5:	e4 a1                	in     al,0xa1
  1008a7:	0c 20                	or     al,0x20
  1008a9:	e6 a1                	out    0xa1,al
  1008ab:	b0 20                	mov    al,0x20
  1008ad:	e6 20                	out    0x20,al
  1008af:	90                   	nop
  1008b0:	e6 a0                	out    0xa0,al
  1008b2:	90                   	nop
  1008b3:	fb                   	sti    
  1008b4:	6a 0d                	push   0xd
  1008b6:	ff 15 b4 40 11 00    	call   DWORD PTR ds:0x1140b4
  1008bc:	59                   	pop    ecx
  1008bd:	fa                   	cli    
  1008be:	e4 a1                	in     al,0xa1
  1008c0:	24 df                	and    al,0xdf
  1008c2:	e6 a1                	out    0xa1,al
  1008c4:	c3                   	ret    
  1008c5:	90                   	nop
  1008c6:	90                   	nop
  1008c7:	90                   	nop
  1008c8:	90                   	nop
  1008c9:	90                   	nop
  1008ca:	90                   	nop
  1008cb:	90                   	nop
  1008cc:	90                   	nop
  1008cd:	90                   	nop
  1008ce:	90                   	nop
  1008cf:	90                   	nop

001008d0 <hwint14>:
  1008d0:	e8 0b 04 00 00       	call   100ce0 <save>
  1008d5:	e4 a1                	in     al,0xa1
  1008d7:	0c 40                	or     al,0x40
  1008d9:	e6 a1                	out    0xa1,al
  1008db:	b0 20                	mov    al,0x20
  1008dd:	e6 20                	out    0x20,al
  1008df:	90                   	nop
  1008e0:	e6 a0                	out    0xa0,al
  1008e2:	90                   	nop
  1008e3:	fb                   	sti    
  1008e4:	6a 0e                	push   0xe
  1008e6:	ff 15 b8 40 11 00    	call   DWORD PTR ds:0x1140b8
  1008ec:	59                   	pop    ecx
  1008ed:	fa                   	cli    
  1008ee:	e4 a1                	in     al,0xa1
  1008f0:	24 bf                	and    al,0xbf
  1008f2:	e6 a1                	out    0xa1,al
  1008f4:	c3                   	ret    
  1008f5:	90                   	nop
  1008f6:	90                   	nop
  1008f7:	90                   	nop
  1008f8:	90                   	nop
  1008f9:	90                   	nop
  1008fa:	90                   	nop
  1008fb:	90                   	nop
  1008fc:	90                   	nop
  1008fd:	90                   	nop
  1008fe:	90                   	nop
  1008ff:	90                   	nop

00100900 <hwint15>:
  100900:	e8 db 03 00 00       	call   100ce0 <save>
  100905:	e4 a1                	in     al,0xa1
  100907:	0c 80                	or     al,0x80
  100909:	e6 a1                	out    0xa1,al
  10090b:	b0 20                	mov    al,0x20
  10090d:	e6 20                	out    0x20,al
  10090f:	90                   	nop
  100910:	e6 a0                	out    0xa0,al
  100912:	90                   	nop
  100913:	fb                   	sti    
  100914:	6a 0f                	push   0xf
  100916:	ff 15 bc 40 11 00    	call   DWORD PTR ds:0x1140bc
  10091c:	59                   	pop    ecx
  10091d:	fa                   	cli    
  10091e:	e4 a1                	in     al,0xa1
  100920:	24 7f                	and    al,0x7f
  100922:	e6 a1                	out    0xa1,al
  100924:	c3                   	ret    
  100925:	90                   	nop
  100926:	90                   	nop
  100927:	90                   	nop
  100928:	90                   	nop
  100929:	90                   	nop
  10092a:	90                   	nop
  10092b:	90                   	nop
  10092c:	90                   	nop
  10092d:	90                   	nop
  10092e:	90                   	nop
  10092f:	90                   	nop

00100930 <syscall_entry>:
  100930:	e8 ab 03 00 00       	call   100ce0 <save>
  100935:	fb                   	sti    
  100936:	ff 14 85 c0 40 11 00 	call   DWORD PTR [eax*4+0x1140c0]
  10093d:	89 46 2c             	mov    DWORD PTR [esi+0x2c],eax
  100940:	fa                   	cli    
  100941:	c3                   	ret    
  100942:	66 90                	xchg   ax,ax
  100944:	66 90                	xchg   ax,ax
  100946:	66 90                	xchg   ax,ax
  100948:	66 90                	xchg   ax,ax
  10094a:	66 90                	xchg   ax,ax
  10094c:	66 90                	xchg   ax,ax
  10094e:	66 90                	xchg   ax,ax

00100950 <disable_irq>:
  100950:	8b 4c 24 04          	mov    ecx,DWORD PTR [esp+0x4]
  100954:	9c                   	pushf  
  100955:	fa                   	cli    
  100956:	b4 01                	mov    ah,0x1
  100958:	d2 c4                	rol    ah,cl
  10095a:	80 f9 08             	cmp    cl,0x8
  10095d:	73 11                	jae    100970 <disable_8>

0010095f <disable_0>:
  10095f:	e4 21                	in     al,0x21
  100961:	84 e0                	test   al,ah
  100963:	75 1c                	jne    100981 <dis_already>
  100965:	08 e0                	or     al,ah
  100967:	e6 21                	out    0x21,al
  100969:	9d                   	popf   
  10096a:	b8 01 00 00 00       	mov    eax,0x1
  10096f:	c3                   	ret    

00100970 <disable_8>:
  100970:	e4 a1                	in     al,0xa1
  100972:	84 e0                	test   al,ah
  100974:	75 0b                	jne    100981 <dis_already>
  100976:	08 e0                	or     al,ah
  100978:	e6 a1                	out    0xa1,al
  10097a:	9d                   	popf   
  10097b:	b8 01 00 00 00       	mov    eax,0x1
  100980:	c3                   	ret    

00100981 <dis_already>:
  100981:	9d                   	popf   
  100982:	31 c0                	xor    eax,eax
  100984:	c3                   	ret    

00100985 <enable_irq>:
  100985:	8b 4c 24 04          	mov    ecx,DWORD PTR [esp+0x4]
  100989:	9c                   	pushf  
  10098a:	fa                   	cli    
  10098b:	b4 fe                	mov    ah,0xfe
  10098d:	d2 c4                	rol    ah,cl
  10098f:	80 f9 08             	cmp    cl,0x8
  100992:	73 08                	jae    10099c <enable_8>

00100994 <enable_0>:
  100994:	e4 21                	in     al,0x21
  100996:	20 e0                	and    al,ah
  100998:	e6 21                	out    0x21,al
  10099a:	9d                   	popf   
  10099b:	c3                   	ret    

0010099c <enable_8>:
  10099c:	e4 a1                	in     al,0xa1
  10099e:	20 e0                	and    al,ah
  1009a0:	e6 a1                	out    0xa1,al
  1009a2:	9d                   	popf   
  1009a3:	c3                   	ret    

001009a4 <exception_handler>:
  1009a4:	55                   	push   ebp
  1009a5:	89 e5                	mov    ebp,esp
  1009a7:	56                   	push   esi
  1009a8:	53                   	push   ebx
  1009a9:	83 ec 10             	sub    esp,0x10
  1009ac:	e8 18 fc ff ff       	call   1005c9 <__x86.get_pc_thunk.bx>
  1009b1:	81 c3 4f 36 01 00    	add    ebx,0x1364f
  1009b7:	c7 45 f4 07 00 00 00 	mov    DWORD PTR [ebp-0xc],0x7
  1009be:	c7 c0 f0 3f 11 00    	mov    eax,0x113ff0
  1009c4:	0f b6 40 01          	movzx  eax,BYTE PTR [eax+0x1]
  1009c8:	0f b6 d0             	movzx  edx,al
  1009cb:	89 d0                	mov    eax,edx
  1009cd:	c1 e0 02             	shl    eax,0x2
  1009d0:	01 c2                	add    edx,eax
  1009d2:	c7 c0 e8 df 12 00    	mov    eax,0x12dfe8
  1009d8:	8b 00                	mov    eax,DWORD PTR [eax]
  1009da:	83 ec 0c             	sub    esp,0xc
  1009dd:	6a 00                	push   0x0
  1009df:	52                   	push   edx
  1009e0:	50                   	push   eax
  1009e1:	6a 00                	push   0x0
  1009e3:	6a 00                	push   0x0
  1009e5:	e8 61 16 00 00       	call   10204b <fillRect>
  1009ea:	83 c4 20             	add    esp,0x20
  1009ed:	83 ec 08             	sub    esp,0x8
  1009f0:	6a 00                	push   0x0
  1009f2:	6a 00                	push   0x0
  1009f4:	e8 50 19 00 00       	call   102349 <gotoxy>
  1009f9:	83 c4 10             	add    esp,0x10
  1009fc:	8b 45 f4             	mov    eax,DWORD PTR [ebp-0xc]
  1009ff:	0f b6 c0             	movzx  eax,al
  100a02:	83 ec 08             	sub    esp,0x8
  100a05:	50                   	push   eax
  100a06:	8d 83 c0 fa fe ff    	lea    eax,[ebx-0x10540]
  100a0c:	50                   	push   eax
  100a0d:	e8 85 1a 00 00       	call   102497 <printstr>
  100a12:	83 c4 10             	add    esp,0x10
  100a15:	8b 45 f4             	mov    eax,DWORD PTR [ebp-0xc]
  100a18:	0f b6 d0             	movzx  edx,al
  100a1b:	8b 45 08             	mov    eax,DWORD PTR [ebp+0x8]
  100a1e:	8b 84 83 20 00 00 00 	mov    eax,DWORD PTR [ebx+eax*4+0x20]
  100a25:	83 ec 08             	sub    esp,0x8
  100a28:	52                   	push   edx
  100a29:	50                   	push   eax
  100a2a:	e8 68 1a 00 00       	call   102497 <printstr>
  100a2f:	83 c4 10             	add    esp,0x10
  100a32:	8b 45 f4             	mov    eax,DWORD PTR [ebp-0xc]
  100a35:	0f b6 c0             	movzx  eax,al
  100a38:	83 ec 08             	sub    esp,0x8
  100a3b:	50                   	push   eax
  100a3c:	8d 83 d0 fa fe ff    	lea    eax,[ebx-0x10530]
  100a42:	50                   	push   eax
  100a43:	e8 4f 1a 00 00       	call   102497 <printstr>
  100a48:	83 c4 10             	add    esp,0x10
  100a4b:	8b 45 f4             	mov    eax,DWORD PTR [ebp-0xc]
  100a4e:	0f b6 f0             	movzx  esi,al
  100a51:	8b 45 18             	mov    eax,DWORD PTR [ebp+0x18]
  100a54:	83 ec 08             	sub    esp,0x8
  100a57:	6a 10                	push   0x10
  100a59:	50                   	push   eax
  100a5a:	e8 86 25 00 00       	call   102fe5 <itoa>
  100a5f:	83 c4 10             	add    esp,0x10
  100a62:	83 ec 08             	sub    esp,0x8
  100a65:	56                   	push   esi
  100a66:	50                   	push   eax
  100a67:	e8 2b 1a 00 00       	call   102497 <printstr>
  100a6c:	83 c4 10             	add    esp,0x10
  100a6f:	8b 45 f4             	mov    eax,DWORD PTR [ebp-0xc]
  100a72:	0f b6 c0             	movzx  eax,al
  100a75:	83 ec 08             	sub    esp,0x8
  100a78:	50                   	push   eax
  100a79:	8d 83 dc fa fe ff    	lea    eax,[ebx-0x10524]
  100a7f:	50                   	push   eax
  100a80:	e8 12 1a 00 00       	call   102497 <printstr>
  100a85:	83 c4 10             	add    esp,0x10
  100a88:	8b 45 f4             	mov    eax,DWORD PTR [ebp-0xc]
  100a8b:	0f b6 f0             	movzx  esi,al
  100a8e:	8b 45 14             	mov    eax,DWORD PTR [ebp+0x14]
  100a91:	83 ec 08             	sub    esp,0x8
  100a94:	6a 10                	push   0x10
  100a96:	50                   	push   eax
  100a97:	e8 49 25 00 00       	call   102fe5 <itoa>
  100a9c:	83 c4 10             	add    esp,0x10
  100a9f:	83 ec 08             	sub    esp,0x8
  100aa2:	56                   	push   esi
  100aa3:	50                   	push   eax
  100aa4:	e8 ee 19 00 00       	call   102497 <printstr>
  100aa9:	83 c4 10             	add    esp,0x10
  100aac:	8b 45 f4             	mov    eax,DWORD PTR [ebp-0xc]
  100aaf:	0f b6 c0             	movzx  eax,al
  100ab2:	83 ec 08             	sub    esp,0x8
  100ab5:	50                   	push   eax
  100ab6:	8d 83 e4 fa fe ff    	lea    eax,[ebx-0x1051c]
  100abc:	50                   	push   eax
  100abd:	e8 d5 19 00 00       	call   102497 <printstr>
  100ac2:	83 c4 10             	add    esp,0x10
  100ac5:	8b 45 f4             	mov    eax,DWORD PTR [ebp-0xc]
  100ac8:	0f b6 f0             	movzx  esi,al
  100acb:	8b 45 10             	mov    eax,DWORD PTR [ebp+0x10]
  100ace:	83 ec 08             	sub    esp,0x8
  100ad1:	6a 10                	push   0x10
  100ad3:	50                   	push   eax
  100ad4:	e8 0c 25 00 00       	call   102fe5 <itoa>
  100ad9:	83 c4 10             	add    esp,0x10
  100adc:	83 ec 08             	sub    esp,0x8
  100adf:	56                   	push   esi
  100ae0:	50                   	push   eax
  100ae1:	e8 b1 19 00 00       	call   102497 <printstr>
  100ae6:	83 c4 10             	add    esp,0x10
  100ae9:	83 7d 0c ff          	cmp    DWORD PTR [ebp+0xc],0xffffffff
  100aed:	74 3d                	je     100b2c <exception_handler+0x188>
  100aef:	8b 45 f4             	mov    eax,DWORD PTR [ebp-0xc]
  100af2:	0f b6 c0             	movzx  eax,al
  100af5:	83 ec 08             	sub    esp,0x8
  100af8:	50                   	push   eax
  100af9:	8d 83 ed fa fe ff    	lea    eax,[ebx-0x10513]
  100aff:	50                   	push   eax
  100b00:	e8 92 19 00 00       	call   102497 <printstr>
  100b05:	83 c4 10             	add    esp,0x10
  100b08:	8b 45 f4             	mov    eax,DWORD PTR [ebp-0xc]
  100b0b:	0f b6 f0             	movzx  esi,al
  100b0e:	8b 45 0c             	mov    eax,DWORD PTR [ebp+0xc]
  100b11:	83 ec 08             	sub    esp,0x8
  100b14:	6a 10                	push   0x10
  100b16:	50                   	push   eax
  100b17:	e8 c9 24 00 00       	call   102fe5 <itoa>
  100b1c:	83 c4 10             	add    esp,0x10
  100b1f:	83 ec 08             	sub    esp,0x8
  100b22:	56                   	push   esi
  100b23:	50                   	push   eax
  100b24:	e8 6e 19 00 00       	call   102497 <printstr>
  100b29:	83 c4 10             	add    esp,0x10
  100b2c:	90                   	nop
  100b2d:	8d 65 f8             	lea    esp,[ebp-0x8]
  100b30:	5b                   	pop    ebx
  100b31:	5e                   	pop    esi
  100b32:	5d                   	pop    ebp
  100b33:	c3                   	ret    

00100b34 <put_irq_handler>:
  100b34:	55                   	push   ebp
  100b35:	89 e5                	mov    ebp,esp
  100b37:	53                   	push   ebx
  100b38:	83 ec 04             	sub    esp,0x4
  100b3b:	e8 89 fa ff ff       	call   1005c9 <__x86.get_pc_thunk.bx>
  100b40:	81 c3 c0 34 01 00    	add    ebx,0x134c0
  100b46:	83 ec 0c             	sub    esp,0xc
  100b49:	ff 75 08             	push   DWORD PTR [ebp+0x8]
  100b4c:	e8 ff fd ff ff       	call   100950 <disable_irq>
  100b51:	83 c4 10             	add    esp,0x10
  100b54:	8b 45 08             	mov    eax,DWORD PTR [ebp+0x8]
  100b57:	8b 55 0c             	mov    edx,DWORD PTR [ebp+0xc]
  100b5a:	89 94 83 80 00 00 00 	mov    DWORD PTR [ebx+eax*4+0x80],edx
  100b61:	90                   	nop
  100b62:	8b 5d fc             	mov    ebx,DWORD PTR [ebp-0x4]
  100b65:	c9                   	leave  
  100b66:	c3                   	ret    

00100b67 <default_irq_handler>:
  100b67:	55                   	push   ebp
  100b68:	89 e5                	mov    ebp,esp
  100b6a:	53                   	push   ebx
  100b6b:	83 ec 04             	sub    esp,0x4
  100b6e:	e8 56 fa ff ff       	call   1005c9 <__x86.get_pc_thunk.bx>
  100b73:	81 c3 8d 34 01 00    	add    ebx,0x1348d
  100b79:	83 ec 08             	sub    esp,0x8
  100b7c:	6a 07                	push   0x7
  100b7e:	8d 83 fa fc fe ff    	lea    eax,[ebx-0x10306]
  100b84:	50                   	push   eax
  100b85:	e8 0d 19 00 00       	call   102497 <printstr>
  100b8a:	83 c4 10             	add    esp,0x10
  100b8d:	8b 45 08             	mov    eax,DWORD PTR [ebp+0x8]
  100b90:	83 ec 08             	sub    esp,0x8
  100b93:	6a 10                	push   0x10
  100b95:	50                   	push   eax
  100b96:	e8 4a 24 00 00       	call   102fe5 <itoa>
  100b9b:	83 c4 10             	add    esp,0x10
  100b9e:	83 ec 08             	sub    esp,0x8
  100ba1:	6a 07                	push   0x7
  100ba3:	50                   	push   eax
  100ba4:	e8 ee 18 00 00       	call   102497 <printstr>
  100ba9:	83 c4 10             	add    esp,0x10
  100bac:	90                   	nop
  100bad:	8b 5d fc             	mov    ebx,DWORD PTR [ebp-0x4]
  100bb0:	c9                   	leave  
  100bb1:	c3                   	ret    

00100bb2 <sys_get_ticks>:
  100bb2:	55                   	push   ebp
  100bb3:	89 e5                	mov    ebp,esp
  100bb5:	e8 0b fa ff ff       	call   1005c5 <__x86.get_pc_thunk.ax>
  100bba:	05 46 34 01 00       	add    eax,0x13446
  100bbf:	c7 c0 10 de 12 00    	mov    eax,0x12de10
  100bc5:	8b 00                	mov    eax,DWORD PTR [eax]
  100bc7:	5d                   	pop    ebp
  100bc8:	c3                   	ret    

00100bc9 <sys_nothing>:
  100bc9:	55                   	push   ebp
  100bca:	89 e5                	mov    ebp,esp
  100bcc:	e8 f4 f9 ff ff       	call   1005c5 <__x86.get_pc_thunk.ax>
  100bd1:	05 2f 34 01 00       	add    eax,0x1342f
  100bd6:	b8 00 00 00 00       	mov    eax,0x0
  100bdb:	5d                   	pop    ebp
  100bdc:	c3                   	ret    

00100bdd <set_desc>:
  100bdd:	55                   	push   ebp
  100bde:	89 e5                	mov    ebp,esp
  100be0:	83 ec 04             	sub    esp,0x4
  100be3:	e8 dd f9 ff ff       	call   1005c5 <__x86.get_pc_thunk.ax>
  100be8:	05 18 34 01 00       	add    eax,0x13418
  100bed:	8b 45 14             	mov    eax,DWORD PTR [ebp+0x14]
  100bf0:	66 89 45 fc          	mov    WORD PTR [ebp-0x4],ax
  100bf4:	8b 45 10             	mov    eax,DWORD PTR [ebp+0x10]
  100bf7:	89 c2                	mov    edx,eax
  100bf9:	8b 45 08             	mov    eax,DWORD PTR [ebp+0x8]
  100bfc:	66 89 10             	mov    WORD PTR [eax],dx
  100bff:	8b 45 0c             	mov    eax,DWORD PTR [ebp+0xc]
  100c02:	89 c2                	mov    edx,eax
  100c04:	8b 45 08             	mov    eax,DWORD PTR [ebp+0x8]
  100c07:	66 89 50 02          	mov    WORD PTR [eax+0x2],dx
  100c0b:	8b 45 0c             	mov    eax,DWORD PTR [ebp+0xc]
  100c0e:	c1 e8 10             	shr    eax,0x10
  100c11:	89 c2                	mov    edx,eax
  100c13:	8b 45 08             	mov    eax,DWORD PTR [ebp+0x8]
  100c16:	88 50 04             	mov    BYTE PTR [eax+0x4],dl
  100c19:	0f b7 45 fc          	movzx  eax,WORD PTR [ebp-0x4]
  100c1d:	89 c2                	mov    edx,eax
  100c1f:	8b 45 08             	mov    eax,DWORD PTR [ebp+0x8]
  100c22:	88 50 05             	mov    BYTE PTR [eax+0x5],dl
  100c25:	8b 45 10             	mov    eax,DWORD PTR [ebp+0x10]
  100c28:	c1 e8 10             	shr    eax,0x10
  100c2b:	83 e0 0f             	and    eax,0xf
  100c2e:	89 c2                	mov    edx,eax
  100c30:	0f b7 45 fc          	movzx  eax,WORD PTR [ebp-0x4]
  100c34:	66 c1 e8 08          	shr    ax,0x8
  100c38:	83 e0 f0             	and    eax,0xfffffff0
  100c3b:	09 c2                	or     edx,eax
  100c3d:	8b 45 08             	mov    eax,DWORD PTR [ebp+0x8]
  100c40:	88 50 06             	mov    BYTE PTR [eax+0x6],dl
  100c43:	8b 45 0c             	mov    eax,DWORD PTR [ebp+0xc]
  100c46:	c1 e8 18             	shr    eax,0x18
  100c49:	89 c2                	mov    edx,eax
  100c4b:	8b 45 08             	mov    eax,DWORD PTR [ebp+0x8]
  100c4e:	88 50 07             	mov    BYTE PTR [eax+0x7],dl
  100c51:	90                   	nop
  100c52:	c9                   	leave  
  100c53:	c3                   	ret    

00100c54 <seg2phys>:
  100c54:	55                   	push   ebp
  100c55:	89 e5                	mov    ebp,esp
  100c57:	83 ec 14             	sub    esp,0x14
  100c5a:	e8 66 f9 ff ff       	call   1005c5 <__x86.get_pc_thunk.ax>
  100c5f:	05 a1 33 01 00       	add    eax,0x133a1
  100c64:	8b 55 08             	mov    edx,DWORD PTR [ebp+0x8]
  100c67:	66 89 55 ec          	mov    WORD PTR [ebp-0x14],dx
  100c6b:	0f b7 55 ec          	movzx  edx,WORD PTR [ebp-0x14]
  100c6f:	66 c1 ea 03          	shr    dx,0x3
  100c73:	0f b7 d2             	movzx  edx,dx
  100c76:	c1 e2 03             	shl    edx,0x3
  100c79:	c7 c0 20 50 11 00    	mov    eax,0x115020
  100c7f:	01 d0                	add    eax,edx
  100c81:	89 45 fc             	mov    DWORD PTR [ebp-0x4],eax
  100c84:	8b 45 fc             	mov    eax,DWORD PTR [ebp-0x4]
  100c87:	0f b6 40 07          	movzx  eax,BYTE PTR [eax+0x7]
  100c8b:	0f b6 c0             	movzx  eax,al
  100c8e:	c1 e0 18             	shl    eax,0x18
  100c91:	89 c2                	mov    edx,eax
  100c93:	8b 45 fc             	mov    eax,DWORD PTR [ebp-0x4]
  100c96:	0f b6 40 04          	movzx  eax,BYTE PTR [eax+0x4]
  100c9a:	0f b6 c0             	movzx  eax,al
  100c9d:	c1 e0 10             	shl    eax,0x10
  100ca0:	09 c2                	or     edx,eax
  100ca2:	8b 45 fc             	mov    eax,DWORD PTR [ebp-0x4]
  100ca5:	0f b7 40 02          	movzx  eax,WORD PTR [eax+0x2]
  100ca9:	0f b7 c0             	movzx  eax,ax
  100cac:	09 d0                	or     eax,edx
  100cae:	c9                   	leave  
  100caf:	c3                   	ret    

00100cb0 <panic>:
  100cb0:	55                   	push   ebp
  100cb1:	89 e5                	mov    ebp,esp
  100cb3:	53                   	push   ebx
  100cb4:	83 ec 04             	sub    esp,0x4
  100cb7:	e8 09 f9 ff ff       	call   1005c5 <__x86.get_pc_thunk.ax>
  100cbc:	05 44 33 01 00       	add    eax,0x13344
  100cc1:	83 ec 08             	sub    esp,0x8
  100cc4:	6a 01                	push   0x1
  100cc6:	8d 90 00 fd fe ff    	lea    edx,[eax-0x10300]
  100ccc:	52                   	push   edx
  100ccd:	89 c3                	mov    ebx,eax
  100ccf:	e8 c3 17 00 00       	call   102497 <printstr>
  100cd4:	83 c4 10             	add    esp,0x10
  100cd7:	eb fe                	jmp    100cd7 <panic+0x27>
  100cd9:	66 90                	xchg   ax,ax
  100cdb:	66 90                	xchg   ax,ax
  100cdd:	66 90                	xchg   ax,ax
  100cdf:	90                   	nop

00100ce0 <save>:
  100ce0:	60                   	pusha  
  100ce1:	1e                   	push   ds
  100ce2:	06                   	push   es
  100ce3:	0f a0                	push   fs
  100ce5:	0f a8                	push   gs
  100ce7:	66 8c d2             	mov    dx,ss
  100cea:	8e da                	mov    ds,edx
  100cec:	8e c2                	mov    es,edx
  100cee:	89 e6                	mov    esi,esp
  100cf0:	ff 05 a0 dc 12 00    	inc    DWORD PTR ds:0x12dca0
  100cf6:	83 3d a0 dc 12 00 00 	cmp    DWORD PTR ds:0x12dca0,0x0
  100cfd:	75 0d                	jne    100d0c <save.1>
  100cff:	bc a0 4f 11 00       	mov    esp,0x114fa0
  100d04:	68 14 0d 10 00       	push   0x100d14
  100d09:	ff 66 30             	jmp    DWORD PTR [esi+0x30]

00100d0c <save.1>:
  100d0c:	68 28 0d 10 00       	push   0x100d28
  100d11:	ff 66 30             	jmp    DWORD PTR [esi+0x30]

00100d14 <restart>:
  100d14:	8b 25 a4 dc 12 00    	mov    esp,DWORD PTR ds:0x12dca4
  100d1a:	0f 00 54 24 48       	lldt   WORD PTR [esp+0x48]
  100d1f:	8d 44 24 48          	lea    eax,[esp+0x48]
  100d23:	a3 24 54 11 00       	mov    ds:0x115424,eax

00100d28 <restart_reenter>:
  100d28:	ff 0d a0 dc 12 00    	dec    DWORD PTR ds:0x12dca0
  100d2e:	0f a9                	pop    gs
  100d30:	0f a1                	pop    fs
  100d32:	07                   	pop    es
  100d33:	1f                   	pop    ds
  100d34:	61                   	popa   
  100d35:	83 c4 04             	add    esp,0x4
  100d38:	cf                   	iret   

00100d39 <main>:
  100d39:	8d 4c 24 04          	lea    ecx,[esp+0x4]
  100d3d:	83 e4 f0             	and    esp,0xfffffff0
  100d40:	ff 71 fc             	push   DWORD PTR [ecx-0x4]
  100d43:	55                   	push   ebp
  100d44:	89 e5                	mov    ebp,esp
  100d46:	57                   	push   edi
  100d47:	56                   	push   esi
  100d48:	53                   	push   ebx
  100d49:	51                   	push   ecx
  100d4a:	83 ec 28             	sub    esp,0x28
  100d4d:	e8 77 f8 ff ff       	call   1005c9 <__x86.get_pc_thunk.bx>
  100d52:	81 c3 ae 32 01 00    	add    ebx,0x132ae
  100d58:	e8 fa 25 00 00       	call   103357 <mm_init>
  100d5d:	89 45 d0             	mov    DWORD PTR [ebp-0x30],eax
  100d60:	e8 9d 0b 00 00       	call   101902 <init_video>
  100d65:	e8 c8 03 00 00       	call   101132 <init_clock>
  100d6a:	e8 72 04 00 00       	call   1011e1 <init_keyboard>
  100d6f:	e8 f7 06 00 00       	call   10146b <init_mouse>
  100d74:	e8 59 18 00 00       	call   1025d2 <sheet_alloc>
  100d79:	89 c2                	mov    edx,eax
  100d7b:	c7 c0 a8 dc 12 00    	mov    eax,0x12dca8
  100d81:	89 10                	mov    DWORD PTR [eax],edx
  100d83:	83 ec 0c             	sub    esp,0xc
  100d86:	68 80 2a 00 00       	push   0x2a80
  100d8b:	e8 e3 2a 00 00       	call   103873 <mm_alloc_4k>
  100d90:	83 c4 10             	add    esp,0x10
  100d93:	89 c2                	mov    edx,eax
  100d95:	c7 c0 a8 dc 12 00    	mov    eax,0x12dca8
  100d9b:	8b 00                	mov    eax,DWORD PTR [eax]
  100d9d:	83 ec 0c             	sub    esp,0xc
  100da0:	6a ff                	push   0xffffffff
  100da2:	6a 44                	push   0x44
  100da4:	68 a0 00 00 00       	push   0xa0
  100da9:	52                   	push   edx
  100daa:	50                   	push   eax
  100dab:	e8 9d 18 00 00       	call   10264d <sheet_setbuf>
  100db0:	83 c4 20             	add    esp,0x20
  100db3:	c7 c0 a8 dc 12 00    	mov    eax,0x12dca8
  100db9:	8b 00                	mov    eax,DWORD PTR [eax]
  100dbb:	8b 70 08             	mov    esi,DWORD PTR [eax+0x8]
  100dbe:	c7 c0 a8 dc 12 00    	mov    eax,0x12dca8
  100dc4:	8b 00                	mov    eax,DWORD PTR [eax]
  100dc6:	8b 48 04             	mov    ecx,DWORD PTR [eax+0x4]
  100dc9:	c7 c0 a8 dc 12 00    	mov    eax,0x12dca8
  100dcf:	8b 00                	mov    eax,DWORD PTR [eax]
  100dd1:	8b 50 04             	mov    edx,DWORD PTR [eax+0x4]
  100dd4:	c7 c0 a8 dc 12 00    	mov    eax,0x12dca8
  100dda:	8b 00                	mov    eax,DWORD PTR [eax]
  100ddc:	8b 00                	mov    eax,DWORD PTR [eax]
  100dde:	83 ec 0c             	sub    esp,0xc
  100de1:	8d bb 0e fd fe ff    	lea    edi,[ebx-0x102f2]
  100de7:	57                   	push   edi
  100de8:	56                   	push   esi
  100de9:	51                   	push   ecx
  100dea:	52                   	push   edx
  100deb:	50                   	push   eax
  100dec:	e8 01 1f 00 00       	call   102cf2 <drawWindowTo>
  100df1:	83 c4 20             	add    esp,0x20
  100df4:	c7 c0 a8 dc 12 00    	mov    eax,0x12dca8
  100dfa:	8b 00                	mov    eax,DWORD PTR [eax]
  100dfc:	8b 50 04             	mov    edx,DWORD PTR [eax+0x4]
  100dff:	c7 c0 a8 dc 12 00    	mov    eax,0x12dca8
  100e05:	8b 00                	mov    eax,DWORD PTR [eax]
  100e07:	8b 00                	mov    eax,DWORD PTR [eax]
  100e09:	83 ec 08             	sub    esp,0x8
  100e0c:	6a 06                	push   0x6
  100e0e:	8d 8b 1b fd fe ff    	lea    ecx,[ebx-0x102e5]
  100e14:	51                   	push   ecx
  100e15:	6a 1c                	push   0x1c
  100e17:	6a 18                	push   0x18
  100e19:	52                   	push   edx
  100e1a:	50                   	push   eax
  100e1b:	e8 8b 14 00 00       	call   1022ab <drawTextTo>
  100e20:	83 c4 20             	add    esp,0x20
  100e23:	8b 45 d0             	mov    eax,DWORD PTR [ebp-0x30]
  100e26:	83 ec 08             	sub    esp,0x8
  100e29:	6a 0a                	push   0xa
  100e2b:	50                   	push   eax
  100e2c:	e8 b4 21 00 00       	call   102fe5 <itoa>
  100e31:	83 c4 10             	add    esp,0x10
  100e34:	89 c6                	mov    esi,eax
  100e36:	c7 c0 f0 3f 11 00    	mov    eax,0x113ff0
  100e3c:	0f b6 00             	movzx  eax,BYTE PTR [eax]
  100e3f:	0f b6 d0             	movzx  edx,al
  100e42:	89 d0                	mov    eax,edx
  100e44:	c1 e0 03             	shl    eax,0x3
  100e47:	01 d0                	add    eax,edx
  100e49:	8d 48 1c             	lea    ecx,[eax+0x1c]
  100e4c:	c7 c0 a8 dc 12 00    	mov    eax,0x12dca8
  100e52:	8b 00                	mov    eax,DWORD PTR [eax]
  100e54:	8b 50 04             	mov    edx,DWORD PTR [eax+0x4]
  100e57:	c7 c0 a8 dc 12 00    	mov    eax,0x12dca8
  100e5d:	8b 00                	mov    eax,DWORD PTR [eax]
  100e5f:	8b 00                	mov    eax,DWORD PTR [eax]
  100e61:	83 ec 08             	sub    esp,0x8
  100e64:	6a 06                	push   0x6
  100e66:	56                   	push   esi
  100e67:	51                   	push   ecx
  100e68:	6a 18                	push   0x18
  100e6a:	52                   	push   edx
  100e6b:	50                   	push   eax
  100e6c:	e8 3a 14 00 00       	call   1022ab <drawTextTo>
  100e71:	83 c4 20             	add    esp,0x20
  100e74:	c7 c0 a8 dc 12 00    	mov    eax,0x12dca8
  100e7a:	8b 00                	mov    eax,DWORD PTR [eax]
  100e7c:	83 ec 08             	sub    esp,0x8
  100e7f:	6a 01                	push   0x1
  100e81:	50                   	push   eax
  100e82:	e8 f9 17 00 00       	call   102680 <sheet_updown>
  100e87:	83 c4 10             	add    esp,0x10
  100e8a:	c7 c0 a8 dc 12 00    	mov    eax,0x12dca8
  100e90:	8b 00                	mov    eax,DWORD PTR [eax]
  100e92:	83 ec 04             	sub    esp,0x4
  100e95:	6a 48                	push   0x48
  100e97:	6a 50                	push   0x50
  100e99:	50                   	push   eax
  100e9a:	e8 68 1d 00 00       	call   102c07 <sheet_slide>
  100e9f:	83 c4 10             	add    esp,0x10
  100ea2:	8d 83 00 01 00 00    	lea    eax,[ebx+0x100]
  100ea8:	89 45 e4             	mov    DWORD PTR [ebp-0x1c],eax
  100eab:	c7 c0 c0 dc 12 00    	mov    eax,0x12dcc0
  100eb1:	89 45 e0             	mov    DWORD PTR [ebp-0x20],eax
  100eb4:	c7 c0 a0 5c 11 00    	mov    eax,0x115ca0
  100eba:	8d 80 00 80 01 00    	lea    eax,[eax+0x18000]
  100ec0:	89 45 dc             	mov    DWORD PTR [ebp-0x24],eax
  100ec3:	66 c7 45 da 28 00    	mov    WORD PTR [ebp-0x26],0x28
  100ec9:	c7 45 d4 00 00 00 00 	mov    DWORD PTR [ebp-0x2c],0x0
  100ed0:	e9 2d 01 00 00       	jmp    101002 <main+0x2c9>
  100ed5:	8b 55 d4             	mov    edx,DWORD PTR [ebp-0x2c]
  100ed8:	8b 45 e0             	mov    eax,DWORD PTR [ebp-0x20]
  100edb:	89 50 5c             	mov    DWORD PTR [eax+0x5c],edx
  100ede:	8b 45 e4             	mov    eax,DWORD PTR [ebp-0x1c]
  100ee1:	8d 50 08             	lea    edx,[eax+0x8]
  100ee4:	8b 45 e0             	mov    eax,DWORD PTR [ebp-0x20]
  100ee7:	83 c0 60             	add    eax,0x60
  100eea:	83 ec 08             	sub    esp,0x8
  100eed:	52                   	push   edx
  100eee:	50                   	push   eax
  100eef:	e8 be 20 00 00       	call   102fb2 <strcpy>
  100ef4:	83 c4 10             	add    esp,0x10
  100ef7:	8b 45 e0             	mov    eax,DWORD PTR [ebp-0x20]
  100efa:	0f b7 55 da          	movzx  edx,WORD PTR [ebp-0x26]
  100efe:	66 89 50 48          	mov    WORD PTR [eax+0x48],dx
  100f02:	83 ec 0c             	sub    esp,0xc
  100f05:	6a 10                	push   0x10
  100f07:	e8 48 fd ff ff       	call   100c54 <seg2phys>
  100f0c:	83 c4 10             	add    esp,0x10
  100f0f:	89 c2                	mov    edx,eax
  100f11:	8b 45 e0             	mov    eax,DWORD PTR [ebp-0x20]
  100f14:	83 c0 4c             	add    eax,0x4c
  100f17:	01 c2                	add    edx,eax
  100f19:	8b 45 e0             	mov    eax,DWORD PTR [ebp-0x20]
  100f1c:	0f b7 40 48          	movzx  eax,WORD PTR [eax+0x48]
  100f20:	66 c1 e8 03          	shr    ax,0x3
  100f24:	0f b7 c0             	movzx  eax,ax
  100f27:	8d 0c c5 00 00 00 00 	lea    ecx,[eax*8+0x0]
  100f2e:	c7 c0 20 50 11 00    	mov    eax,0x115020
  100f34:	01 c8                	add    eax,ecx
  100f36:	68 82 00 00 00       	push   0x82
  100f3b:	6a 0f                	push   0xf
  100f3d:	52                   	push   edx
  100f3e:	50                   	push   eax
  100f3f:	e8 99 fc ff ff       	call   100bdd <set_desc>
  100f44:	83 c4 10             	add    esp,0x10
  100f47:	8b 45 e0             	mov    eax,DWORD PTR [ebp-0x20]
  100f4a:	8d 50 4c             	lea    edx,[eax+0x4c]
  100f4d:	83 ec 04             	sub    esp,0x4
  100f50:	6a 08                	push   0x8
  100f52:	c7 c0 20 50 11 00    	mov    eax,0x115020
  100f58:	8d 40 08             	lea    eax,[eax+0x8]
  100f5b:	50                   	push   eax
  100f5c:	52                   	push   edx
  100f5d:	e8 da 1f 00 00       	call   102f3c <memcpy>
  100f62:	83 c4 10             	add    esp,0x10
  100f65:	8b 45 e0             	mov    eax,DWORD PTR [ebp-0x20]
  100f68:	c6 40 51 b8          	mov    BYTE PTR [eax+0x51],0xb8
  100f6c:	8b 45 e0             	mov    eax,DWORD PTR [ebp-0x20]
  100f6f:	8d 50 54             	lea    edx,[eax+0x54]
  100f72:	83 ec 04             	sub    esp,0x4
  100f75:	6a 08                	push   0x8
  100f77:	c7 c0 20 50 11 00    	mov    eax,0x115020
  100f7d:	8d 40 10             	lea    eax,[eax+0x10]
  100f80:	50                   	push   eax
  100f81:	52                   	push   edx
  100f82:	e8 b5 1f 00 00       	call   102f3c <memcpy>
  100f87:	83 c4 10             	add    esp,0x10
  100f8a:	8b 45 e0             	mov    eax,DWORD PTR [ebp-0x20]
  100f8d:	c6 40 59 b2          	mov    BYTE PTR [eax+0x59],0xb2
  100f91:	8b 45 e0             	mov    eax,DWORD PTR [ebp-0x20]
  100f94:	66 c7 40 38 05 00    	mov    WORD PTR [eax+0x38],0x5
  100f9a:	8b 45 e0             	mov    eax,DWORD PTR [ebp-0x20]
  100f9d:	66 c7 40 0c 0d 00    	mov    WORD PTR [eax+0xc],0xd
  100fa3:	8b 45 e0             	mov    eax,DWORD PTR [ebp-0x20]
  100fa6:	66 c7 40 08 0d 00    	mov    WORD PTR [eax+0x8],0xd
  100fac:	8b 45 e0             	mov    eax,DWORD PTR [ebp-0x20]
  100faf:	66 c7 40 04 0d 00    	mov    WORD PTR [eax+0x4],0xd
  100fb5:	8b 45 e0             	mov    eax,DWORD PTR [ebp-0x20]
  100fb8:	66 c7 40 44 0d 00    	mov    WORD PTR [eax+0x44],0xd
  100fbe:	8b 45 e0             	mov    eax,DWORD PTR [ebp-0x20]
  100fc1:	66 c7 00 01 00       	mov    WORD PTR [eax],0x1
  100fc6:	8b 45 e4             	mov    eax,DWORD PTR [ebp-0x1c]
  100fc9:	8b 00                	mov    eax,DWORD PTR [eax]
  100fcb:	89 c2                	mov    edx,eax
  100fcd:	8b 45 e0             	mov    eax,DWORD PTR [ebp-0x20]
  100fd0:	89 50 34             	mov    DWORD PTR [eax+0x34],edx
  100fd3:	8b 55 dc             	mov    edx,DWORD PTR [ebp-0x24]
  100fd6:	8b 45 e0             	mov    eax,DWORD PTR [ebp-0x20]
  100fd9:	89 50 40             	mov    DWORD PTR [eax+0x40],edx
  100fdc:	8b 45 e0             	mov    eax,DWORD PTR [ebp-0x20]
  100fdf:	c7 40 3c 02 12 00 00 	mov    DWORD PTR [eax+0x3c],0x1202
  100fe6:	8b 45 e4             	mov    eax,DWORD PTR [ebp-0x1c]
  100fe9:	8b 40 04             	mov    eax,DWORD PTR [eax+0x4]
  100fec:	f7 d8                	neg    eax
  100fee:	01 45 dc             	add    DWORD PTR [ebp-0x24],eax
  100ff1:	83 45 e0 70          	add    DWORD PTR [ebp-0x20],0x70
  100ff5:	83 45 e4 28          	add    DWORD PTR [ebp-0x1c],0x28
  100ff9:	66 83 45 da 08       	add    WORD PTR [ebp-0x26],0x8
  100ffe:	83 45 d4 01          	add    DWORD PTR [ebp-0x2c],0x1
  101002:	83 7d d4 02          	cmp    DWORD PTR [ebp-0x2c],0x2
  101006:	0f 8e c9 fe ff ff    	jle    100ed5 <main+0x19c>
  10100c:	c7 c0 a0 dc 12 00    	mov    eax,0x12dca0
  101012:	c7 00 00 00 00 00    	mov    DWORD PTR [eax],0x0
  101018:	c7 c0 a4 dc 12 00    	mov    eax,0x12dca4
  10101e:	c7 c2 c0 dc 12 00    	mov    edx,0x12dcc0
  101024:	89 10                	mov    DWORD PTR [eax],edx
  101026:	e8 e9 fc ff ff       	call   100d14 <restart>
  10102b:	eb fe                	jmp    10102b <main+0x2f2>

0010102d <delay>:
  10102d:	55                   	push   ebp
  10102e:	89 e5                	mov    ebp,esp
  101030:	83 ec 10             	sub    esp,0x10
  101033:	e8 8d f5 ff ff       	call   1005c5 <__x86.get_pc_thunk.ax>
  101038:	05 c8 2f 01 00       	add    eax,0x12fc8
  10103d:	c7 45 fc 00 00 00 00 	mov    DWORD PTR [ebp-0x4],0x0
  101044:	eb 04                	jmp    10104a <delay+0x1d>
  101046:	83 45 fc 01          	add    DWORD PTR [ebp-0x4],0x1
  10104a:	81 7d fc 9f 86 01 00 	cmp    DWORD PTR [ebp-0x4],0x1869f
  101051:	7e f3                	jle    101046 <delay+0x19>
  101053:	90                   	nop
  101054:	c9                   	leave  
  101055:	c3                   	ret    

00101056 <fooA>:
  101056:	55                   	push   ebp
  101057:	89 e5                	mov    ebp,esp
  101059:	53                   	push   ebx
  10105a:	83 ec 04             	sub    esp,0x4
  10105d:	e8 67 f5 ff ff       	call   1005c9 <__x86.get_pc_thunk.bx>
  101062:	81 c3 9e 2f 01 00    	add    ebx,0x12f9e
  101068:	e8 03 02 00 00       	call   101270 <keyboard_read>
  10106d:	eb f9                	jmp    101068 <fooA+0x12>

0010106f <fooB>:
  10106f:	55                   	push   ebp
  101070:	89 e5                	mov    ebp,esp
  101072:	53                   	push   ebx
  101073:	83 ec 04             	sub    esp,0x4
  101076:	e8 4e f5 ff ff       	call   1005c9 <__x86.get_pc_thunk.bx>
  10107b:	81 c3 85 2f 01 00    	add    ebx,0x12f85
  101081:	e8 38 07 00 00       	call   1017be <mouse_read>
  101086:	eb f9                	jmp    101081 <fooB+0x12>

00101088 <fooC>:
  101088:	55                   	push   ebp
  101089:	89 e5                	mov    ebp,esp
  10108b:	53                   	push   ebx
  10108c:	83 ec 14             	sub    esp,0x14
  10108f:	e8 35 f5 ff ff       	call   1005c9 <__x86.get_pc_thunk.bx>
  101094:	81 c3 6c 2f 01 00    	add    ebx,0x12f6c
  10109a:	c7 45 f4 00 00 00 00 	mov    DWORD PTR [ebp-0xc],0x0
  1010a1:	83 45 f4 01          	add    DWORD PTR [ebp-0xc],0x1
  1010a5:	c7 c0 a8 dc 12 00    	mov    eax,0x12dca8
  1010ab:	8b 00                	mov    eax,DWORD PTR [eax]
  1010ad:	8b 50 04             	mov    edx,DWORD PTR [eax+0x4]
  1010b0:	c7 c0 a8 dc 12 00    	mov    eax,0x12dca8
  1010b6:	8b 00                	mov    eax,DWORD PTR [eax]
  1010b8:	8b 00                	mov    eax,DWORD PTR [eax]
  1010ba:	83 ec 04             	sub    esp,0x4
  1010bd:	6a 08                	push   0x8
  1010bf:	6a 24                	push   0x24
  1010c1:	6a 3c                	push   0x3c
  1010c3:	6a 14                	push   0x14
  1010c5:	6a 14                	push   0x14
  1010c7:	52                   	push   edx
  1010c8:	50                   	push   eax
  1010c9:	e8 23 0f 00 00       	call   101ff1 <fillRectTo>
  1010ce:	83 c4 20             	add    esp,0x20
  1010d1:	83 ec 08             	sub    esp,0x8
  1010d4:	6a 0a                	push   0xa
  1010d6:	ff 75 f4             	push   DWORD PTR [ebp-0xc]
  1010d9:	e8 07 1f 00 00       	call   102fe5 <itoa>
  1010de:	83 c4 10             	add    esp,0x10
  1010e1:	89 c1                	mov    ecx,eax
  1010e3:	c7 c0 a8 dc 12 00    	mov    eax,0x12dca8
  1010e9:	8b 00                	mov    eax,DWORD PTR [eax]
  1010eb:	8b 50 04             	mov    edx,DWORD PTR [eax+0x4]
  1010ee:	c7 c0 a8 dc 12 00    	mov    eax,0x12dca8
  1010f4:	8b 00                	mov    eax,DWORD PTR [eax]
  1010f6:	8b 00                	mov    eax,DWORD PTR [eax]
  1010f8:	83 ec 08             	sub    esp,0x8
  1010fb:	6a 06                	push   0x6
  1010fd:	51                   	push   ecx
  1010fe:	6a 14                	push   0x14
  101100:	6a 14                	push   0x14
  101102:	52                   	push   edx
  101103:	50                   	push   eax
  101104:	e8 a2 11 00 00       	call   1022ab <drawTextTo>
  101109:	83 c4 20             	add    esp,0x20
  10110c:	c7 c0 a8 dc 12 00    	mov    eax,0x12dca8
  101112:	8b 00                	mov    eax,DWORD PTR [eax]
  101114:	83 ec 0c             	sub    esp,0xc
  101117:	6a 2c                	push   0x2c
  101119:	6a 78                	push   0x78
  10111b:	6a 14                	push   0x14
  10111d:	6a 14                	push   0x14
  10111f:	50                   	push   eax
  101120:	e8 2a 18 00 00       	call   10294f <sheet_refresh_sheet>
  101125:	83 c4 20             	add    esp,0x20
  101128:	e8 00 ff ff ff       	call   10102d <delay>
  10112d:	e9 6f ff ff ff       	jmp    1010a1 <fooC+0x19>

00101132 <init_clock>:
  101132:	55                   	push   ebp
  101133:	89 e5                	mov    ebp,esp
  101135:	53                   	push   ebx
  101136:	83 ec 04             	sub    esp,0x4
  101139:	e8 8b f4 ff ff       	call   1005c9 <__x86.get_pc_thunk.bx>
  10113e:	81 c3 c2 2e 01 00    	add    ebx,0x12ec2
  101144:	c7 c0 10 de 12 00    	mov    eax,0x12de10
  10114a:	c7 00 00 00 00 00    	mov    DWORD PTR [eax],0x0
  101150:	83 ec 08             	sub    esp,0x8
  101153:	8d 83 77 d1 fe ff    	lea    eax,[ebx-0x12e89]
  101159:	50                   	push   eax
  10115a:	6a 00                	push   0x0
  10115c:	e8 d3 f9 ff ff       	call   100b34 <put_irq_handler>
  101161:	83 c4 10             	add    esp,0x10
  101164:	83 ec 0c             	sub    esp,0xc
  101167:	6a 00                	push   0x0
  101169:	e8 17 f8 ff ff       	call   100985 <enable_irq>
  10116e:	83 c4 10             	add    esp,0x10
  101171:	90                   	nop
  101172:	8b 5d fc             	mov    ebx,DWORD PTR [ebp-0x4]
  101175:	c9                   	leave  
  101176:	c3                   	ret    

00101177 <clock_handler>:
  101177:	55                   	push   ebp
  101178:	89 e5                	mov    ebp,esp
  10117a:	e8 46 f4 ff ff       	call   1005c5 <__x86.get_pc_thunk.ax>
  10117f:	05 81 2e 01 00       	add    eax,0x12e81
  101184:	c7 c2 10 de 12 00    	mov    edx,0x12de10
  10118a:	8b 12                	mov    edx,DWORD PTR [edx]
  10118c:	8d 4a 01             	lea    ecx,[edx+0x1]
  10118f:	c7 c2 10 de 12 00    	mov    edx,0x12de10
  101195:	89 0a                	mov    DWORD PTR [edx],ecx
  101197:	c7 c2 a0 dc 12 00    	mov    edx,0x12dca0
  10119d:	8b 12                	mov    edx,DWORD PTR [edx]
  10119f:	85 d2                	test   edx,edx
  1011a1:	75 3b                	jne    1011de <clock_handler+0x67>
  1011a3:	c7 c2 a4 dc 12 00    	mov    edx,0x12dca4
  1011a9:	8b 12                	mov    edx,DWORD PTR [edx]
  1011ab:	8d 4a 70             	lea    ecx,[edx+0x70]
  1011ae:	c7 c2 a4 dc 12 00    	mov    edx,0x12dca4
  1011b4:	89 0a                	mov    DWORD PTR [edx],ecx
  1011b6:	c7 c2 a4 dc 12 00    	mov    edx,0x12dca4
  1011bc:	8b 0a                	mov    ecx,DWORD PTR [edx]
  1011be:	c7 c2 c0 dc 12 00    	mov    edx,0x12dcc0
  1011c4:	8d 92 50 01 00 00    	lea    edx,[edx+0x150]
  1011ca:	39 d1                	cmp    ecx,edx
  1011cc:	75 11                	jne    1011df <clock_handler+0x68>
  1011ce:	c7 c2 a4 dc 12 00    	mov    edx,0x12dca4
  1011d4:	c7 c0 c0 dc 12 00    	mov    eax,0x12dcc0
  1011da:	89 02                	mov    DWORD PTR [edx],eax
  1011dc:	eb 01                	jmp    1011df <clock_handler+0x68>
  1011de:	90                   	nop
  1011df:	5d                   	pop    ebp
  1011e0:	c3                   	ret    

001011e1 <init_keyboard>:
  1011e1:	55                   	push   ebp
  1011e2:	89 e5                	mov    ebp,esp
  1011e4:	53                   	push   ebx
  1011e5:	83 ec 04             	sub    esp,0x4
  1011e8:	e8 dc f3 ff ff       	call   1005c9 <__x86.get_pc_thunk.bx>
  1011ed:	81 c3 13 2e 01 00    	add    ebx,0x12e13
  1011f3:	83 ec 04             	sub    esp,0x4
  1011f6:	c7 c0 20 de 12 00    	mov    eax,0x12de20
  1011fc:	50                   	push   eax
  1011fd:	6a 20                	push   0x20
  1011ff:	c7 c0 64 de 12 00    	mov    eax,0x12de64
  101205:	50                   	push   eax
  101206:	e8 0b 20 00 00       	call   103216 <fifo_init>
  10120b:	83 c4 10             	add    esp,0x10
  10120e:	83 ec 08             	sub    esp,0x8
  101211:	8d 83 35 d2 fe ff    	lea    eax,[ebx-0x12dcb]
  101217:	50                   	push   eax
  101218:	6a 01                	push   0x1
  10121a:	e8 15 f9 ff ff       	call   100b34 <put_irq_handler>
  10121f:	83 c4 10             	add    esp,0x10
  101222:	83 ec 0c             	sub    esp,0xc
  101225:	6a 01                	push   0x1
  101227:	e8 59 f7 ff ff       	call   100985 <enable_irq>
  10122c:	83 c4 10             	add    esp,0x10
  10122f:	90                   	nop
  101230:	8b 5d fc             	mov    ebx,DWORD PTR [ebp-0x4]
  101233:	c9                   	leave  
  101234:	c3                   	ret    

00101235 <keyboard_handler>:
  101235:	55                   	push   ebp
  101236:	89 e5                	mov    ebp,esp
  101238:	53                   	push   ebx
  101239:	83 ec 04             	sub    esp,0x4
  10123c:	e8 88 f3 ff ff       	call   1005c9 <__x86.get_pc_thunk.bx>
  101241:	81 c3 bf 2d 01 00    	add    ebx,0x12dbf
  101247:	83 ec 0c             	sub    esp,0xc
  10124a:	6a 60                	push   0x60
  10124c:	e8 ae 1c 00 00       	call   102eff <in8>
  101251:	83 c4 10             	add    esp,0x10
  101254:	0f b6 c0             	movzx  eax,al
  101257:	83 ec 08             	sub    esp,0x8
  10125a:	50                   	push   eax
  10125b:	c7 c0 64 de 12 00    	mov    eax,0x12de64
  101261:	50                   	push   eax
  101262:	e8 f6 1f 00 00       	call   10325d <fifo_push>
  101267:	83 c4 10             	add    esp,0x10
  10126a:	90                   	nop
  10126b:	8b 5d fc             	mov    ebx,DWORD PTR [ebp-0x4]
  10126e:	c9                   	leave  
  10126f:	c3                   	ret    

00101270 <keyboard_read>:
  101270:	55                   	push   ebp
  101271:	89 e5                	mov    ebp,esp
  101273:	53                   	push   ebx
  101274:	83 ec 24             	sub    esp,0x24
  101277:	e8 4d f3 ff ff       	call   1005c9 <__x86.get_pc_thunk.bx>
  10127c:	81 c3 84 2d 01 00    	add    ebx,0x12d84
  101282:	c7 45 f4 00 00 00 00 	mov    DWORD PTR [ebp-0xc],0x0
  101289:	c7 c0 64 de 12 00    	mov    eax,0x12de64
  10128f:	8b 40 10             	mov    eax,DWORD PTR [eax+0x10]
  101292:	85 c0                	test   eax,eax
  101294:	0f 84 99 01 00 00    	je     101433 <.L16+0x43>
  10129a:	e8 24 1c 00 00       	call   102ec3 <io_cli>
  10129f:	83 ec 0c             	sub    esp,0xc
  1012a2:	c7 c0 64 de 12 00    	mov    eax,0x12de64
  1012a8:	50                   	push   eax
  1012a9:	e8 3a 20 00 00       	call   1032e8 <fifo_pop>
  1012ae:	83 c4 10             	add    esp,0x10
  1012b1:	88 45 f3             	mov    BYTE PTR [ebp-0xd],al
  1012b4:	e8 08 1c 00 00       	call   102ec1 <io_sti>
  1012b9:	80 7d f3 e1          	cmp    BYTE PTR [ebp-0xd],0xe1
  1012bd:	0f 84 70 01 00 00    	je     101433 <.L16+0x43>
  1012c3:	80 7d f3 e0          	cmp    BYTE PTR [ebp-0xd],0xe0
  1012c7:	75 0f                	jne    1012d8 <keyboard_read+0x68>
  1012c9:	c7 83 a0 0f 00 00 01 	mov    DWORD PTR [ebx+0xfa0],0x1
  1012d0:	00 00 00 
  1012d3:	e9 5b 01 00 00       	jmp    101433 <.L16+0x43>
  1012d8:	0f b6 45 f3          	movzx  eax,BYTE PTR [ebp-0xd]
  1012dc:	f7 d0                	not    eax
  1012de:	c0 e8 07             	shr    al,0x7
  1012e1:	0f b6 c0             	movzx  eax,al
  1012e4:	89 45 ec             	mov    DWORD PTR [ebp-0x14],eax
  1012e7:	0f b6 45 f3          	movzx  eax,BYTE PTR [ebp-0xd]
  1012eb:	83 e0 7f             	and    eax,0x7f
  1012ee:	89 c2                	mov    edx,eax
  1012f0:	89 d0                	mov    eax,edx
  1012f2:	01 c0                	add    eax,eax
  1012f4:	01 d0                	add    eax,edx
  1012f6:	c1 e0 02             	shl    eax,0x2
  1012f9:	8d 93 80 01 00 00    	lea    edx,[ebx+0x180]
  1012ff:	01 d0                	add    eax,edx
  101301:	89 45 e8             	mov    DWORD PTR [ebp-0x18],eax
  101304:	c7 c0 48 de 12 00    	mov    eax,0x12de48
  10130a:	c7 00 00 00 00 00    	mov    DWORD PTR [eax],0x0
  101310:	c7 c0 60 de 12 00    	mov    eax,0x12de60
  101316:	8b 00                	mov    eax,DWORD PTR [eax]
  101318:	85 c0                	test   eax,eax
  10131a:	75 0c                	jne    101328 <keyboard_read+0xb8>
  10131c:	c7 c0 44 de 12 00    	mov    eax,0x12de44
  101322:	8b 00                	mov    eax,DWORD PTR [eax]
  101324:	85 c0                	test   eax,eax
  101326:	74 0c                	je     101334 <keyboard_read+0xc4>
  101328:	c7 c0 48 de 12 00    	mov    eax,0x12de48
  10132e:	c7 00 01 00 00 00    	mov    DWORD PTR [eax],0x1
  101334:	8b 83 a0 0f 00 00    	mov    eax,DWORD PTR [ebx+0xfa0]
  10133a:	85 c0                	test   eax,eax
  10133c:	74 16                	je     101354 <keyboard_read+0xe4>
  10133e:	c7 c0 48 de 12 00    	mov    eax,0x12de48
  101344:	c7 00 02 00 00 00    	mov    DWORD PTR [eax],0x2
  10134a:	c7 83 a0 0f 00 00 00 	mov    DWORD PTR [ebx+0xfa0],0x0
  101351:	00 00 00 
  101354:	c7 c0 48 de 12 00    	mov    eax,0x12de48
  10135a:	8b 00                	mov    eax,DWORD PTR [eax]
  10135c:	8d 14 85 00 00 00 00 	lea    edx,[eax*4+0x0]
  101363:	8b 45 e8             	mov    eax,DWORD PTR [ebp-0x18]
  101366:	01 d0                	add    eax,edx
  101368:	8b 00                	mov    eax,DWORD PTR [eax]
  10136a:	89 45 f4             	mov    DWORD PTR [ebp-0xc],eax
  10136d:	8b 45 f4             	mov    eax,DWORD PTR [ebp-0xc]
  101370:	2d 08 01 00 00       	sub    eax,0x108
  101375:	83 f8 05             	cmp    eax,0x5
  101378:	0f 87 86 00 00 00    	ja     101404 <.L16+0x14>
  10137e:	c1 e0 02             	shl    eax,0x2
  101381:	8b 84 18 2c fd fe ff 	mov    eax,DWORD PTR [eax+ebx*1-0x102d4]
  101388:	01 d8                	add    eax,ebx
  10138a:	ff e0                	jmp    eax

0010138c <.L10>:
  10138c:	c7 c0 60 de 12 00    	mov    eax,0x12de60
  101392:	8b 55 ec             	mov    edx,DWORD PTR [ebp-0x14]
  101395:	89 10                	mov    DWORD PTR [eax],edx
  101397:	c7 45 f4 00 00 00 00 	mov    DWORD PTR [ebp-0xc],0x0
  10139e:	eb 72                	jmp    101412 <.L16+0x22>

001013a0 <.L12>:
  1013a0:	c7 c0 44 de 12 00    	mov    eax,0x12de44
  1013a6:	8b 55 ec             	mov    edx,DWORD PTR [ebp-0x14]
  1013a9:	89 10                	mov    DWORD PTR [eax],edx
  1013ab:	c7 45 f4 00 00 00 00 	mov    DWORD PTR [ebp-0xc],0x0
  1013b2:	eb 5e                	jmp    101412 <.L16+0x22>

001013b4 <.L13>:
  1013b4:	c7 c0 54 de 12 00    	mov    eax,0x12de54
  1013ba:	8b 55 ec             	mov    edx,DWORD PTR [ebp-0x14]
  1013bd:	89 10                	mov    DWORD PTR [eax],edx
  1013bf:	c7 45 f4 00 00 00 00 	mov    DWORD PTR [ebp-0xc],0x0
  1013c6:	eb 4a                	jmp    101412 <.L16+0x22>

001013c8 <.L14>:
  1013c8:	c7 c0 40 de 12 00    	mov    eax,0x12de40
  1013ce:	8b 55 ec             	mov    edx,DWORD PTR [ebp-0x14]
  1013d1:	89 10                	mov    DWORD PTR [eax],edx
  1013d3:	c7 45 f4 00 00 00 00 	mov    DWORD PTR [ebp-0xc],0x0
  1013da:	eb 36                	jmp    101412 <.L16+0x22>

001013dc <.L15>:
  1013dc:	c7 c0 4c de 12 00    	mov    eax,0x12de4c
  1013e2:	8b 55 ec             	mov    edx,DWORD PTR [ebp-0x14]
  1013e5:	89 10                	mov    DWORD PTR [eax],edx
  1013e7:	c7 45 f4 00 00 00 00 	mov    DWORD PTR [ebp-0xc],0x0
  1013ee:	eb 22                	jmp    101412 <.L16+0x22>

001013f0 <.L16>:
  1013f0:	c7 c0 4c de 12 00    	mov    eax,0x12de4c
  1013f6:	8b 55 ec             	mov    edx,DWORD PTR [ebp-0x14]
  1013f9:	89 10                	mov    DWORD PTR [eax],edx
  1013fb:	c7 45 f4 00 00 00 00 	mov    DWORD PTR [ebp-0xc],0x0
  101402:	eb 0e                	jmp    101412 <.L16+0x22>
  101404:	83 7d ec 00          	cmp    DWORD PTR [ebp-0x14],0x0
  101408:	75 07                	jne    101411 <.L16+0x21>
  10140a:	c7 45 f4 00 00 00 00 	mov    DWORD PTR [ebp-0xc],0x0
  101411:	90                   	nop
  101412:	83 7d f4 00          	cmp    DWORD PTR [ebp-0xc],0x0
  101416:	74 1b                	je     101433 <.L16+0x43>
  101418:	8b 45 f4             	mov    eax,DWORD PTR [ebp-0xc]
  10141b:	88 45 e6             	mov    BYTE PTR [ebp-0x1a],al
  10141e:	0f b6 45 e6          	movzx  eax,BYTE PTR [ebp-0x1a]
  101422:	0f be c0             	movsx  eax,al
  101425:	83 ec 08             	sub    esp,0x8
  101428:	6a 01                	push   0x1
  10142a:	50                   	push   eax
  10142b:	e8 3f 0f 00 00       	call   10236f <putchar>
  101430:	83 c4 10             	add    esp,0x10
  101433:	90                   	nop
  101434:	8b 5d fc             	mov    ebx,DWORD PTR [ebp-0x4]
  101437:	c9                   	leave  
  101438:	c3                   	ret    

00101439 <wait_KBC_sendready>:
  101439:	55                   	push   ebp
  10143a:	89 e5                	mov    ebp,esp
  10143c:	53                   	push   ebx
  10143d:	83 ec 04             	sub    esp,0x4
  101440:	e8 84 f1 ff ff       	call   1005c9 <__x86.get_pc_thunk.bx>
  101445:	81 c3 bb 2b 01 00    	add    ebx,0x12bbb
  10144b:	83 ec 0c             	sub    esp,0xc
  10144e:	6a 64                	push   0x64
  101450:	e8 aa 1a 00 00       	call   102eff <in8>
  101455:	83 c4 10             	add    esp,0x10
  101458:	0f b6 c0             	movzx  eax,al
  10145b:	83 e0 02             	and    eax,0x2
  10145e:	85 c0                	test   eax,eax
  101460:	74 02                	je     101464 <wait_KBC_sendready+0x2b>
  101462:	eb e7                	jmp    10144b <wait_KBC_sendready+0x12>
  101464:	90                   	nop
  101465:	90                   	nop
  101466:	8b 5d fc             	mov    ebx,DWORD PTR [ebp-0x4]
  101469:	c9                   	leave  
  10146a:	c3                   	ret    

0010146b <init_mouse>:
  10146b:	55                   	push   ebp
  10146c:	89 e5                	mov    ebp,esp
  10146e:	53                   	push   ebx
  10146f:	83 ec 04             	sub    esp,0x4
  101472:	e8 52 f1 ff ff       	call   1005c9 <__x86.get_pc_thunk.bx>
  101477:	81 c3 89 2b 01 00    	add    ebx,0x12b89
  10147d:	e8 b7 ff ff ff       	call   101439 <wait_KBC_sendready>
  101482:	83 ec 08             	sub    esp,0x8
  101485:	6a 60                	push   0x60
  101487:	6a 64                	push   0x64
  101489:	e8 8e 1a 00 00       	call   102f1c <out8>
  10148e:	83 c4 10             	add    esp,0x10
  101491:	e8 a3 ff ff ff       	call   101439 <wait_KBC_sendready>
  101496:	83 ec 08             	sub    esp,0x8
  101499:	6a 47                	push   0x47
  10149b:	6a 60                	push   0x60
  10149d:	e8 7a 1a 00 00       	call   102f1c <out8>
  1014a2:	83 c4 10             	add    esp,0x10
  1014a5:	e8 8f ff ff ff       	call   101439 <wait_KBC_sendready>
  1014aa:	83 ec 08             	sub    esp,0x8
  1014ad:	68 d4 00 00 00       	push   0xd4
  1014b2:	6a 64                	push   0x64
  1014b4:	e8 63 1a 00 00       	call   102f1c <out8>
  1014b9:	83 c4 10             	add    esp,0x10
  1014bc:	e8 78 ff ff ff       	call   101439 <wait_KBC_sendready>
  1014c1:	83 ec 08             	sub    esp,0x8
  1014c4:	68 f4 00 00 00       	push   0xf4
  1014c9:	6a 60                	push   0x60
  1014cb:	e8 4c 1a 00 00       	call   102f1c <out8>
  1014d0:	83 c4 10             	add    esp,0x10
  1014d3:	c7 c0 e8 df 12 00    	mov    eax,0x12dfe8
  1014d9:	8b 00                	mov    eax,DWORD PTR [eax]
  1014db:	d1 e8                	shr    eax,1
  1014dd:	89 c2                	mov    edx,eax
  1014df:	c7 c0 80 de 12 00    	mov    eax,0x12de80
  1014e5:	89 10                	mov    DWORD PTR [eax],edx
  1014e7:	c7 c0 ec df 12 00    	mov    eax,0x12dfec
  1014ed:	8b 00                	mov    eax,DWORD PTR [eax]
  1014ef:	d1 e8                	shr    eax,1
  1014f1:	89 c2                	mov    edx,eax
  1014f3:	c7 c0 d0 df 12 00    	mov    eax,0x12dfd0
  1014f9:	89 10                	mov    DWORD PTR [eax],edx
  1014fb:	c7 c0 c0 df 12 00    	mov    eax,0x12dfc0
  101501:	c6 40 03 00          	mov    BYTE PTR [eax+0x3],0x0
  101505:	83 ec 04             	sub    esp,0x4
  101508:	c7 c0 40 df 12 00    	mov    eax,0x12df40
  10150e:	50                   	push   eax
  10150f:	68 80 00 00 00       	push   0x80
  101514:	c7 c0 24 df 12 00    	mov    eax,0x12df24
  10151a:	50                   	push   eax
  10151b:	e8 f6 1c 00 00       	call   103216 <fifo_init>
  101520:	83 c4 10             	add    esp,0x10
  101523:	e8 aa 10 00 00       	call   1025d2 <sheet_alloc>
  101528:	89 c2                	mov    edx,eax
  10152a:	c7 c0 20 df 12 00    	mov    eax,0x12df20
  101530:	89 10                	mov    DWORD PTR [eax],edx
  101532:	c7 c0 20 df 12 00    	mov    eax,0x12df20
  101538:	8b 00                	mov    eax,DWORD PTR [eax]
  10153a:	83 ec 0c             	sub    esp,0xc
  10153d:	68 ff 00 00 00       	push   0xff
  101542:	6a 10                	push   0x10
  101544:	6a 08                	push   0x8
  101546:	c7 c2 a0 de 12 00    	mov    edx,0x12dea0
  10154c:	52                   	push   edx
  10154d:	50                   	push   eax
  10154e:	e8 fa 10 00 00       	call   10264d <sheet_setbuf>
  101553:	83 c4 20             	add    esp,0x20
  101556:	83 ec 04             	sub    esp,0x4
  101559:	68 ff 00 00 00       	push   0xff
  10155e:	6a 10                	push   0x10
  101560:	6a 08                	push   0x8
  101562:	6a 00                	push   0x0
  101564:	6a 00                	push   0x0
  101566:	6a 08                	push   0x8
  101568:	c7 c0 a0 de 12 00    	mov    eax,0x12dea0
  10156e:	50                   	push   eax
  10156f:	e8 7d 0a 00 00       	call   101ff1 <fillRectTo>
  101574:	83 c4 20             	add    esp,0x20
  101577:	83 ec 08             	sub    esp,0x8
  10157a:	6a 07                	push   0x7
  10157c:	c7 c0 60 3d 10 00    	mov    eax,0x103d60
  101582:	50                   	push   eax
  101583:	6a 00                	push   0x0
  101585:	6a 00                	push   0x0
  101587:	6a 08                	push   0x8
  101589:	c7 c0 a0 de 12 00    	mov    eax,0x12dea0
  10158f:	50                   	push   eax
  101590:	e8 0d 0b 00 00       	call   1020a2 <drawGlyphTo>
  101595:	83 c4 20             	add    esp,0x20
  101598:	c7 c0 d0 df 12 00    	mov    eax,0x12dfd0
  10159e:	8b 08                	mov    ecx,DWORD PTR [eax]
  1015a0:	c7 c0 80 de 12 00    	mov    eax,0x12de80
  1015a6:	8b 10                	mov    edx,DWORD PTR [eax]
  1015a8:	c7 c0 20 df 12 00    	mov    eax,0x12df20
  1015ae:	8b 00                	mov    eax,DWORD PTR [eax]
  1015b0:	83 ec 04             	sub    esp,0x4
  1015b3:	51                   	push   ecx
  1015b4:	52                   	push   edx
  1015b5:	50                   	push   eax
  1015b6:	e8 4c 16 00 00       	call   102c07 <sheet_slide>
  1015bb:	83 c4 10             	add    esp,0x10
  1015be:	c7 c0 20 df 12 00    	mov    eax,0x12df20
  1015c4:	8b 00                	mov    eax,DWORD PTR [eax]
  1015c6:	83 ec 08             	sub    esp,0x8
  1015c9:	6a 02                	push   0x2
  1015cb:	50                   	push   eax
  1015cc:	e8 af 10 00 00       	call   102680 <sheet_updown>
  1015d1:	83 c4 10             	add    esp,0x10
  1015d4:	83 ec 08             	sub    esp,0x8
  1015d7:	8d 83 fb d5 fe ff    	lea    eax,[ebx-0x12a05]
  1015dd:	50                   	push   eax
  1015de:	6a 0c                	push   0xc
  1015e0:	e8 4f f5 ff ff       	call   100b34 <put_irq_handler>
  1015e5:	83 c4 10             	add    esp,0x10
  1015e8:	83 ec 0c             	sub    esp,0xc
  1015eb:	6a 0c                	push   0xc
  1015ed:	e8 93 f3 ff ff       	call   100985 <enable_irq>
  1015f2:	83 c4 10             	add    esp,0x10
  1015f5:	90                   	nop
  1015f6:	8b 5d fc             	mov    ebx,DWORD PTR [ebp-0x4]
  1015f9:	c9                   	leave  
  1015fa:	c3                   	ret    

001015fb <mouse_handler>:
  1015fb:	55                   	push   ebp
  1015fc:	89 e5                	mov    ebp,esp
  1015fe:	53                   	push   ebx
  1015ff:	83 ec 04             	sub    esp,0x4
  101602:	e8 c2 ef ff ff       	call   1005c9 <__x86.get_pc_thunk.bx>
  101607:	81 c3 f9 29 01 00    	add    ebx,0x129f9
  10160d:	83 ec 0c             	sub    esp,0xc
  101610:	6a 60                	push   0x60
  101612:	e8 e8 18 00 00       	call   102eff <in8>
  101617:	83 c4 10             	add    esp,0x10
  10161a:	0f b6 c0             	movzx  eax,al
  10161d:	83 ec 08             	sub    esp,0x8
  101620:	50                   	push   eax
  101621:	c7 c0 24 df 12 00    	mov    eax,0x12df24
  101627:	50                   	push   eax
  101628:	e8 30 1c 00 00       	call   10325d <fifo_push>
  10162d:	83 c4 10             	add    esp,0x10
  101630:	90                   	nop
  101631:	8b 5d fc             	mov    ebx,DWORD PTR [ebp-0x4]
  101634:	c9                   	leave  
  101635:	c3                   	ret    

00101636 <mouse_decode>:
  101636:	55                   	push   ebp
  101637:	89 e5                	mov    ebp,esp
  101639:	83 ec 04             	sub    esp,0x4
  10163c:	e8 84 ef ff ff       	call   1005c5 <__x86.get_pc_thunk.ax>
  101641:	05 bf 29 01 00       	add    eax,0x129bf
  101646:	8b 55 08             	mov    edx,DWORD PTR [ebp+0x8]
  101649:	88 55 fc             	mov    BYTE PTR [ebp-0x4],dl
  10164c:	c7 c2 c0 df 12 00    	mov    edx,0x12dfc0
  101652:	0f b6 52 03          	movzx  edx,BYTE PTR [edx+0x3]
  101656:	0f b6 d2             	movzx  edx,dl
  101659:	83 fa 01             	cmp    edx,0x1
  10165c:	74 37                	je     101695 <mouse_decode+0x5f>
  10165e:	83 fa 01             	cmp    edx,0x1
  101661:	7f 09                	jg     10166c <mouse_decode+0x36>
  101663:	85 d2                	test   edx,edx
  101665:	74 14                	je     10167b <mouse_decode+0x45>
  101667:	e9 4b 01 00 00       	jmp    1017b7 <mouse_decode+0x181>
  10166c:	83 fa 02             	cmp    edx,0x2
  10166f:	74 53                	je     1016c4 <mouse_decode+0x8e>
  101671:	83 fa 03             	cmp    edx,0x3
  101674:	74 6f                	je     1016e5 <mouse_decode+0xaf>
  101676:	e9 3c 01 00 00       	jmp    1017b7 <mouse_decode+0x181>
  10167b:	80 7d fc fa          	cmp    BYTE PTR [ebp-0x4],0xfa
  10167f:	75 0a                	jne    10168b <mouse_decode+0x55>
  101681:	c7 c0 c0 df 12 00    	mov    eax,0x12dfc0
  101687:	c6 40 03 01          	mov    BYTE PTR [eax+0x3],0x1
  10168b:	b8 00 00 00 00       	mov    eax,0x0
  101690:	e9 27 01 00 00       	jmp    1017bc <mouse_decode+0x186>
  101695:	0f b6 55 fc          	movzx  edx,BYTE PTR [ebp-0x4]
  101699:	81 e2 c8 00 00 00    	and    edx,0xc8
  10169f:	83 fa 08             	cmp    edx,0x8
  1016a2:	75 16                	jne    1016ba <mouse_decode+0x84>
  1016a4:	c7 c2 c0 df 12 00    	mov    edx,0x12dfc0
  1016aa:	0f b6 4d fc          	movzx  ecx,BYTE PTR [ebp-0x4]
  1016ae:	88 0a                	mov    BYTE PTR [edx],cl
  1016b0:	c7 c0 c0 df 12 00    	mov    eax,0x12dfc0
  1016b6:	c6 40 03 02          	mov    BYTE PTR [eax+0x3],0x2
  1016ba:	b8 00 00 00 00       	mov    eax,0x0
  1016bf:	e9 f8 00 00 00       	jmp    1017bc <mouse_decode+0x186>
  1016c4:	c7 c2 c0 df 12 00    	mov    edx,0x12dfc0
  1016ca:	0f b6 4d fc          	movzx  ecx,BYTE PTR [ebp-0x4]
  1016ce:	88 4a 01             	mov    BYTE PTR [edx+0x1],cl
  1016d1:	c7 c0 c0 df 12 00    	mov    eax,0x12dfc0
  1016d7:	c6 40 03 03          	mov    BYTE PTR [eax+0x3],0x3
  1016db:	b8 00 00 00 00       	mov    eax,0x0
  1016e0:	e9 d7 00 00 00       	jmp    1017bc <mouse_decode+0x186>
  1016e5:	c7 c2 c0 df 12 00    	mov    edx,0x12dfc0
  1016eb:	0f b6 4d fc          	movzx  ecx,BYTE PTR [ebp-0x4]
  1016ef:	88 4a 02             	mov    BYTE PTR [edx+0x2],cl
  1016f2:	c7 c2 c0 df 12 00    	mov    edx,0x12dfc0
  1016f8:	c6 42 03 01          	mov    BYTE PTR [edx+0x3],0x1
  1016fc:	c7 c2 c0 df 12 00    	mov    edx,0x12dfc0
  101702:	0f b6 12             	movzx  edx,BYTE PTR [edx]
  101705:	0f b6 d2             	movzx  edx,dl
  101708:	89 d1                	mov    ecx,edx
  10170a:	83 e1 07             	and    ecx,0x7
  10170d:	c7 c2 c0 df 12 00    	mov    edx,0x12dfc0
  101713:	89 4a 0c             	mov    DWORD PTR [edx+0xc],ecx
  101716:	c7 c2 c0 df 12 00    	mov    edx,0x12dfc0
  10171c:	0f b6 52 01          	movzx  edx,BYTE PTR [edx+0x1]
  101720:	0f b6 ca             	movzx  ecx,dl
  101723:	c7 c2 c0 df 12 00    	mov    edx,0x12dfc0
  101729:	89 4a 04             	mov    DWORD PTR [edx+0x4],ecx
  10172c:	c7 c2 c0 df 12 00    	mov    edx,0x12dfc0
  101732:	0f b6 52 02          	movzx  edx,BYTE PTR [edx+0x2]
  101736:	0f b6 ca             	movzx  ecx,dl
  101739:	c7 c2 c0 df 12 00    	mov    edx,0x12dfc0
  10173f:	89 4a 08             	mov    DWORD PTR [edx+0x8],ecx
  101742:	c7 c2 c0 df 12 00    	mov    edx,0x12dfc0
  101748:	0f b6 12             	movzx  edx,BYTE PTR [edx]
  10174b:	0f b6 d2             	movzx  edx,dl
  10174e:	83 e2 10             	and    edx,0x10
  101751:	85 d2                	test   edx,edx
  101753:	74 1a                	je     10176f <mouse_decode+0x139>
  101755:	c7 c2 c0 df 12 00    	mov    edx,0x12dfc0
  10175b:	8b 52 04             	mov    edx,DWORD PTR [edx+0x4]
  10175e:	81 ca 00 ff ff ff    	or     edx,0xffffff00
  101764:	89 d1                	mov    ecx,edx
  101766:	c7 c2 c0 df 12 00    	mov    edx,0x12dfc0
  10176c:	89 4a 04             	mov    DWORD PTR [edx+0x4],ecx
  10176f:	c7 c2 c0 df 12 00    	mov    edx,0x12dfc0
  101775:	0f b6 12             	movzx  edx,BYTE PTR [edx]
  101778:	0f b6 d2             	movzx  edx,dl
  10177b:	83 e2 20             	and    edx,0x20
  10177e:	85 d2                	test   edx,edx
  101780:	74 1a                	je     10179c <mouse_decode+0x166>
  101782:	c7 c2 c0 df 12 00    	mov    edx,0x12dfc0
  101788:	8b 52 08             	mov    edx,DWORD PTR [edx+0x8]
  10178b:	81 ca 00 ff ff ff    	or     edx,0xffffff00
  101791:	89 d1                	mov    ecx,edx
  101793:	c7 c2 c0 df 12 00    	mov    edx,0x12dfc0
  101799:	89 4a 08             	mov    DWORD PTR [edx+0x8],ecx
  10179c:	c7 c2 c0 df 12 00    	mov    edx,0x12dfc0
  1017a2:	8b 52 08             	mov    edx,DWORD PTR [edx+0x8]
  1017a5:	f7 da                	neg    edx
  1017a7:	c7 c0 c0 df 12 00    	mov    eax,0x12dfc0
  1017ad:	89 50 08             	mov    DWORD PTR [eax+0x8],edx
  1017b0:	b8 01 00 00 00       	mov    eax,0x1
  1017b5:	eb 05                	jmp    1017bc <mouse_decode+0x186>
  1017b7:	b8 ff ff ff ff       	mov    eax,0xffffffff
  1017bc:	c9                   	leave  
  1017bd:	c3                   	ret    

001017be <mouse_read>:
  1017be:	55                   	push   ebp
  1017bf:	89 e5                	mov    ebp,esp
  1017c1:	53                   	push   ebx
  1017c2:	83 ec 14             	sub    esp,0x14
  1017c5:	e8 ff ed ff ff       	call   1005c9 <__x86.get_pc_thunk.bx>
  1017ca:	81 c3 36 28 01 00    	add    ebx,0x12836
  1017d0:	c7 c0 24 df 12 00    	mov    eax,0x12df24
  1017d6:	8b 40 10             	mov    eax,DWORD PTR [eax+0x10]
  1017d9:	85 c0                	test   eax,eax
  1017db:	0f 84 1b 01 00 00    	je     1018fc <mouse_read+0x13e>
  1017e1:	e8 dd 16 00 00       	call   102ec3 <io_cli>
  1017e6:	83 ec 0c             	sub    esp,0xc
  1017e9:	c7 c0 24 df 12 00    	mov    eax,0x12df24
  1017ef:	50                   	push   eax
  1017f0:	e8 f3 1a 00 00       	call   1032e8 <fifo_pop>
  1017f5:	83 c4 10             	add    esp,0x10
  1017f8:	89 45 f4             	mov    DWORD PTR [ebp-0xc],eax
  1017fb:	e8 c1 16 00 00       	call   102ec1 <io_sti>
  101800:	8b 45 f4             	mov    eax,DWORD PTR [ebp-0xc]
  101803:	0f b6 c0             	movzx  eax,al
  101806:	83 ec 0c             	sub    esp,0xc
  101809:	50                   	push   eax
  10180a:	e8 27 fe ff ff       	call   101636 <mouse_decode>
  10180f:	83 c4 10             	add    esp,0x10
  101812:	85 c0                	test   eax,eax
  101814:	0f 84 e2 00 00 00    	je     1018fc <mouse_read+0x13e>
  10181a:	c7 c0 c0 df 12 00    	mov    eax,0x12dfc0
  101820:	8b 50 04             	mov    edx,DWORD PTR [eax+0x4]
  101823:	c7 c0 80 de 12 00    	mov    eax,0x12de80
  101829:	8b 00                	mov    eax,DWORD PTR [eax]
  10182b:	01 c2                	add    edx,eax
  10182d:	c7 c0 80 de 12 00    	mov    eax,0x12de80
  101833:	89 10                	mov    DWORD PTR [eax],edx
  101835:	c7 c0 c0 df 12 00    	mov    eax,0x12dfc0
  10183b:	8b 50 08             	mov    edx,DWORD PTR [eax+0x8]
  10183e:	c7 c0 d0 df 12 00    	mov    eax,0x12dfd0
  101844:	8b 00                	mov    eax,DWORD PTR [eax]
  101846:	01 c2                	add    edx,eax
  101848:	c7 c0 d0 df 12 00    	mov    eax,0x12dfd0
  10184e:	89 10                	mov    DWORD PTR [eax],edx
  101850:	c7 c0 80 de 12 00    	mov    eax,0x12de80
  101856:	8b 00                	mov    eax,DWORD PTR [eax]
  101858:	85 c0                	test   eax,eax
  10185a:	79 0c                	jns    101868 <mouse_read+0xaa>
  10185c:	c7 c0 80 de 12 00    	mov    eax,0x12de80
  101862:	c7 00 00 00 00 00    	mov    DWORD PTR [eax],0x0
  101868:	c7 c0 d0 df 12 00    	mov    eax,0x12dfd0
  10186e:	8b 00                	mov    eax,DWORD PTR [eax]
  101870:	85 c0                	test   eax,eax
  101872:	79 0c                	jns    101880 <mouse_read+0xc2>
  101874:	c7 c0 d0 df 12 00    	mov    eax,0x12dfd0
  10187a:	c7 00 00 00 00 00    	mov    DWORD PTR [eax],0x0
  101880:	c7 c0 80 de 12 00    	mov    eax,0x12de80
  101886:	8b 00                	mov    eax,DWORD PTR [eax]
  101888:	89 c2                	mov    edx,eax
  10188a:	c7 c0 e8 df 12 00    	mov    eax,0x12dfe8
  101890:	8b 00                	mov    eax,DWORD PTR [eax]
  101892:	39 c2                	cmp    edx,eax
  101894:	72 15                	jb     1018ab <mouse_read+0xed>
  101896:	c7 c0 e8 df 12 00    	mov    eax,0x12dfe8
  10189c:	8b 00                	mov    eax,DWORD PTR [eax]
  10189e:	83 e8 01             	sub    eax,0x1
  1018a1:	89 c2                	mov    edx,eax
  1018a3:	c7 c0 80 de 12 00    	mov    eax,0x12de80
  1018a9:	89 10                	mov    DWORD PTR [eax],edx
  1018ab:	c7 c0 d0 df 12 00    	mov    eax,0x12dfd0
  1018b1:	8b 00                	mov    eax,DWORD PTR [eax]
  1018b3:	89 c2                	mov    edx,eax
  1018b5:	c7 c0 ec df 12 00    	mov    eax,0x12dfec
  1018bb:	8b 00                	mov    eax,DWORD PTR [eax]
  1018bd:	39 c2                	cmp    edx,eax
  1018bf:	72 15                	jb     1018d6 <mouse_read+0x118>
  1018c1:	c7 c0 ec df 12 00    	mov    eax,0x12dfec
  1018c7:	8b 00                	mov    eax,DWORD PTR [eax]
  1018c9:	83 e8 01             	sub    eax,0x1
  1018cc:	89 c2                	mov    edx,eax
  1018ce:	c7 c0 d0 df 12 00    	mov    eax,0x12dfd0
  1018d4:	89 10                	mov    DWORD PTR [eax],edx
  1018d6:	c7 c0 d0 df 12 00    	mov    eax,0x12dfd0
  1018dc:	8b 08                	mov    ecx,DWORD PTR [eax]
  1018de:	c7 c0 80 de 12 00    	mov    eax,0x12de80
  1018e4:	8b 10                	mov    edx,DWORD PTR [eax]
  1018e6:	c7 c0 20 df 12 00    	mov    eax,0x12df20
  1018ec:	8b 00                	mov    eax,DWORD PTR [eax]
  1018ee:	83 ec 04             	sub    esp,0x4
  1018f1:	51                   	push   ecx
  1018f2:	52                   	push   edx
  1018f3:	50                   	push   eax
  1018f4:	e8 0e 13 00 00       	call   102c07 <sheet_slide>
  1018f9:	83 c4 10             	add    esp,0x10
  1018fc:	90                   	nop
  1018fd:	8b 5d fc             	mov    ebx,DWORD PTR [ebp-0x4]
  101900:	c9                   	leave  
  101901:	c3                   	ret    

00101902 <init_video>:
  101902:	55                   	push   ebp
  101903:	89 e5                	mov    ebp,esp
  101905:	57                   	push   edi
  101906:	56                   	push   esi
  101907:	53                   	push   ebx
  101908:	83 ec 0c             	sub    esp,0xc
  10190b:	e8 b9 ec ff ff       	call   1005c9 <__x86.get_pc_thunk.bx>
  101910:	81 c3 f0 26 01 00    	add    ebx,0x126f0
  101916:	c7 c0 e8 df 12 00    	mov    eax,0x12dfe8
  10191c:	c7 00 20 03 00 00    	mov    DWORD PTR [eax],0x320
  101922:	c7 c0 ec df 12 00    	mov    eax,0x12dfec
  101928:	c7 00 58 02 00 00    	mov    DWORD PTR [eax],0x258
  10192e:	c7 c0 e0 df 12 00    	mov    eax,0x12dfe0
  101934:	c7 00 08 00 00 00    	mov    DWORD PTR [eax],0x8
  10193a:	c7 c0 e8 df 12 00    	mov    eax,0x12dfe8
  101940:	8b 10                	mov    edx,DWORD PTR [eax]
  101942:	c7 c0 e0 df 12 00    	mov    eax,0x12dfe0
  101948:	8b 00                	mov    eax,DWORD PTR [eax]
  10194a:	0f af c2             	imul   eax,edx
  10194d:	c1 e8 03             	shr    eax,0x3
  101950:	89 c2                	mov    edx,eax
  101952:	c7 c0 f4 df 12 00    	mov    eax,0x12dff4
  101958:	89 10                	mov    DWORD PTR [eax],edx
  10195a:	c7 c0 e0 df 12 00    	mov    eax,0x12dfe0
  101960:	8b 08                	mov    ecx,DWORD PTR [eax]
  101962:	c7 c0 ec df 12 00    	mov    eax,0x12dfec
  101968:	8b 10                	mov    edx,DWORD PTR [eax]
  10196a:	c7 c0 e8 df 12 00    	mov    eax,0x12dfe8
  101970:	8b 00                	mov    eax,DWORD PTR [eax]
  101972:	83 ec 0c             	sub    esp,0xc
  101975:	6a 00                	push   0x0
  101977:	6a 00                	push   0x0
  101979:	51                   	push   ecx
  10197a:	52                   	push   edx
  10197b:	50                   	push   eax
  10197c:	e8 99 17 00 00       	call   10311a <bga_set_video_mode>
  101981:	83 c4 20             	add    esp,0x20
  101984:	83 ec 0c             	sub    esp,0xc
  101987:	6a 00                	push   0x0
  101989:	e8 21 18 00 00       	call   1031af <bga_set_bank>
  10198e:	83 c4 10             	add    esp,0x10
  101991:	e8 cc 00 00 00       	call   101a62 <initPalette>
  101996:	e8 af 01 00 00       	call   101b4a <cacheFonts>
  10199b:	c7 c0 ec df 12 00    	mov    eax,0x12dfec
  1019a1:	8b 00                	mov    eax,DWORD PTR [eax]
  1019a3:	89 c2                	mov    edx,eax
  1019a5:	c7 c0 e8 df 12 00    	mov    eax,0x12dfe8
  1019ab:	8b 00                	mov    eax,DWORD PTR [eax]
  1019ad:	83 ec 08             	sub    esp,0x8
  1019b0:	52                   	push   edx
  1019b1:	50                   	push   eax
  1019b2:	e8 25 0b 00 00       	call   1024dc <shtctl_init>
  1019b7:	83 c4 10             	add    esp,0x10
  1019ba:	e8 13 0c 00 00       	call   1025d2 <sheet_alloc>
  1019bf:	89 c2                	mov    edx,eax
  1019c1:	c7 c0 f0 df 12 00    	mov    eax,0x12dff0
  1019c7:	89 10                	mov    DWORD PTR [eax],edx
  1019c9:	c7 c0 ec df 12 00    	mov    eax,0x12dfec
  1019cf:	8b 00                	mov    eax,DWORD PTR [eax]
  1019d1:	89 c7                	mov    edi,eax
  1019d3:	c7 c0 e8 df 12 00    	mov    eax,0x12dfe8
  1019d9:	8b 00                	mov    eax,DWORD PTR [eax]
  1019db:	89 c6                	mov    esi,eax
  1019dd:	c7 c0 e8 df 12 00    	mov    eax,0x12dfe8
  1019e3:	8b 10                	mov    edx,DWORD PTR [eax]
  1019e5:	c7 c0 ec df 12 00    	mov    eax,0x12dfec
  1019eb:	8b 00                	mov    eax,DWORD PTR [eax]
  1019ed:	0f af c2             	imul   eax,edx
  1019f0:	83 ec 0c             	sub    esp,0xc
  1019f3:	50                   	push   eax
  1019f4:	e8 7a 1e 00 00       	call   103873 <mm_alloc_4k>
  1019f9:	83 c4 10             	add    esp,0x10
  1019fc:	89 c2                	mov    edx,eax
  1019fe:	c7 c0 f0 df 12 00    	mov    eax,0x12dff0
  101a04:	8b 00                	mov    eax,DWORD PTR [eax]
  101a06:	83 ec 0c             	sub    esp,0xc
  101a09:	6a ff                	push   0xffffffff
  101a0b:	57                   	push   edi
  101a0c:	56                   	push   esi
  101a0d:	52                   	push   edx
  101a0e:	50                   	push   eax
  101a0f:	e8 39 0c 00 00       	call   10264d <sheet_setbuf>
  101a14:	83 c4 20             	add    esp,0x20
  101a17:	c7 c0 e8 df 12 00    	mov    eax,0x12dfe8
  101a1d:	8b 10                	mov    edx,DWORD PTR [eax]
  101a1f:	c7 c0 ec df 12 00    	mov    eax,0x12dfec
  101a25:	8b 00                	mov    eax,DWORD PTR [eax]
  101a27:	0f af d0             	imul   edx,eax
  101a2a:	c7 c0 f0 df 12 00    	mov    eax,0x12dff0
  101a30:	8b 00                	mov    eax,DWORD PTR [eax]
  101a32:	8b 00                	mov    eax,DWORD PTR [eax]
  101a34:	83 ec 04             	sub    esp,0x4
  101a37:	52                   	push   edx
  101a38:	6a 00                	push   0x0
  101a3a:	50                   	push   eax
  101a3b:	e8 3b 15 00 00       	call   102f7b <memset>
  101a40:	83 c4 10             	add    esp,0x10
  101a43:	c7 c0 f0 df 12 00    	mov    eax,0x12dff0
  101a49:	8b 00                	mov    eax,DWORD PTR [eax]
  101a4b:	83 ec 08             	sub    esp,0x8
  101a4e:	6a 00                	push   0x0
  101a50:	50                   	push   eax
  101a51:	e8 2a 0c 00 00       	call   102680 <sheet_updown>
  101a56:	83 c4 10             	add    esp,0x10
  101a59:	90                   	nop
  101a5a:	8d 65 f4             	lea    esp,[ebp-0xc]
  101a5d:	5b                   	pop    ebx
  101a5e:	5e                   	pop    esi
  101a5f:	5f                   	pop    edi
  101a60:	5d                   	pop    ebp
  101a61:	c3                   	ret    

00101a62 <initPalette>:
  101a62:	55                   	push   ebp
  101a63:	89 e5                	mov    ebp,esp
  101a65:	83 ec 08             	sub    esp,0x8
  101a68:	e8 58 eb ff ff       	call   1005c5 <__x86.get_pc_thunk.ax>
  101a6d:	05 93 25 01 00       	add    eax,0x12593
  101a72:	83 ec 04             	sub    esp,0x4
  101a75:	8d 80 a0 fd fe ff    	lea    eax,[eax-0x10260]
  101a7b:	50                   	push   eax
  101a7c:	6a 0f                	push   0xf
  101a7e:	6a 00                	push   0x0
  101a80:	e8 06 00 00 00       	call   101a8b <setPalette>
  101a85:	83 c4 10             	add    esp,0x10
  101a88:	90                   	nop
  101a89:	c9                   	leave  
  101a8a:	c3                   	ret    

00101a8b <setPalette>:
  101a8b:	55                   	push   ebp
  101a8c:	89 e5                	mov    ebp,esp
  101a8e:	53                   	push   ebx
  101a8f:	83 ec 14             	sub    esp,0x14
  101a92:	e8 32 eb ff ff       	call   1005c9 <__x86.get_pc_thunk.bx>
  101a97:	81 c3 69 25 01 00    	add    ebx,0x12569
  101a9d:	e8 23 14 00 00       	call   102ec5 <io_load_eflags>
  101aa2:	89 45 f0             	mov    DWORD PTR [ebp-0x10],eax
  101aa5:	e8 19 14 00 00       	call   102ec3 <io_cli>
  101aaa:	8b 45 08             	mov    eax,DWORD PTR [ebp+0x8]
  101aad:	0f b6 c0             	movzx  eax,al
  101ab0:	83 ec 08             	sub    esp,0x8
  101ab3:	50                   	push   eax
  101ab4:	68 c8 03 00 00       	push   0x3c8
  101ab9:	e8 5e 14 00 00       	call   102f1c <out8>
  101abe:	83 c4 10             	add    esp,0x10
  101ac1:	8b 45 08             	mov    eax,DWORD PTR [ebp+0x8]
  101ac4:	89 45 f4             	mov    DWORD PTR [ebp-0xc],eax
  101ac7:	eb 65                	jmp    101b2e <setPalette+0xa3>
  101ac9:	8b 45 10             	mov    eax,DWORD PTR [ebp+0x10]
  101acc:	0f b6 00             	movzx  eax,BYTE PTR [eax]
  101acf:	c0 e8 02             	shr    al,0x2
  101ad2:	0f b6 c0             	movzx  eax,al
  101ad5:	83 ec 08             	sub    esp,0x8
  101ad8:	50                   	push   eax
  101ad9:	68 c9 03 00 00       	push   0x3c9
  101ade:	e8 39 14 00 00       	call   102f1c <out8>
  101ae3:	83 c4 10             	add    esp,0x10
  101ae6:	8b 45 10             	mov    eax,DWORD PTR [ebp+0x10]
  101ae9:	83 c0 01             	add    eax,0x1
  101aec:	0f b6 00             	movzx  eax,BYTE PTR [eax]
  101aef:	c0 e8 02             	shr    al,0x2
  101af2:	0f b6 c0             	movzx  eax,al
  101af5:	83 ec 08             	sub    esp,0x8
  101af8:	50                   	push   eax
  101af9:	68 c9 03 00 00       	push   0x3c9
  101afe:	e8 19 14 00 00       	call   102f1c <out8>
  101b03:	83 c4 10             	add    esp,0x10
  101b06:	8b 45 10             	mov    eax,DWORD PTR [ebp+0x10]
  101b09:	83 c0 02             	add    eax,0x2
  101b0c:	0f b6 00             	movzx  eax,BYTE PTR [eax]
  101b0f:	c0 e8 02             	shr    al,0x2
  101b12:	0f b6 c0             	movzx  eax,al
  101b15:	83 ec 08             	sub    esp,0x8
  101b18:	50                   	push   eax
  101b19:	68 c9 03 00 00       	push   0x3c9
  101b1e:	e8 f9 13 00 00       	call   102f1c <out8>
  101b23:	83 c4 10             	add    esp,0x10
  101b26:	83 45 10 03          	add    DWORD PTR [ebp+0x10],0x3
  101b2a:	83 45 f4 01          	add    DWORD PTR [ebp-0xc],0x1
  101b2e:	8b 45 f4             	mov    eax,DWORD PTR [ebp-0xc]
  101b31:	3b 45 0c             	cmp    eax,DWORD PTR [ebp+0xc]
  101b34:	7e 93                	jle    101ac9 <setPalette+0x3e>
  101b36:	83 ec 0c             	sub    esp,0xc
  101b39:	ff 75 f0             	push   DWORD PTR [ebp-0x10]
  101b3c:	e8 87 13 00 00       	call   102ec8 <io_store_eflags>
  101b41:	83 c4 10             	add    esp,0x10
  101b44:	90                   	nop
  101b45:	8b 5d fc             	mov    ebx,DWORD PTR [ebp-0x4]
  101b48:	c9                   	leave  
  101b49:	c3                   	ret    

00101b4a <cacheFonts>:
  101b4a:	55                   	push   ebp
  101b4b:	89 e5                	mov    ebp,esp
  101b4d:	53                   	push   ebx
  101b4e:	83 ec 10             	sub    esp,0x10
  101b51:	e8 6f ea ff ff       	call   1005c5 <__x86.get_pc_thunk.ax>
  101b56:	05 aa 24 01 00       	add    eax,0x124aa
  101b5b:	c7 45 f8 00 00 00 00 	mov    DWORD PTR [ebp-0x8],0x0
  101b62:	eb 2b                	jmp    101b8f <cacheFonts+0x45>
  101b64:	c7 c2 f0 3f 11 00    	mov    edx,0x113ff0
  101b6a:	8b 52 08             	mov    edx,DWORD PTR [edx+0x8]
  101b6d:	8b 4d f8             	mov    ecx,DWORD PTR [ebp-0x8]
  101b70:	01 c9                	add    ecx,ecx
  101b72:	01 ca                	add    edx,ecx
  101b74:	0f b7 12             	movzx  edx,WORD PTR [edx]
  101b77:	66 89 55 f6          	mov    WORD PTR [ebp-0xa],dx
  101b7b:	0f b7 4d f6          	movzx  ecx,WORD PTR [ebp-0xa]
  101b7f:	c7 c2 00 e0 12 00    	mov    edx,0x12e000
  101b85:	8b 5d f8             	mov    ebx,DWORD PTR [ebp-0x8]
  101b88:	89 1c 8a             	mov    DWORD PTR [edx+ecx*4],ebx
  101b8b:	83 45 f8 01          	add    DWORD PTR [ebp-0x8],0x1
  101b8f:	c7 c2 f0 3f 11 00    	mov    edx,0x113ff0
  101b95:	0f b7 52 02          	movzx  edx,WORD PTR [edx+0x2]
  101b99:	0f b7 d2             	movzx  edx,dx
  101b9c:	39 55 f8             	cmp    DWORD PTR [ebp-0x8],edx
  101b9f:	72 c3                	jb     101b64 <cacheFonts+0x1a>
  101ba1:	90                   	nop
  101ba2:	83 c4 10             	add    esp,0x10
  101ba5:	5b                   	pop    ebx
  101ba6:	5d                   	pop    ebp
  101ba7:	c3                   	ret    

00101ba8 <putPixelTo>:
  101ba8:	55                   	push   ebp
  101ba9:	89 e5                	mov    ebp,esp
  101bab:	83 ec 14             	sub    esp,0x14
  101bae:	e8 12 ea ff ff       	call   1005c5 <__x86.get_pc_thunk.ax>
  101bb3:	05 4d 24 01 00       	add    eax,0x1244d
  101bb8:	8b 45 18             	mov    eax,DWORD PTR [ebp+0x18]
  101bbb:	88 45 ec             	mov    BYTE PTR [ebp-0x14],al
  101bbe:	8b 45 14             	mov    eax,DWORD PTR [ebp+0x14]
  101bc1:	0f af 45 0c          	imul   eax,DWORD PTR [ebp+0xc]
  101bc5:	89 c2                	mov    edx,eax
  101bc7:	8b 45 10             	mov    eax,DWORD PTR [ebp+0x10]
  101bca:	01 d0                	add    eax,edx
  101bcc:	89 45 fc             	mov    DWORD PTR [ebp-0x4],eax
  101bcf:	8b 55 08             	mov    edx,DWORD PTR [ebp+0x8]
  101bd2:	8b 45 fc             	mov    eax,DWORD PTR [ebp-0x4]
  101bd5:	01 c2                	add    edx,eax
  101bd7:	0f b6 45 ec          	movzx  eax,BYTE PTR [ebp-0x14]
  101bdb:	88 02                	mov    BYTE PTR [edx],al
  101bdd:	90                   	nop
  101bde:	c9                   	leave  
  101bdf:	c3                   	ret    

00101be0 <putPixel>:
  101be0:	55                   	push   ebp
  101be1:	89 e5                	mov    ebp,esp
  101be3:	53                   	push   ebx
  101be4:	83 ec 24             	sub    esp,0x24
  101be7:	e8 dd e9 ff ff       	call   1005c9 <__x86.get_pc_thunk.bx>
  101bec:	81 c3 14 24 01 00    	add    ebx,0x12414
  101bf2:	8b 45 10             	mov    eax,DWORD PTR [ebp+0x10]
  101bf5:	88 45 e4             	mov    BYTE PTR [ebp-0x1c],al
  101bf8:	8b 55 0c             	mov    edx,DWORD PTR [ebp+0xc]
  101bfb:	c7 c0 f4 df 12 00    	mov    eax,0x12dff4
  101c01:	8b 00                	mov    eax,DWORD PTR [eax]
  101c03:	0f af d0             	imul   edx,eax
  101c06:	8b 45 08             	mov    eax,DWORD PTR [ebp+0x8]
  101c09:	01 d0                	add    eax,edx
  101c0b:	89 45 f4             	mov    DWORD PTR [ebp-0xc],eax
  101c0e:	c7 c0 08 e0 16 00    	mov    eax,0x16e008
  101c14:	8b 00                	mov    eax,DWORD PTR [eax]
  101c16:	39 45 f4             	cmp    DWORD PTR [ebp-0xc],eax
  101c19:	72 0d                	jb     101c28 <putPixel+0x48>
  101c1b:	c7 c0 00 e0 16 00    	mov    eax,0x16e000
  101c21:	8b 00                	mov    eax,DWORD PTR [eax]
  101c23:	39 45 f4             	cmp    DWORD PTR [ebp-0xc],eax
  101c26:	72 15                	jb     101c3d <putPixel+0x5d>
  101c28:	8b 45 f4             	mov    eax,DWORD PTR [ebp-0xc]
  101c2b:	c1 e8 10             	shr    eax,0x10
  101c2e:	0f b7 c0             	movzx  eax,ax
  101c31:	83 ec 0c             	sub    esp,0xc
  101c34:	50                   	push   eax
  101c35:	e8 75 15 00 00       	call   1031af <bga_set_bank>
  101c3a:	83 c4 10             	add    esp,0x10
  101c3d:	8b 93 80 07 00 00    	mov    edx,DWORD PTR [ebx+0x780]
  101c43:	8b 45 f4             	mov    eax,DWORD PTR [ebp-0xc]
  101c46:	0f b7 c0             	movzx  eax,ax
  101c49:	01 c2                	add    edx,eax
  101c4b:	0f b6 45 e4          	movzx  eax,BYTE PTR [ebp-0x1c]
  101c4f:	88 02                	mov    BYTE PTR [edx],al
  101c51:	90                   	nop
  101c52:	8b 5d fc             	mov    ebx,DWORD PTR [ebp-0x4]
  101c55:	c9                   	leave  
  101c56:	c3                   	ret    

00101c57 <drawLineTo>:
  101c57:	55                   	push   ebp
  101c58:	89 e5                	mov    ebp,esp
  101c5a:	83 ec 34             	sub    esp,0x34
  101c5d:	e8 63 e9 ff ff       	call   1005c5 <__x86.get_pc_thunk.ax>
  101c62:	05 9e 23 01 00       	add    eax,0x1239e
  101c67:	8b 45 20             	mov    eax,DWORD PTR [ebp+0x20]
  101c6a:	88 45 cc             	mov    BYTE PTR [ebp-0x34],al
  101c6d:	8b 45 18             	mov    eax,DWORD PTR [ebp+0x18]
  101c70:	2b 45 10             	sub    eax,DWORD PTR [ebp+0x10]
  101c73:	89 45 e4             	mov    DWORD PTR [ebp-0x1c],eax
  101c76:	8b 45 1c             	mov    eax,DWORD PTR [ebp+0x1c]
  101c79:	2b 45 14             	sub    eax,DWORD PTR [ebp+0x14]
  101c7c:	89 45 e0             	mov    DWORD PTR [ebp-0x20],eax
  101c7f:	83 7d e4 00          	cmp    DWORD PTR [ebp-0x1c],0x0
  101c83:	7e 07                	jle    101c8c <drawLineTo+0x35>
  101c85:	b8 01 00 00 00       	mov    eax,0x1
  101c8a:	eb 05                	jmp    101c91 <drawLineTo+0x3a>
  101c8c:	b8 ff ff ff ff       	mov    eax,0xffffffff
  101c91:	89 45 dc             	mov    DWORD PTR [ebp-0x24],eax
  101c94:	83 7d e0 00          	cmp    DWORD PTR [ebp-0x20],0x0
  101c98:	7e 07                	jle    101ca1 <drawLineTo+0x4a>
  101c9a:	b8 01 00 00 00       	mov    eax,0x1
  101c9f:	eb 05                	jmp    101ca6 <drawLineTo+0x4f>
  101ca1:	b8 ff ff ff ff       	mov    eax,0xffffffff
  101ca6:	89 45 d8             	mov    DWORD PTR [ebp-0x28],eax
  101ca9:	8b 45 e4             	mov    eax,DWORD PTR [ebp-0x1c]
  101cac:	01 c0                	add    eax,eax
  101cae:	89 45 d4             	mov    DWORD PTR [ebp-0x2c],eax
  101cb1:	8b 45 e0             	mov    eax,DWORD PTR [ebp-0x20]
  101cb4:	01 c0                	add    eax,eax
  101cb6:	89 45 d0             	mov    DWORD PTR [ebp-0x30],eax
  101cb9:	8b 45 e4             	mov    eax,DWORD PTR [ebp-0x1c]
  101cbc:	c1 f8 1f             	sar    eax,0x1f
  101cbf:	89 c2                	mov    edx,eax
  101cc1:	33 55 e4             	xor    edx,DWORD PTR [ebp-0x1c]
  101cc4:	29 c2                	sub    edx,eax
  101cc6:	8b 45 e0             	mov    eax,DWORD PTR [ebp-0x20]
  101cc9:	c1 f8 1f             	sar    eax,0x1f
  101ccc:	89 c1                	mov    ecx,eax
  101cce:	89 c8                	mov    eax,ecx
  101cd0:	33 45 e0             	xor    eax,DWORD PTR [ebp-0x20]
  101cd3:	29 c8                	sub    eax,ecx
  101cd5:	39 c2                	cmp    edx,eax
  101cd7:	7e 57                	jle    101d30 <drawLineTo+0xd9>
  101cd9:	8b 45 e4             	mov    eax,DWORD PTR [ebp-0x1c]
  101cdc:	f7 d8                	neg    eax
  101cde:	89 45 fc             	mov    DWORD PTR [ebp-0x4],eax
  101ce1:	8b 45 14             	mov    eax,DWORD PTR [ebp+0x14]
  101ce4:	89 45 f8             	mov    DWORD PTR [ebp-0x8],eax
  101ce7:	8b 45 10             	mov    eax,DWORD PTR [ebp+0x10]
  101cea:	89 45 f4             	mov    DWORD PTR [ebp-0xc],eax
  101ced:	eb 37                	jmp    101d26 <drawLineTo+0xcf>
  101cef:	0f b6 45 cc          	movzx  eax,BYTE PTR [ebp-0x34]
  101cf3:	50                   	push   eax
  101cf4:	ff 75 f8             	push   DWORD PTR [ebp-0x8]
  101cf7:	ff 75 f4             	push   DWORD PTR [ebp-0xc]
  101cfa:	ff 75 0c             	push   DWORD PTR [ebp+0xc]
  101cfd:	ff 75 08             	push   DWORD PTR [ebp+0x8]
  101d00:	e8 a3 fe ff ff       	call   101ba8 <putPixelTo>
  101d05:	83 c4 14             	add    esp,0x14
  101d08:	8b 45 d0             	mov    eax,DWORD PTR [ebp-0x30]
  101d0b:	01 45 fc             	add    DWORD PTR [ebp-0x4],eax
  101d0e:	83 7d fc 00          	cmp    DWORD PTR [ebp-0x4],0x0
  101d12:	7e 0c                	jle    101d20 <drawLineTo+0xc9>
  101d14:	8b 45 d8             	mov    eax,DWORD PTR [ebp-0x28]
  101d17:	01 45 f8             	add    DWORD PTR [ebp-0x8],eax
  101d1a:	8b 45 d4             	mov    eax,DWORD PTR [ebp-0x2c]
  101d1d:	29 45 fc             	sub    DWORD PTR [ebp-0x4],eax
  101d20:	8b 45 dc             	mov    eax,DWORD PTR [ebp-0x24]
  101d23:	01 45 f4             	add    DWORD PTR [ebp-0xc],eax
  101d26:	8b 45 f4             	mov    eax,DWORD PTR [ebp-0xc]
  101d29:	3b 45 18             	cmp    eax,DWORD PTR [ebp+0x18]
  101d2c:	7c c1                	jl     101cef <drawLineTo+0x98>
  101d2e:	eb 55                	jmp    101d85 <drawLineTo+0x12e>
  101d30:	8b 45 e0             	mov    eax,DWORD PTR [ebp-0x20]
  101d33:	f7 d8                	neg    eax
  101d35:	89 45 f0             	mov    DWORD PTR [ebp-0x10],eax
  101d38:	8b 45 10             	mov    eax,DWORD PTR [ebp+0x10]
  101d3b:	89 45 ec             	mov    DWORD PTR [ebp-0x14],eax
  101d3e:	8b 45 14             	mov    eax,DWORD PTR [ebp+0x14]
  101d41:	89 45 e8             	mov    DWORD PTR [ebp-0x18],eax
  101d44:	eb 37                	jmp    101d7d <drawLineTo+0x126>
  101d46:	0f b6 45 cc          	movzx  eax,BYTE PTR [ebp-0x34]
  101d4a:	50                   	push   eax
  101d4b:	ff 75 e8             	push   DWORD PTR [ebp-0x18]
  101d4e:	ff 75 ec             	push   DWORD PTR [ebp-0x14]
  101d51:	ff 75 0c             	push   DWORD PTR [ebp+0xc]
  101d54:	ff 75 08             	push   DWORD PTR [ebp+0x8]
  101d57:	e8 4c fe ff ff       	call   101ba8 <putPixelTo>
  101d5c:	83 c4 14             	add    esp,0x14
  101d5f:	8b 45 d4             	mov    eax,DWORD PTR [ebp-0x2c]
  101d62:	01 45 f0             	add    DWORD PTR [ebp-0x10],eax
  101d65:	83 7d f0 00          	cmp    DWORD PTR [ebp-0x10],0x0
  101d69:	7e 0c                	jle    101d77 <drawLineTo+0x120>
  101d6b:	8b 45 dc             	mov    eax,DWORD PTR [ebp-0x24]
  101d6e:	01 45 ec             	add    DWORD PTR [ebp-0x14],eax
  101d71:	8b 45 d0             	mov    eax,DWORD PTR [ebp-0x30]
  101d74:	29 45 f0             	sub    DWORD PTR [ebp-0x10],eax
  101d77:	8b 45 d8             	mov    eax,DWORD PTR [ebp-0x28]
  101d7a:	01 45 e8             	add    DWORD PTR [ebp-0x18],eax
  101d7d:	8b 45 e8             	mov    eax,DWORD PTR [ebp-0x18]
  101d80:	3b 45 1c             	cmp    eax,DWORD PTR [ebp+0x1c]
  101d83:	7c c1                	jl     101d46 <drawLineTo+0xef>
  101d85:	90                   	nop
  101d86:	c9                   	leave  
  101d87:	c3                   	ret    

00101d88 <drawLine>:
  101d88:	55                   	push   ebp
  101d89:	89 e5                	mov    ebp,esp
  101d8b:	83 ec 48             	sub    esp,0x48
  101d8e:	e8 32 e8 ff ff       	call   1005c5 <__x86.get_pc_thunk.ax>
  101d93:	05 6d 22 01 00       	add    eax,0x1226d
  101d98:	8b 45 18             	mov    eax,DWORD PTR [ebp+0x18]
  101d9b:	88 45 c4             	mov    BYTE PTR [ebp-0x3c],al
  101d9e:	8b 45 10             	mov    eax,DWORD PTR [ebp+0x10]
  101da1:	2b 45 08             	sub    eax,DWORD PTR [ebp+0x8]
  101da4:	89 45 dc             	mov    DWORD PTR [ebp-0x24],eax
  101da7:	8b 45 14             	mov    eax,DWORD PTR [ebp+0x14]
  101daa:	2b 45 0c             	sub    eax,DWORD PTR [ebp+0xc]
  101dad:	89 45 d8             	mov    DWORD PTR [ebp-0x28],eax
  101db0:	83 7d dc 00          	cmp    DWORD PTR [ebp-0x24],0x0
  101db4:	7e 07                	jle    101dbd <drawLine+0x35>
  101db6:	b8 01 00 00 00       	mov    eax,0x1
  101dbb:	eb 05                	jmp    101dc2 <drawLine+0x3a>
  101dbd:	b8 ff ff ff ff       	mov    eax,0xffffffff
  101dc2:	89 45 d4             	mov    DWORD PTR [ebp-0x2c],eax
  101dc5:	83 7d d8 00          	cmp    DWORD PTR [ebp-0x28],0x0
  101dc9:	7e 07                	jle    101dd2 <drawLine+0x4a>
  101dcb:	b8 01 00 00 00       	mov    eax,0x1
  101dd0:	eb 05                	jmp    101dd7 <drawLine+0x4f>
  101dd2:	b8 ff ff ff ff       	mov    eax,0xffffffff
  101dd7:	89 45 d0             	mov    DWORD PTR [ebp-0x30],eax
  101dda:	8b 45 dc             	mov    eax,DWORD PTR [ebp-0x24]
  101ddd:	01 c0                	add    eax,eax
  101ddf:	89 45 cc             	mov    DWORD PTR [ebp-0x34],eax
  101de2:	8b 45 d8             	mov    eax,DWORD PTR [ebp-0x28]
  101de5:	01 c0                	add    eax,eax
  101de7:	89 45 c8             	mov    DWORD PTR [ebp-0x38],eax
  101dea:	8b 45 dc             	mov    eax,DWORD PTR [ebp-0x24]
  101ded:	c1 f8 1f             	sar    eax,0x1f
  101df0:	89 c2                	mov    edx,eax
  101df2:	33 55 dc             	xor    edx,DWORD PTR [ebp-0x24]
  101df5:	29 c2                	sub    edx,eax
  101df7:	8b 45 d8             	mov    eax,DWORD PTR [ebp-0x28]
  101dfa:	c1 f8 1f             	sar    eax,0x1f
  101dfd:	89 c1                	mov    ecx,eax
  101dff:	89 c8                	mov    eax,ecx
  101e01:	33 45 d8             	xor    eax,DWORD PTR [ebp-0x28]
  101e04:	29 c8                	sub    eax,ecx
  101e06:	39 c2                	cmp    edx,eax
  101e08:	7e 54                	jle    101e5e <drawLine+0xd6>
  101e0a:	8b 45 dc             	mov    eax,DWORD PTR [ebp-0x24]
  101e0d:	f7 d8                	neg    eax
  101e0f:	89 45 f4             	mov    DWORD PTR [ebp-0xc],eax
  101e12:	8b 45 0c             	mov    eax,DWORD PTR [ebp+0xc]
  101e15:	89 45 f0             	mov    DWORD PTR [ebp-0x10],eax
  101e18:	8b 45 08             	mov    eax,DWORD PTR [ebp+0x8]
  101e1b:	89 45 ec             	mov    DWORD PTR [ebp-0x14],eax
  101e1e:	eb 34                	jmp    101e54 <drawLine+0xcc>
  101e20:	0f b6 45 c4          	movzx  eax,BYTE PTR [ebp-0x3c]
  101e24:	83 ec 04             	sub    esp,0x4
  101e27:	50                   	push   eax
  101e28:	ff 75 f0             	push   DWORD PTR [ebp-0x10]
  101e2b:	ff 75 ec             	push   DWORD PTR [ebp-0x14]
  101e2e:	e8 ad fd ff ff       	call   101be0 <putPixel>
  101e33:	83 c4 10             	add    esp,0x10
  101e36:	8b 45 c8             	mov    eax,DWORD PTR [ebp-0x38]
  101e39:	01 45 f4             	add    DWORD PTR [ebp-0xc],eax
  101e3c:	83 7d f4 00          	cmp    DWORD PTR [ebp-0xc],0x0
  101e40:	7e 0c                	jle    101e4e <drawLine+0xc6>
  101e42:	8b 45 d0             	mov    eax,DWORD PTR [ebp-0x30]
  101e45:	01 45 f0             	add    DWORD PTR [ebp-0x10],eax
  101e48:	8b 45 cc             	mov    eax,DWORD PTR [ebp-0x34]
  101e4b:	29 45 f4             	sub    DWORD PTR [ebp-0xc],eax
  101e4e:	8b 45 d4             	mov    eax,DWORD PTR [ebp-0x2c]
  101e51:	01 45 ec             	add    DWORD PTR [ebp-0x14],eax
  101e54:	8b 45 ec             	mov    eax,DWORD PTR [ebp-0x14]
  101e57:	3b 45 10             	cmp    eax,DWORD PTR [ebp+0x10]
  101e5a:	7c c4                	jl     101e20 <drawLine+0x98>
  101e5c:	eb 52                	jmp    101eb0 <drawLine+0x128>
  101e5e:	8b 45 d8             	mov    eax,DWORD PTR [ebp-0x28]
  101e61:	f7 d8                	neg    eax
  101e63:	89 45 e8             	mov    DWORD PTR [ebp-0x18],eax
  101e66:	8b 45 08             	mov    eax,DWORD PTR [ebp+0x8]
  101e69:	89 45 e4             	mov    DWORD PTR [ebp-0x1c],eax
  101e6c:	8b 45 0c             	mov    eax,DWORD PTR [ebp+0xc]
  101e6f:	89 45 e0             	mov    DWORD PTR [ebp-0x20],eax
  101e72:	eb 34                	jmp    101ea8 <drawLine+0x120>
  101e74:	0f b6 45 c4          	movzx  eax,BYTE PTR [ebp-0x3c]
  101e78:	83 ec 04             	sub    esp,0x4
  101e7b:	50                   	push   eax
  101e7c:	ff 75 e0             	push   DWORD PTR [ebp-0x20]
  101e7f:	ff 75 e4             	push   DWORD PTR [ebp-0x1c]
  101e82:	e8 59 fd ff ff       	call   101be0 <putPixel>
  101e87:	83 c4 10             	add    esp,0x10
  101e8a:	8b 45 cc             	mov    eax,DWORD PTR [ebp-0x34]
  101e8d:	01 45 e8             	add    DWORD PTR [ebp-0x18],eax
  101e90:	83 7d e8 00          	cmp    DWORD PTR [ebp-0x18],0x0
  101e94:	7e 0c                	jle    101ea2 <drawLine+0x11a>
  101e96:	8b 45 d4             	mov    eax,DWORD PTR [ebp-0x2c]
  101e99:	01 45 e4             	add    DWORD PTR [ebp-0x1c],eax
  101e9c:	8b 45 c8             	mov    eax,DWORD PTR [ebp-0x38]
  101e9f:	29 45 e8             	sub    DWORD PTR [ebp-0x18],eax
  101ea2:	8b 45 d0             	mov    eax,DWORD PTR [ebp-0x30]
  101ea5:	01 45 e0             	add    DWORD PTR [ebp-0x20],eax
  101ea8:	8b 45 e0             	mov    eax,DWORD PTR [ebp-0x20]
  101eab:	3b 45 14             	cmp    eax,DWORD PTR [ebp+0x14]
  101eae:	7c c4                	jl     101e74 <drawLine+0xec>
  101eb0:	90                   	nop
  101eb1:	c9                   	leave  
  101eb2:	c3                   	ret    

00101eb3 <drawRectTo>:
  101eb3:	55                   	push   ebp
  101eb4:	89 e5                	mov    ebp,esp
  101eb6:	83 ec 14             	sub    esp,0x14
  101eb9:	e8 07 e7 ff ff       	call   1005c5 <__x86.get_pc_thunk.ax>
  101ebe:	05 42 21 01 00       	add    eax,0x12142
  101ec3:	8b 45 20             	mov    eax,DWORD PTR [ebp+0x20]
  101ec6:	88 45 ec             	mov    BYTE PTR [ebp-0x14],al
  101ec9:	8b 45 14             	mov    eax,DWORD PTR [ebp+0x14]
  101ecc:	89 45 fc             	mov    DWORD PTR [ebp-0x4],eax
  101ecf:	eb 36                	jmp    101f07 <drawRectTo+0x54>
  101ed1:	0f b6 45 ec          	movzx  eax,BYTE PTR [ebp-0x14]
  101ed5:	50                   	push   eax
  101ed6:	ff 75 fc             	push   DWORD PTR [ebp-0x4]
  101ed9:	ff 75 10             	push   DWORD PTR [ebp+0x10]
  101edc:	ff 75 0c             	push   DWORD PTR [ebp+0xc]
  101edf:	ff 75 08             	push   DWORD PTR [ebp+0x8]
  101ee2:	e8 c1 fc ff ff       	call   101ba8 <putPixelTo>
  101ee7:	83 c4 14             	add    esp,0x14
  101eea:	0f b6 45 ec          	movzx  eax,BYTE PTR [ebp-0x14]
  101eee:	50                   	push   eax
  101eef:	ff 75 fc             	push   DWORD PTR [ebp-0x4]
  101ef2:	ff 75 18             	push   DWORD PTR [ebp+0x18]
  101ef5:	ff 75 0c             	push   DWORD PTR [ebp+0xc]
  101ef8:	ff 75 08             	push   DWORD PTR [ebp+0x8]
  101efb:	e8 a8 fc ff ff       	call   101ba8 <putPixelTo>
  101f00:	83 c4 14             	add    esp,0x14
  101f03:	83 45 fc 01          	add    DWORD PTR [ebp-0x4],0x1
  101f07:	8b 45 fc             	mov    eax,DWORD PTR [ebp-0x4]
  101f0a:	3b 45 1c             	cmp    eax,DWORD PTR [ebp+0x1c]
  101f0d:	7c c2                	jl     101ed1 <drawRectTo+0x1e>
  101f0f:	8b 45 10             	mov    eax,DWORD PTR [ebp+0x10]
  101f12:	89 45 f8             	mov    DWORD PTR [ebp-0x8],eax
  101f15:	eb 36                	jmp    101f4d <drawRectTo+0x9a>
  101f17:	0f b6 45 ec          	movzx  eax,BYTE PTR [ebp-0x14]
  101f1b:	50                   	push   eax
  101f1c:	ff 75 14             	push   DWORD PTR [ebp+0x14]
  101f1f:	ff 75 f8             	push   DWORD PTR [ebp-0x8]
  101f22:	ff 75 0c             	push   DWORD PTR [ebp+0xc]
  101f25:	ff 75 08             	push   DWORD PTR [ebp+0x8]
  101f28:	e8 7b fc ff ff       	call   101ba8 <putPixelTo>
  101f2d:	83 c4 14             	add    esp,0x14
  101f30:	0f b6 45 ec          	movzx  eax,BYTE PTR [ebp-0x14]
  101f34:	50                   	push   eax
  101f35:	ff 75 1c             	push   DWORD PTR [ebp+0x1c]
  101f38:	ff 75 f8             	push   DWORD PTR [ebp-0x8]
  101f3b:	ff 75 0c             	push   DWORD PTR [ebp+0xc]
  101f3e:	ff 75 08             	push   DWORD PTR [ebp+0x8]
  101f41:	e8 62 fc ff ff       	call   101ba8 <putPixelTo>
  101f46:	83 c4 14             	add    esp,0x14
  101f49:	83 45 f8 01          	add    DWORD PTR [ebp-0x8],0x1
  101f4d:	8b 45 f8             	mov    eax,DWORD PTR [ebp-0x8]
  101f50:	3b 45 18             	cmp    eax,DWORD PTR [ebp+0x18]
  101f53:	7c c2                	jl     101f17 <drawRectTo+0x64>
  101f55:	90                   	nop
  101f56:	c9                   	leave  
  101f57:	c3                   	ret    

00101f58 <drawRect>:
  101f58:	55                   	push   ebp
  101f59:	89 e5                	mov    ebp,esp
  101f5b:	83 ec 28             	sub    esp,0x28
  101f5e:	e8 62 e6 ff ff       	call   1005c5 <__x86.get_pc_thunk.ax>
  101f63:	05 9d 20 01 00       	add    eax,0x1209d
  101f68:	8b 45 18             	mov    eax,DWORD PTR [ebp+0x18]
  101f6b:	88 45 e4             	mov    BYTE PTR [ebp-0x1c],al
  101f6e:	8b 45 0c             	mov    eax,DWORD PTR [ebp+0xc]
  101f71:	89 45 f4             	mov    DWORD PTR [ebp-0xc],eax
  101f74:	eb 30                	jmp    101fa6 <drawRect+0x4e>
  101f76:	0f b6 45 e4          	movzx  eax,BYTE PTR [ebp-0x1c]
  101f7a:	83 ec 04             	sub    esp,0x4
  101f7d:	50                   	push   eax
  101f7e:	ff 75 f4             	push   DWORD PTR [ebp-0xc]
  101f81:	ff 75 08             	push   DWORD PTR [ebp+0x8]
  101f84:	e8 57 fc ff ff       	call   101be0 <putPixel>
  101f89:	83 c4 10             	add    esp,0x10
  101f8c:	0f b6 45 e4          	movzx  eax,BYTE PTR [ebp-0x1c]
  101f90:	83 ec 04             	sub    esp,0x4
  101f93:	50                   	push   eax
  101f94:	ff 75 f4             	push   DWORD PTR [ebp-0xc]
  101f97:	ff 75 10             	push   DWORD PTR [ebp+0x10]
  101f9a:	e8 41 fc ff ff       	call   101be0 <putPixel>
  101f9f:	83 c4 10             	add    esp,0x10
  101fa2:	83 45 f4 01          	add    DWORD PTR [ebp-0xc],0x1
  101fa6:	8b 45 f4             	mov    eax,DWORD PTR [ebp-0xc]
  101fa9:	3b 45 14             	cmp    eax,DWORD PTR [ebp+0x14]
  101fac:	7c c8                	jl     101f76 <drawRect+0x1e>
  101fae:	8b 45 08             	mov    eax,DWORD PTR [ebp+0x8]
  101fb1:	89 45 f0             	mov    DWORD PTR [ebp-0x10],eax
  101fb4:	eb 30                	jmp    101fe6 <drawRect+0x8e>
  101fb6:	0f b6 45 e4          	movzx  eax,BYTE PTR [ebp-0x1c]
  101fba:	83 ec 04             	sub    esp,0x4
  101fbd:	50                   	push   eax
  101fbe:	ff 75 0c             	push   DWORD PTR [ebp+0xc]
  101fc1:	ff 75 f0             	push   DWORD PTR [ebp-0x10]
  101fc4:	e8 17 fc ff ff       	call   101be0 <putPixel>
  101fc9:	83 c4 10             	add    esp,0x10
  101fcc:	0f b6 45 e4          	movzx  eax,BYTE PTR [ebp-0x1c]
  101fd0:	83 ec 04             	sub    esp,0x4
  101fd3:	50                   	push   eax
  101fd4:	ff 75 14             	push   DWORD PTR [ebp+0x14]
  101fd7:	ff 75 f0             	push   DWORD PTR [ebp-0x10]
  101fda:	e8 01 fc ff ff       	call   101be0 <putPixel>
  101fdf:	83 c4 10             	add    esp,0x10
  101fe2:	83 45 f0 01          	add    DWORD PTR [ebp-0x10],0x1
  101fe6:	8b 45 f0             	mov    eax,DWORD PTR [ebp-0x10]
  101fe9:	3b 45 10             	cmp    eax,DWORD PTR [ebp+0x10]
  101fec:	7c c8                	jl     101fb6 <drawRect+0x5e>
  101fee:	90                   	nop
  101fef:	c9                   	leave  
  101ff0:	c3                   	ret    

00101ff1 <fillRectTo>:
  101ff1:	55                   	push   ebp
  101ff2:	89 e5                	mov    ebp,esp
  101ff4:	83 ec 14             	sub    esp,0x14
  101ff7:	e8 c9 e5 ff ff       	call   1005c5 <__x86.get_pc_thunk.ax>
  101ffc:	05 04 20 01 00       	add    eax,0x12004
  102001:	8b 45 20             	mov    eax,DWORD PTR [ebp+0x20]
  102004:	88 45 ec             	mov    BYTE PTR [ebp-0x14],al
  102007:	8b 45 14             	mov    eax,DWORD PTR [ebp+0x14]
  10200a:	89 45 fc             	mov    DWORD PTR [ebp-0x4],eax
  10200d:	eb 31                	jmp    102040 <fillRectTo+0x4f>
  10200f:	8b 45 10             	mov    eax,DWORD PTR [ebp+0x10]
  102012:	89 45 f8             	mov    DWORD PTR [ebp-0x8],eax
  102015:	eb 1d                	jmp    102034 <fillRectTo+0x43>
  102017:	0f b6 45 ec          	movzx  eax,BYTE PTR [ebp-0x14]
  10201b:	50                   	push   eax
  10201c:	ff 75 fc             	push   DWORD PTR [ebp-0x4]
  10201f:	ff 75 f8             	push   DWORD PTR [ebp-0x8]
  102022:	ff 75 0c             	push   DWORD PTR [ebp+0xc]
  102025:	ff 75 08             	push   DWORD PTR [ebp+0x8]
  102028:	e8 7b fb ff ff       	call   101ba8 <putPixelTo>
  10202d:	83 c4 14             	add    esp,0x14
  102030:	83 45 f8 01          	add    DWORD PTR [ebp-0x8],0x1
  102034:	8b 45 f8             	mov    eax,DWORD PTR [ebp-0x8]
  102037:	3b 45 18             	cmp    eax,DWORD PTR [ebp+0x18]
  10203a:	7c db                	jl     102017 <fillRectTo+0x26>
  10203c:	83 45 fc 01          	add    DWORD PTR [ebp-0x4],0x1
  102040:	8b 45 fc             	mov    eax,DWORD PTR [ebp-0x4]
  102043:	3b 45 1c             	cmp    eax,DWORD PTR [ebp+0x1c]
  102046:	7c c7                	jl     10200f <fillRectTo+0x1e>
  102048:	90                   	nop
  102049:	c9                   	leave  
  10204a:	c3                   	ret    

0010204b <fillRect>:
  10204b:	55                   	push   ebp
  10204c:	89 e5                	mov    ebp,esp
  10204e:	83 ec 28             	sub    esp,0x28
  102051:	e8 6f e5 ff ff       	call   1005c5 <__x86.get_pc_thunk.ax>
  102056:	05 aa 1f 01 00       	add    eax,0x11faa
  10205b:	8b 45 18             	mov    eax,DWORD PTR [ebp+0x18]
  10205e:	88 45 e4             	mov    BYTE PTR [ebp-0x1c],al
  102061:	8b 45 0c             	mov    eax,DWORD PTR [ebp+0xc]
  102064:	89 45 f4             	mov    DWORD PTR [ebp-0xc],eax
  102067:	eb 2e                	jmp    102097 <fillRect+0x4c>
  102069:	8b 45 08             	mov    eax,DWORD PTR [ebp+0x8]
  10206c:	89 45 f0             	mov    DWORD PTR [ebp-0x10],eax
  10206f:	eb 1a                	jmp    10208b <fillRect+0x40>
  102071:	0f b6 45 e4          	movzx  eax,BYTE PTR [ebp-0x1c]
  102075:	83 ec 04             	sub    esp,0x4
  102078:	50                   	push   eax
  102079:	ff 75 f4             	push   DWORD PTR [ebp-0xc]
  10207c:	ff 75 f0             	push   DWORD PTR [ebp-0x10]
  10207f:	e8 5c fb ff ff       	call   101be0 <putPixel>
  102084:	83 c4 10             	add    esp,0x10
  102087:	83 45 f0 01          	add    DWORD PTR [ebp-0x10],0x1
  10208b:	8b 45 f0             	mov    eax,DWORD PTR [ebp-0x10]
  10208e:	3b 45 10             	cmp    eax,DWORD PTR [ebp+0x10]
  102091:	7c de                	jl     102071 <fillRect+0x26>
  102093:	83 45 f4 01          	add    DWORD PTR [ebp-0xc],0x1
  102097:	8b 45 f4             	mov    eax,DWORD PTR [ebp-0xc]
  10209a:	3b 45 14             	cmp    eax,DWORD PTR [ebp+0x14]
  10209d:	7c ca                	jl     102069 <fillRect+0x1e>
  10209f:	90                   	nop
  1020a0:	c9                   	leave  
  1020a1:	c3                   	ret    

001020a2 <drawGlyphTo>:
  1020a2:	55                   	push   ebp
  1020a3:	89 e5                	mov    ebp,esp
  1020a5:	83 ec 24             	sub    esp,0x24
  1020a8:	e8 18 e5 ff ff       	call   1005c5 <__x86.get_pc_thunk.ax>
  1020ad:	05 53 1f 01 00       	add    eax,0x11f53
  1020b2:	8b 45 1c             	mov    eax,DWORD PTR [ebp+0x1c]
  1020b5:	88 45 dc             	mov    BYTE PTR [ebp-0x24],al
  1020b8:	8b 45 14             	mov    eax,DWORD PTR [ebp+0x14]
  1020bb:	0f af 45 0c          	imul   eax,DWORD PTR [ebp+0xc]
  1020bf:	89 c2                	mov    edx,eax
  1020c1:	8b 45 10             	mov    eax,DWORD PTR [ebp+0x10]
  1020c4:	01 d0                	add    eax,edx
  1020c6:	89 45 fc             	mov    DWORD PTR [ebp-0x4],eax
  1020c9:	c7 45 f8 00 00 00 00 	mov    DWORD PTR [ebp-0x8],0x0
  1020d0:	eb 4a                	jmp    10211c <drawGlyphTo+0x7a>
  1020d2:	8b 55 f8             	mov    edx,DWORD PTR [ebp-0x8]
  1020d5:	8b 45 18             	mov    eax,DWORD PTR [ebp+0x18]
  1020d8:	01 d0                	add    eax,edx
  1020da:	0f b6 00             	movzx  eax,BYTE PTR [eax]
  1020dd:	88 45 ef             	mov    BYTE PTR [ebp-0x11],al
  1020e0:	c6 45 f7 80          	mov    BYTE PTR [ebp-0x9],0x80
  1020e4:	8b 45 fc             	mov    eax,DWORD PTR [ebp-0x4]
  1020e7:	89 45 f0             	mov    DWORD PTR [ebp-0x10],eax
  1020ea:	eb 20                	jmp    10210c <drawGlyphTo+0x6a>
  1020ec:	0f b6 45 ef          	movzx  eax,BYTE PTR [ebp-0x11]
  1020f0:	22 45 f7             	and    al,BYTE PTR [ebp-0x9]
  1020f3:	84 c0                	test   al,al
  1020f5:	74 0e                	je     102105 <drawGlyphTo+0x63>
  1020f7:	8b 55 08             	mov    edx,DWORD PTR [ebp+0x8]
  1020fa:	8b 45 f0             	mov    eax,DWORD PTR [ebp-0x10]
  1020fd:	01 c2                	add    edx,eax
  1020ff:	0f b6 45 dc          	movzx  eax,BYTE PTR [ebp-0x24]
  102103:	88 02                	mov    BYTE PTR [edx],al
  102105:	83 45 f0 01          	add    DWORD PTR [ebp-0x10],0x1
  102109:	d0 6d f7             	shr    BYTE PTR [ebp-0x9],1
  10210c:	80 7d f7 00          	cmp    BYTE PTR [ebp-0x9],0x0
  102110:	75 da                	jne    1020ec <drawGlyphTo+0x4a>
  102112:	8b 45 0c             	mov    eax,DWORD PTR [ebp+0xc]
  102115:	01 45 fc             	add    DWORD PTR [ebp-0x4],eax
  102118:	83 45 f8 01          	add    DWORD PTR [ebp-0x8],0x1
  10211c:	83 7d f8 0f          	cmp    DWORD PTR [ebp-0x8],0xf
  102120:	7e b0                	jle    1020d2 <drawGlyphTo+0x30>
  102122:	90                   	nop
  102123:	c9                   	leave  
  102124:	c3                   	ret    

00102125 <drawGlyph>:
  102125:	55                   	push   ebp
  102126:	89 e5                	mov    ebp,esp
  102128:	53                   	push   ebx
  102129:	83 ec 34             	sub    esp,0x34
  10212c:	e8 98 e4 ff ff       	call   1005c9 <__x86.get_pc_thunk.bx>
  102131:	81 c3 cf 1e 01 00    	add    ebx,0x11ecf
  102137:	8b 45 14             	mov    eax,DWORD PTR [ebp+0x14]
  10213a:	88 45 d4             	mov    BYTE PTR [ebp-0x2c],al
  10213d:	8b 55 0c             	mov    edx,DWORD PTR [ebp+0xc]
  102140:	c7 c0 f4 df 12 00    	mov    eax,0x12dff4
  102146:	8b 00                	mov    eax,DWORD PTR [eax]
  102148:	0f af d0             	imul   edx,eax
  10214b:	8b 45 08             	mov    eax,DWORD PTR [ebp+0x8]
  10214e:	01 d0                	add    eax,edx
  102150:	89 45 f4             	mov    DWORD PTR [ebp-0xc],eax
  102153:	c7 45 f0 00 00 00 00 	mov    DWORD PTR [ebp-0x10],0x0
  10215a:	e9 84 00 00 00       	jmp    1021e3 <drawGlyph+0xbe>
  10215f:	8b 55 f0             	mov    edx,DWORD PTR [ebp-0x10]
  102162:	8b 45 10             	mov    eax,DWORD PTR [ebp+0x10]
  102165:	01 d0                	add    eax,edx
  102167:	0f b6 00             	movzx  eax,BYTE PTR [eax]
  10216a:	88 45 e7             	mov    BYTE PTR [ebp-0x19],al
  10216d:	c6 45 ef 80          	mov    BYTE PTR [ebp-0x11],0x80
  102171:	8b 45 f4             	mov    eax,DWORD PTR [ebp-0xc]
  102174:	89 45 e8             	mov    DWORD PTR [ebp-0x18],eax
  102177:	eb 55                	jmp    1021ce <drawGlyph+0xa9>
  102179:	0f b6 45 e7          	movzx  eax,BYTE PTR [ebp-0x19]
  10217d:	22 45 ef             	and    al,BYTE PTR [ebp-0x11]
  102180:	84 c0                	test   al,al
  102182:	74 43                	je     1021c7 <drawGlyph+0xa2>
  102184:	c7 c0 08 e0 16 00    	mov    eax,0x16e008
  10218a:	8b 00                	mov    eax,DWORD PTR [eax]
  10218c:	39 45 e8             	cmp    DWORD PTR [ebp-0x18],eax
  10218f:	72 0d                	jb     10219e <drawGlyph+0x79>
  102191:	c7 c0 00 e0 16 00    	mov    eax,0x16e000
  102197:	8b 00                	mov    eax,DWORD PTR [eax]
  102199:	39 45 e8             	cmp    DWORD PTR [ebp-0x18],eax
  10219c:	72 15                	jb     1021b3 <drawGlyph+0x8e>
  10219e:	8b 45 e8             	mov    eax,DWORD PTR [ebp-0x18]
  1021a1:	c1 e8 10             	shr    eax,0x10
  1021a4:	0f b7 c0             	movzx  eax,ax
  1021a7:	83 ec 0c             	sub    esp,0xc
  1021aa:	50                   	push   eax
  1021ab:	e8 ff 0f 00 00       	call   1031af <bga_set_bank>
  1021b0:	83 c4 10             	add    esp,0x10
  1021b3:	8b 93 80 07 00 00    	mov    edx,DWORD PTR [ebx+0x780]
  1021b9:	8b 45 e8             	mov    eax,DWORD PTR [ebp-0x18]
  1021bc:	0f b7 c0             	movzx  eax,ax
  1021bf:	01 c2                	add    edx,eax
  1021c1:	0f b6 45 d4          	movzx  eax,BYTE PTR [ebp-0x2c]
  1021c5:	88 02                	mov    BYTE PTR [edx],al
  1021c7:	83 45 e8 01          	add    DWORD PTR [ebp-0x18],0x1
  1021cb:	d0 6d ef             	shr    BYTE PTR [ebp-0x11],1
  1021ce:	80 7d ef 00          	cmp    BYTE PTR [ebp-0x11],0x0
  1021d2:	75 a5                	jne    102179 <drawGlyph+0x54>
  1021d4:	c7 c0 f4 df 12 00    	mov    eax,0x12dff4
  1021da:	8b 00                	mov    eax,DWORD PTR [eax]
  1021dc:	01 45 f4             	add    DWORD PTR [ebp-0xc],eax
  1021df:	83 45 f0 01          	add    DWORD PTR [ebp-0x10],0x1
  1021e3:	c7 c0 f0 3f 11 00    	mov    eax,0x113ff0
  1021e9:	0f b6 40 01          	movzx  eax,BYTE PTR [eax+0x1]
  1021ed:	0f b6 c0             	movzx  eax,al
  1021f0:	39 45 f0             	cmp    DWORD PTR [ebp-0x10],eax
  1021f3:	0f 8c 66 ff ff ff    	jl     10215f <drawGlyph+0x3a>
  1021f9:	90                   	nop
  1021fa:	8b 5d fc             	mov    ebx,DWORD PTR [ebp-0x4]
  1021fd:	c9                   	leave  
  1021fe:	c3                   	ret    

001021ff <drawCharTo>:
  1021ff:	55                   	push   ebp
  102200:	89 e5                	mov    ebp,esp
  102202:	83 ec 18             	sub    esp,0x18
  102205:	e8 bb e3 ff ff       	call   1005c5 <__x86.get_pc_thunk.ax>
  10220a:	05 f6 1d 01 00       	add    eax,0x11df6
  10220f:	8b 4d 18             	mov    ecx,DWORD PTR [ebp+0x18]
  102212:	8b 55 1c             	mov    edx,DWORD PTR [ebp+0x1c]
  102215:	88 4d ec             	mov    BYTE PTR [ebp-0x14],cl
  102218:	88 55 e8             	mov    BYTE PTR [ebp-0x18],dl
  10221b:	c7 c2 f0 3f 11 00    	mov    edx,0x113ff0
  102221:	8b 4a 0c             	mov    ecx,DWORD PTR [edx+0xc]
  102224:	0f be 55 ec          	movsx  edx,BYTE PTR [ebp-0x14]
  102228:	c7 c0 00 e0 12 00    	mov    eax,0x12e000
  10222e:	8b 04 90             	mov    eax,DWORD PTR [eax+edx*4]
  102231:	c1 e0 04             	shl    eax,0x4
  102234:	01 c8                	add    eax,ecx
  102236:	89 45 fc             	mov    DWORD PTR [ebp-0x4],eax
  102239:	0f b6 45 e8          	movzx  eax,BYTE PTR [ebp-0x18]
  10223d:	50                   	push   eax
  10223e:	ff 75 fc             	push   DWORD PTR [ebp-0x4]
  102241:	ff 75 14             	push   DWORD PTR [ebp+0x14]
  102244:	ff 75 10             	push   DWORD PTR [ebp+0x10]
  102247:	ff 75 0c             	push   DWORD PTR [ebp+0xc]
  10224a:	ff 75 08             	push   DWORD PTR [ebp+0x8]
  10224d:	e8 50 fe ff ff       	call   1020a2 <drawGlyphTo>
  102252:	83 c4 18             	add    esp,0x18
  102255:	90                   	nop
  102256:	c9                   	leave  
  102257:	c3                   	ret    

00102258 <drawChar>:
  102258:	55                   	push   ebp
  102259:	89 e5                	mov    ebp,esp
  10225b:	83 ec 28             	sub    esp,0x28
  10225e:	e8 62 e3 ff ff       	call   1005c5 <__x86.get_pc_thunk.ax>
  102263:	05 9d 1d 01 00       	add    eax,0x11d9d
  102268:	8b 4d 10             	mov    ecx,DWORD PTR [ebp+0x10]
  10226b:	8b 55 14             	mov    edx,DWORD PTR [ebp+0x14]
  10226e:	88 4d e4             	mov    BYTE PTR [ebp-0x1c],cl
  102271:	88 55 e0             	mov    BYTE PTR [ebp-0x20],dl
  102274:	c7 c2 f0 3f 11 00    	mov    edx,0x113ff0
  10227a:	8b 4a 0c             	mov    ecx,DWORD PTR [edx+0xc]
  10227d:	0f be 55 e4          	movsx  edx,BYTE PTR [ebp-0x1c]
  102281:	c7 c0 00 e0 12 00    	mov    eax,0x12e000
  102287:	8b 04 90             	mov    eax,DWORD PTR [eax+edx*4]
  10228a:	c1 e0 04             	shl    eax,0x4
  10228d:	01 c8                	add    eax,ecx
  10228f:	89 45 f4             	mov    DWORD PTR [ebp-0xc],eax
  102292:	0f b6 45 e0          	movzx  eax,BYTE PTR [ebp-0x20]
  102296:	50                   	push   eax
  102297:	ff 75 f4             	push   DWORD PTR [ebp-0xc]
  10229a:	ff 75 0c             	push   DWORD PTR [ebp+0xc]
  10229d:	ff 75 08             	push   DWORD PTR [ebp+0x8]
  1022a0:	e8 80 fe ff ff       	call   102125 <drawGlyph>
  1022a5:	83 c4 10             	add    esp,0x10
  1022a8:	90                   	nop
  1022a9:	c9                   	leave  
  1022aa:	c3                   	ret    

001022ab <drawTextTo>:
  1022ab:	55                   	push   ebp
  1022ac:	89 e5                	mov    ebp,esp
  1022ae:	83 ec 04             	sub    esp,0x4
  1022b1:	e8 0f e3 ff ff       	call   1005c5 <__x86.get_pc_thunk.ax>
  1022b6:	05 4a 1d 01 00       	add    eax,0x11d4a
  1022bb:	8b 45 1c             	mov    eax,DWORD PTR [ebp+0x1c]
  1022be:	88 45 fc             	mov    BYTE PTR [ebp-0x4],al
  1022c1:	eb 2d                	jmp    1022f0 <drawTextTo+0x45>
  1022c3:	0f b6 55 fc          	movzx  edx,BYTE PTR [ebp-0x4]
  1022c7:	8b 45 18             	mov    eax,DWORD PTR [ebp+0x18]
  1022ca:	8d 48 01             	lea    ecx,[eax+0x1]
  1022cd:	89 4d 18             	mov    DWORD PTR [ebp+0x18],ecx
  1022d0:	0f b6 00             	movzx  eax,BYTE PTR [eax]
  1022d3:	0f be c0             	movsx  eax,al
  1022d6:	52                   	push   edx
  1022d7:	50                   	push   eax
  1022d8:	ff 75 14             	push   DWORD PTR [ebp+0x14]
  1022db:	ff 75 10             	push   DWORD PTR [ebp+0x10]
  1022de:	ff 75 0c             	push   DWORD PTR [ebp+0xc]
  1022e1:	ff 75 08             	push   DWORD PTR [ebp+0x8]
  1022e4:	e8 16 ff ff ff       	call   1021ff <drawCharTo>
  1022e9:	83 c4 18             	add    esp,0x18
  1022ec:	83 45 10 08          	add    DWORD PTR [ebp+0x10],0x8
  1022f0:	8b 45 18             	mov    eax,DWORD PTR [ebp+0x18]
  1022f3:	0f b6 00             	movzx  eax,BYTE PTR [eax]
  1022f6:	84 c0                	test   al,al
  1022f8:	75 c9                	jne    1022c3 <drawTextTo+0x18>
  1022fa:	90                   	nop
  1022fb:	c9                   	leave  
  1022fc:	c3                   	ret    

001022fd <drawText>:
  1022fd:	55                   	push   ebp
  1022fe:	89 e5                	mov    ebp,esp
  102300:	83 ec 18             	sub    esp,0x18
  102303:	e8 bd e2 ff ff       	call   1005c5 <__x86.get_pc_thunk.ax>
  102308:	05 f8 1c 01 00       	add    eax,0x11cf8
  10230d:	8b 45 14             	mov    eax,DWORD PTR [ebp+0x14]
  102310:	88 45 f4             	mov    BYTE PTR [ebp-0xc],al
  102313:	eb 27                	jmp    10233c <drawText+0x3f>
  102315:	0f b6 55 f4          	movzx  edx,BYTE PTR [ebp-0xc]
  102319:	8b 45 10             	mov    eax,DWORD PTR [ebp+0x10]
  10231c:	8d 48 01             	lea    ecx,[eax+0x1]
  10231f:	89 4d 10             	mov    DWORD PTR [ebp+0x10],ecx
  102322:	0f b6 00             	movzx  eax,BYTE PTR [eax]
  102325:	0f be c0             	movsx  eax,al
  102328:	52                   	push   edx
  102329:	50                   	push   eax
  10232a:	ff 75 0c             	push   DWORD PTR [ebp+0xc]
  10232d:	ff 75 08             	push   DWORD PTR [ebp+0x8]
  102330:	e8 23 ff ff ff       	call   102258 <drawChar>
  102335:	83 c4 10             	add    esp,0x10
  102338:	83 45 08 08          	add    DWORD PTR [ebp+0x8],0x8
  10233c:	8b 45 10             	mov    eax,DWORD PTR [ebp+0x10]
  10233f:	0f b6 00             	movzx  eax,BYTE PTR [eax]
  102342:	84 c0                	test   al,al
  102344:	75 cf                	jne    102315 <drawText+0x18>
  102346:	90                   	nop
  102347:	c9                   	leave  
  102348:	c3                   	ret    

00102349 <gotoxy>:
  102349:	55                   	push   ebp
  10234a:	89 e5                	mov    ebp,esp
  10234c:	e8 74 e2 ff ff       	call   1005c5 <__x86.get_pc_thunk.ax>
  102351:	05 af 1c 01 00       	add    eax,0x11caf
  102356:	c7 c2 fc df 12 00    	mov    edx,0x12dffc
  10235c:	8b 4d 08             	mov    ecx,DWORD PTR [ebp+0x8]
  10235f:	89 0a                	mov    DWORD PTR [edx],ecx
  102361:	c7 c0 e4 df 12 00    	mov    eax,0x12dfe4
  102367:	8b 55 0c             	mov    edx,DWORD PTR [ebp+0xc]
  10236a:	89 10                	mov    DWORD PTR [eax],edx
  10236c:	90                   	nop
  10236d:	5d                   	pop    ebp
  10236e:	c3                   	ret    

0010236f <putchar>:
  10236f:	55                   	push   ebp
  102370:	89 e5                	mov    ebp,esp
  102372:	56                   	push   esi
  102373:	53                   	push   ebx
  102374:	83 ec 10             	sub    esp,0x10
  102377:	e8 4d e2 ff ff       	call   1005c9 <__x86.get_pc_thunk.bx>
  10237c:	81 c3 84 1c 01 00    	add    ebx,0x11c84
  102382:	8b 55 08             	mov    edx,DWORD PTR [ebp+0x8]
  102385:	8b 45 0c             	mov    eax,DWORD PTR [ebp+0xc]
  102388:	88 55 f4             	mov    BYTE PTR [ebp-0xc],dl
  10238b:	88 45 f0             	mov    BYTE PTR [ebp-0x10],al
  10238e:	80 7d f4 0a          	cmp    BYTE PTR [ebp-0xc],0xa
  102392:	75 2d                	jne    1023c1 <putchar+0x52>
  102394:	c7 c0 fc df 12 00    	mov    eax,0x12dffc
  10239a:	c7 00 00 00 00 00    	mov    DWORD PTR [eax],0x0
  1023a0:	c7 c0 f0 3f 11 00    	mov    eax,0x113ff0
  1023a6:	0f b6 40 01          	movzx  eax,BYTE PTR [eax+0x1]
  1023aa:	0f b6 d0             	movzx  edx,al
  1023ad:	c7 c0 e4 df 12 00    	mov    eax,0x12dfe4
  1023b3:	8b 00                	mov    eax,DWORD PTR [eax]
  1023b5:	01 c2                	add    edx,eax
  1023b7:	c7 c0 e4 df 12 00    	mov    eax,0x12dfe4
  1023bd:	89 10                	mov    DWORD PTR [eax],edx
  1023bf:	eb 6f                	jmp    102430 <putchar+0xc1>
  1023c1:	80 7d f4 09          	cmp    BYTE PTR [ebp-0xc],0x9
  1023c5:	75 25                	jne    1023ec <putchar+0x7d>
  1023c7:	c7 c0 f0 3f 11 00    	mov    eax,0x113ff0
  1023cd:	0f b6 00             	movzx  eax,BYTE PTR [eax]
  1023d0:	0f b6 c0             	movzx  eax,al
  1023d3:	c1 e0 02             	shl    eax,0x2
  1023d6:	89 c2                	mov    edx,eax
  1023d8:	c7 c0 fc df 12 00    	mov    eax,0x12dffc
  1023de:	8b 00                	mov    eax,DWORD PTR [eax]
  1023e0:	01 c2                	add    edx,eax
  1023e2:	c7 c0 fc df 12 00    	mov    eax,0x12dffc
  1023e8:	89 10                	mov    DWORD PTR [eax],edx
  1023ea:	eb 44                	jmp    102430 <putchar+0xc1>
  1023ec:	0f b6 55 f0          	movzx  edx,BYTE PTR [ebp-0x10]
  1023f0:	0f be 45 f4          	movsx  eax,BYTE PTR [ebp-0xc]
  1023f4:	c7 c1 e4 df 12 00    	mov    ecx,0x12dfe4
  1023fa:	8b 09                	mov    ecx,DWORD PTR [ecx]
  1023fc:	89 ce                	mov    esi,ecx
  1023fe:	c7 c1 fc df 12 00    	mov    ecx,0x12dffc
  102404:	8b 09                	mov    ecx,DWORD PTR [ecx]
  102406:	52                   	push   edx
  102407:	50                   	push   eax
  102408:	56                   	push   esi
  102409:	51                   	push   ecx
  10240a:	e8 49 fe ff ff       	call   102258 <drawChar>
  10240f:	83 c4 10             	add    esp,0x10
  102412:	c7 c0 f0 3f 11 00    	mov    eax,0x113ff0
  102418:	0f b6 00             	movzx  eax,BYTE PTR [eax]
  10241b:	0f b6 d0             	movzx  edx,al
  10241e:	c7 c0 fc df 12 00    	mov    eax,0x12dffc
  102424:	8b 00                	mov    eax,DWORD PTR [eax]
  102426:	01 c2                	add    edx,eax
  102428:	c7 c0 fc df 12 00    	mov    eax,0x12dffc
  10242e:	89 10                	mov    DWORD PTR [eax],edx
  102430:	c7 c0 fc df 12 00    	mov    eax,0x12dffc
  102436:	8b 10                	mov    edx,DWORD PTR [eax]
  102438:	c7 c0 e8 df 12 00    	mov    eax,0x12dfe8
  10243e:	8b 00                	mov    eax,DWORD PTR [eax]
  102440:	39 c2                	cmp    edx,eax
  102442:	72 2b                	jb     10246f <putchar+0x100>
  102444:	c7 c0 fc df 12 00    	mov    eax,0x12dffc
  10244a:	c7 00 00 00 00 00    	mov    DWORD PTR [eax],0x0
  102450:	c7 c0 f0 3f 11 00    	mov    eax,0x113ff0
  102456:	0f b6 40 01          	movzx  eax,BYTE PTR [eax+0x1]
  10245a:	0f b6 d0             	movzx  edx,al
  10245d:	c7 c0 e4 df 12 00    	mov    eax,0x12dfe4
  102463:	8b 00                	mov    eax,DWORD PTR [eax]
  102465:	01 c2                	add    edx,eax
  102467:	c7 c0 e4 df 12 00    	mov    eax,0x12dfe4
  10246d:	89 10                	mov    DWORD PTR [eax],edx
  10246f:	c7 c0 e4 df 12 00    	mov    eax,0x12dfe4
  102475:	8b 10                	mov    edx,DWORD PTR [eax]
  102477:	c7 c0 ec df 12 00    	mov    eax,0x12dfec
  10247d:	8b 00                	mov    eax,DWORD PTR [eax]
  10247f:	39 c2                	cmp    edx,eax
  102481:	72 0c                	jb     10248f <putchar+0x120>
  102483:	c7 c0 e4 df 12 00    	mov    eax,0x12dfe4
  102489:	c7 00 00 00 00 00    	mov    DWORD PTR [eax],0x0
  10248f:	90                   	nop
  102490:	8d 65 f8             	lea    esp,[ebp-0x8]
  102493:	5b                   	pop    ebx
  102494:	5e                   	pop    esi
  102495:	5d                   	pop    ebp
  102496:	c3                   	ret    

00102497 <printstr>:
  102497:	55                   	push   ebp
  102498:	89 e5                	mov    ebp,esp
  10249a:	83 ec 18             	sub    esp,0x18
  10249d:	e8 23 e1 ff ff       	call   1005c5 <__x86.get_pc_thunk.ax>
  1024a2:	05 5e 1b 01 00       	add    eax,0x11b5e
  1024a7:	8b 45 0c             	mov    eax,DWORD PTR [ebp+0xc]
  1024aa:	88 45 f4             	mov    BYTE PTR [ebp-0xc],al
  1024ad:	eb 20                	jmp    1024cf <printstr+0x38>
  1024af:	0f b6 55 f4          	movzx  edx,BYTE PTR [ebp-0xc]
  1024b3:	8b 45 08             	mov    eax,DWORD PTR [ebp+0x8]
  1024b6:	8d 48 01             	lea    ecx,[eax+0x1]
  1024b9:	89 4d 08             	mov    DWORD PTR [ebp+0x8],ecx
  1024bc:	0f b6 00             	movzx  eax,BYTE PTR [eax]
  1024bf:	0f be c0             	movsx  eax,al
  1024c2:	83 ec 08             	sub    esp,0x8
  1024c5:	52                   	push   edx
  1024c6:	50                   	push   eax
  1024c7:	e8 a3 fe ff ff       	call   10236f <putchar>
  1024cc:	83 c4 10             	add    esp,0x10
  1024cf:	8b 45 08             	mov    eax,DWORD PTR [ebp+0x8]
  1024d2:	0f b6 00             	movzx  eax,BYTE PTR [eax]
  1024d5:	84 c0                	test   al,al
  1024d7:	75 d6                	jne    1024af <printstr+0x18>
  1024d9:	90                   	nop
  1024da:	c9                   	leave  
  1024db:	c3                   	ret    

001024dc <shtctl_init>:
  1024dc:	55                   	push   ebp
  1024dd:	89 e5                	mov    ebp,esp
  1024df:	53                   	push   ebx
  1024e0:	83 ec 14             	sub    esp,0x14
  1024e3:	e8 e1 e0 ff ff       	call   1005c9 <__x86.get_pc_thunk.bx>
  1024e8:	81 c3 18 1b 01 00    	add    ebx,0x11b18
  1024ee:	83 ec 0c             	sub    esp,0xc
  1024f1:	68 10 24 00 00       	push   0x2410
  1024f6:	e8 78 13 00 00       	call   103873 <mm_alloc_4k>
  1024fb:	83 c4 10             	add    esp,0x10
  1024fe:	89 c2                	mov    edx,eax
  102500:	c7 c0 f8 df 12 00    	mov    eax,0x12dff8
  102506:	89 10                	mov    DWORD PTR [eax],edx
  102508:	c7 c0 f8 df 12 00    	mov    eax,0x12dff8
  10250e:	8b 00                	mov    eax,DWORD PTR [eax]
  102510:	85 c0                	test   eax,eax
  102512:	75 0a                	jne    10251e <shtctl_init+0x42>
  102514:	b8 ff ff ff ff       	mov    eax,0xffffffff
  102519:	e9 af 00 00 00       	jmp    1025cd <shtctl_init+0xf1>
  10251e:	8b 45 08             	mov    eax,DWORD PTR [ebp+0x8]
  102521:	0f af 45 0c          	imul   eax,DWORD PTR [ebp+0xc]
  102525:	83 ec 0c             	sub    esp,0xc
  102528:	50                   	push   eax
  102529:	e8 45 13 00 00       	call   103873 <mm_alloc_4k>
  10252e:	83 c4 10             	add    esp,0x10
  102531:	89 c2                	mov    edx,eax
  102533:	c7 c0 f8 df 12 00    	mov    eax,0x12dff8
  102539:	8b 00                	mov    eax,DWORD PTR [eax]
  10253b:	89 10                	mov    DWORD PTR [eax],edx
  10253d:	c7 c0 f8 df 12 00    	mov    eax,0x12dff8
  102543:	8b 00                	mov    eax,DWORD PTR [eax]
  102545:	8b 00                	mov    eax,DWORD PTR [eax]
  102547:	85 c0                	test   eax,eax
  102549:	75 20                	jne    10256b <shtctl_init+0x8f>
  10254b:	c7 c0 f8 df 12 00    	mov    eax,0x12dff8
  102551:	8b 00                	mov    eax,DWORD PTR [eax]
  102553:	83 ec 08             	sub    esp,0x8
  102556:	68 e0 7f 00 00       	push   0x7fe0
  10255b:	50                   	push   eax
  10255c:	e8 3c 13 00 00       	call   10389d <mm_free_4k>
  102561:	83 c4 10             	add    esp,0x10
  102564:	b8 ff ff ff ff       	mov    eax,0xffffffff
  102569:	eb 62                	jmp    1025cd <shtctl_init+0xf1>
  10256b:	c7 c0 f8 df 12 00    	mov    eax,0x12dff8
  102571:	8b 00                	mov    eax,DWORD PTR [eax]
  102573:	8b 55 08             	mov    edx,DWORD PTR [ebp+0x8]
  102576:	89 50 04             	mov    DWORD PTR [eax+0x4],edx
  102579:	c7 c0 f8 df 12 00    	mov    eax,0x12dff8
  10257f:	8b 00                	mov    eax,DWORD PTR [eax]
  102581:	8b 55 0c             	mov    edx,DWORD PTR [ebp+0xc]
  102584:	89 50 08             	mov    DWORD PTR [eax+0x8],edx
  102587:	c7 c0 f8 df 12 00    	mov    eax,0x12dff8
  10258d:	8b 00                	mov    eax,DWORD PTR [eax]
  10258f:	c7 40 0c ff ff ff ff 	mov    DWORD PTR [eax+0xc],0xffffffff
  102596:	c7 45 f4 00 00 00 00 	mov    DWORD PTR [ebp-0xc],0x0
  10259d:	eb 20                	jmp    1025bf <shtctl_init+0xe3>
  10259f:	c7 c0 f8 df 12 00    	mov    eax,0x12dff8
  1025a5:	8b 00                	mov    eax,DWORD PTR [eax]
  1025a7:	8b 55 f4             	mov    edx,DWORD PTR [ebp-0xc]
  1025aa:	83 c2 21             	add    edx,0x21
  1025ad:	c1 e2 05             	shl    edx,0x5
  1025b0:	01 d0                	add    eax,edx
  1025b2:	83 c0 0c             	add    eax,0xc
  1025b5:	c7 00 00 00 00 00    	mov    DWORD PTR [eax],0x0
  1025bb:	83 45 f4 01          	add    DWORD PTR [ebp-0xc],0x1
  1025bf:	81 7d f4 ff 00 00 00 	cmp    DWORD PTR [ebp-0xc],0xff
  1025c6:	7e d7                	jle    10259f <shtctl_init+0xc3>
  1025c8:	b8 00 00 00 00       	mov    eax,0x0
  1025cd:	8b 5d fc             	mov    ebx,DWORD PTR [ebp-0x4]
  1025d0:	c9                   	leave  
  1025d1:	c3                   	ret    

001025d2 <sheet_alloc>:
  1025d2:	55                   	push   ebp
  1025d3:	89 e5                	mov    ebp,esp
  1025d5:	83 ec 10             	sub    esp,0x10
  1025d8:	e8 e8 df ff ff       	call   1005c5 <__x86.get_pc_thunk.ax>
  1025dd:	05 23 1a 01 00       	add    eax,0x11a23
  1025e2:	c7 45 fc 00 00 00 00 	mov    DWORD PTR [ebp-0x4],0x0
  1025e9:	eb 52                	jmp    10263d <sheet_alloc+0x6b>
  1025eb:	c7 c2 f8 df 12 00    	mov    edx,0x12dff8
  1025f1:	8b 12                	mov    edx,DWORD PTR [edx]
  1025f3:	8b 4d fc             	mov    ecx,DWORD PTR [ebp-0x4]
  1025f6:	83 c1 21             	add    ecx,0x21
  1025f9:	c1 e1 05             	shl    ecx,0x5
  1025fc:	01 ca                	add    edx,ecx
  1025fe:	83 c2 0c             	add    edx,0xc
  102601:	8b 12                	mov    edx,DWORD PTR [edx]
  102603:	85 d2                	test   edx,edx
  102605:	75 32                	jne    102639 <sheet_alloc+0x67>
  102607:	c7 c0 f8 df 12 00    	mov    eax,0x12dff8
  10260d:	8b 00                	mov    eax,DWORD PTR [eax]
  10260f:	8b 55 fc             	mov    edx,DWORD PTR [ebp-0x4]
  102612:	c1 e2 05             	shl    edx,0x5
  102615:	81 c2 10 04 00 00    	add    edx,0x410
  10261b:	01 d0                	add    eax,edx
  10261d:	89 45 f8             	mov    DWORD PTR [ebp-0x8],eax
  102620:	8b 45 f8             	mov    eax,DWORD PTR [ebp-0x8]
  102623:	c7 40 1c 01 00 00 00 	mov    DWORD PTR [eax+0x1c],0x1
  10262a:	8b 45 f8             	mov    eax,DWORD PTR [ebp-0x8]
  10262d:	c7 40 18 ff ff ff ff 	mov    DWORD PTR [eax+0x18],0xffffffff
  102634:	8b 45 f8             	mov    eax,DWORD PTR [ebp-0x8]
  102637:	eb 12                	jmp    10264b <sheet_alloc+0x79>
  102639:	83 45 fc 01          	add    DWORD PTR [ebp-0x4],0x1
  10263d:	81 7d fc ff 00 00 00 	cmp    DWORD PTR [ebp-0x4],0xff
  102644:	7e a5                	jle    1025eb <sheet_alloc+0x19>
  102646:	b8 00 00 00 00       	mov    eax,0x0
  10264b:	c9                   	leave  
  10264c:	c3                   	ret    

0010264d <sheet_setbuf>:
  10264d:	55                   	push   ebp
  10264e:	89 e5                	mov    ebp,esp
  102650:	e8 70 df ff ff       	call   1005c5 <__x86.get_pc_thunk.ax>
  102655:	05 ab 19 01 00       	add    eax,0x119ab
  10265a:	8b 45 08             	mov    eax,DWORD PTR [ebp+0x8]
  10265d:	8b 55 0c             	mov    edx,DWORD PTR [ebp+0xc]
  102660:	89 10                	mov    DWORD PTR [eax],edx
  102662:	8b 45 08             	mov    eax,DWORD PTR [ebp+0x8]
  102665:	8b 55 10             	mov    edx,DWORD PTR [ebp+0x10]
  102668:	89 50 04             	mov    DWORD PTR [eax+0x4],edx
  10266b:	8b 45 08             	mov    eax,DWORD PTR [ebp+0x8]
  10266e:	8b 55 14             	mov    edx,DWORD PTR [ebp+0x14]
  102671:	89 50 08             	mov    DWORD PTR [eax+0x8],edx
  102674:	8b 45 08             	mov    eax,DWORD PTR [ebp+0x8]
  102677:	8b 55 18             	mov    edx,DWORD PTR [ebp+0x18]
  10267a:	89 50 14             	mov    DWORD PTR [eax+0x14],edx
  10267d:	90                   	nop
  10267e:	5d                   	pop    ebp
  10267f:	c3                   	ret    

00102680 <sheet_updown>:
  102680:	55                   	push   ebp
  102681:	89 e5                	mov    ebp,esp
  102683:	56                   	push   esi
  102684:	53                   	push   ebx
  102685:	83 ec 20             	sub    esp,0x20
  102688:	e8 38 df ff ff       	call   1005c5 <__x86.get_pc_thunk.ax>
  10268d:	05 73 19 01 00       	add    eax,0x11973
  102692:	8b 55 08             	mov    edx,DWORD PTR [ebp+0x8]
  102695:	8b 52 18             	mov    edx,DWORD PTR [edx+0x18]
  102698:	89 55 e4             	mov    DWORD PTR [ebp-0x1c],edx
  10269b:	c7 c2 f8 df 12 00    	mov    edx,0x12dff8
  1026a1:	8b 12                	mov    edx,DWORD PTR [edx]
  1026a3:	8b 52 0c             	mov    edx,DWORD PTR [edx+0xc]
  1026a6:	83 c2 01             	add    edx,0x1
  1026a9:	39 55 0c             	cmp    DWORD PTR [ebp+0xc],edx
  1026ac:	7e 11                	jle    1026bf <sheet_updown+0x3f>
  1026ae:	c7 c2 f8 df 12 00    	mov    edx,0x12dff8
  1026b4:	8b 12                	mov    edx,DWORD PTR [edx]
  1026b6:	8b 52 0c             	mov    edx,DWORD PTR [edx+0xc]
  1026b9:	83 c2 01             	add    edx,0x1
  1026bc:	89 55 0c             	mov    DWORD PTR [ebp+0xc],edx
  1026bf:	83 7d 0c ff          	cmp    DWORD PTR [ebp+0xc],0xffffffff
  1026c3:	7d 07                	jge    1026cc <sheet_updown+0x4c>
  1026c5:	c7 45 0c ff ff ff ff 	mov    DWORD PTR [ebp+0xc],0xffffffff
  1026cc:	8b 55 08             	mov    edx,DWORD PTR [ebp+0x8]
  1026cf:	8b 4d 0c             	mov    ecx,DWORD PTR [ebp+0xc]
  1026d2:	89 4a 18             	mov    DWORD PTR [edx+0x18],ecx
  1026d5:	8b 55 e4             	mov    edx,DWORD PTR [ebp-0x1c]
  1026d8:	3b 55 0c             	cmp    edx,DWORD PTR [ebp+0xc]
  1026db:	0f 8e 29 01 00 00    	jle    10280a <sheet_updown+0x18a>
  1026e1:	83 7d 0c 00          	cmp    DWORD PTR [ebp+0xc],0x0
  1026e5:	78 66                	js     10274d <sheet_updown+0xcd>
  1026e7:	8b 55 e4             	mov    edx,DWORD PTR [ebp-0x1c]
  1026ea:	89 55 f4             	mov    DWORD PTR [ebp-0xc],edx
  1026ed:	eb 40                	jmp    10272f <sheet_updown+0xaf>
  1026ef:	c7 c2 f8 df 12 00    	mov    edx,0x12dff8
  1026f5:	8b 0a                	mov    ecx,DWORD PTR [edx]
  1026f7:	8b 55 f4             	mov    edx,DWORD PTR [ebp-0xc]
  1026fa:	8d 5a ff             	lea    ebx,[edx-0x1]
  1026fd:	c7 c2 f8 df 12 00    	mov    edx,0x12dff8
  102703:	8b 12                	mov    edx,DWORD PTR [edx]
  102705:	83 c3 04             	add    ebx,0x4
  102708:	8b 0c 99             	mov    ecx,DWORD PTR [ecx+ebx*4]
  10270b:	8b 5d f4             	mov    ebx,DWORD PTR [ebp-0xc]
  10270e:	83 c3 04             	add    ebx,0x4
  102711:	89 0c 9a             	mov    DWORD PTR [edx+ebx*4],ecx
  102714:	c7 c2 f8 df 12 00    	mov    edx,0x12dff8
  10271a:	8b 12                	mov    edx,DWORD PTR [edx]
  10271c:	8b 4d f4             	mov    ecx,DWORD PTR [ebp-0xc]
  10271f:	83 c1 04             	add    ecx,0x4
  102722:	8b 14 8a             	mov    edx,DWORD PTR [edx+ecx*4]
  102725:	8b 4d f4             	mov    ecx,DWORD PTR [ebp-0xc]
  102728:	89 4a 18             	mov    DWORD PTR [edx+0x18],ecx
  10272b:	83 6d f4 01          	sub    DWORD PTR [ebp-0xc],0x1
  10272f:	8b 55 f4             	mov    edx,DWORD PTR [ebp-0xc]
  102732:	3b 55 0c             	cmp    edx,DWORD PTR [ebp+0xc]
  102735:	7f b8                	jg     1026ef <sheet_updown+0x6f>
  102737:	c7 c0 f8 df 12 00    	mov    eax,0x12dff8
  10273d:	8b 00                	mov    eax,DWORD PTR [eax]
  10273f:	8b 55 0c             	mov    edx,DWORD PTR [ebp+0xc]
  102742:	8d 4a 04             	lea    ecx,[edx+0x4]
  102745:	8b 55 08             	mov    edx,DWORD PTR [ebp+0x8]
  102748:	89 14 88             	mov    DWORD PTR [eax+ecx*4],edx
  10274b:	eb 79                	jmp    1027c6 <sheet_updown+0x146>
  10274d:	c7 c2 f8 df 12 00    	mov    edx,0x12dff8
  102753:	8b 12                	mov    edx,DWORD PTR [edx]
  102755:	8b 52 0c             	mov    edx,DWORD PTR [edx+0xc]
  102758:	39 55 e4             	cmp    DWORD PTR [ebp-0x1c],edx
  10275b:	7d 58                	jge    1027b5 <sheet_updown+0x135>
  10275d:	8b 55 e4             	mov    edx,DWORD PTR [ebp-0x1c]
  102760:	89 55 f0             	mov    DWORD PTR [ebp-0x10],edx
  102763:	eb 40                	jmp    1027a5 <sheet_updown+0x125>
  102765:	c7 c2 f8 df 12 00    	mov    edx,0x12dff8
  10276b:	8b 0a                	mov    ecx,DWORD PTR [edx]
  10276d:	8b 55 f0             	mov    edx,DWORD PTR [ebp-0x10]
  102770:	8d 5a 01             	lea    ebx,[edx+0x1]
  102773:	c7 c2 f8 df 12 00    	mov    edx,0x12dff8
  102779:	8b 12                	mov    edx,DWORD PTR [edx]
  10277b:	83 c3 04             	add    ebx,0x4
  10277e:	8b 0c 99             	mov    ecx,DWORD PTR [ecx+ebx*4]
  102781:	8b 5d f0             	mov    ebx,DWORD PTR [ebp-0x10]
  102784:	83 c3 04             	add    ebx,0x4
  102787:	89 0c 9a             	mov    DWORD PTR [edx+ebx*4],ecx
  10278a:	c7 c2 f8 df 12 00    	mov    edx,0x12dff8
  102790:	8b 12                	mov    edx,DWORD PTR [edx]
  102792:	8b 4d f0             	mov    ecx,DWORD PTR [ebp-0x10]
  102795:	83 c1 04             	add    ecx,0x4
  102798:	8b 14 8a             	mov    edx,DWORD PTR [edx+ecx*4]
  10279b:	8b 4d f0             	mov    ecx,DWORD PTR [ebp-0x10]
  10279e:	89 4a 18             	mov    DWORD PTR [edx+0x18],ecx
  1027a1:	83 45 f0 01          	add    DWORD PTR [ebp-0x10],0x1
  1027a5:	c7 c2 f8 df 12 00    	mov    edx,0x12dff8
  1027ab:	8b 12                	mov    edx,DWORD PTR [edx]
  1027ad:	8b 52 0c             	mov    edx,DWORD PTR [edx+0xc]
  1027b0:	39 55 f0             	cmp    DWORD PTR [ebp-0x10],edx
  1027b3:	7c b0                	jl     102765 <sheet_updown+0xe5>
  1027b5:	c7 c0 f8 df 12 00    	mov    eax,0x12dff8
  1027bb:	8b 00                	mov    eax,DWORD PTR [eax]
  1027bd:	8b 50 0c             	mov    edx,DWORD PTR [eax+0xc]
  1027c0:	83 ea 01             	sub    edx,0x1
  1027c3:	89 50 0c             	mov    DWORD PTR [eax+0xc],edx
  1027c6:	8b 45 08             	mov    eax,DWORD PTR [ebp+0x8]
  1027c9:	8b 50 10             	mov    edx,DWORD PTR [eax+0x10]
  1027cc:	8b 45 08             	mov    eax,DWORD PTR [ebp+0x8]
  1027cf:	8b 40 08             	mov    eax,DWORD PTR [eax+0x8]
  1027d2:	8d 1c 02             	lea    ebx,[edx+eax*1]
  1027d5:	8b 45 08             	mov    eax,DWORD PTR [ebp+0x8]
  1027d8:	8b 50 0c             	mov    edx,DWORD PTR [eax+0xc]
  1027db:	8b 45 08             	mov    eax,DWORD PTR [ebp+0x8]
  1027de:	8b 40 04             	mov    eax,DWORD PTR [eax+0x4]
  1027e1:	8d 0c 02             	lea    ecx,[edx+eax*1]
  1027e4:	8b 45 08             	mov    eax,DWORD PTR [ebp+0x8]
  1027e7:	8b 50 10             	mov    edx,DWORD PTR [eax+0x10]
  1027ea:	8b 45 08             	mov    eax,DWORD PTR [ebp+0x8]
  1027ed:	8b 40 0c             	mov    eax,DWORD PTR [eax+0xc]
  1027f0:	83 ec 08             	sub    esp,0x8
  1027f3:	ff 75 0c             	push   DWORD PTR [ebp+0xc]
  1027f6:	ff 75 0c             	push   DWORD PTR [ebp+0xc]
  1027f9:	53                   	push   ebx
  1027fa:	51                   	push   ecx
  1027fb:	52                   	push   edx
  1027fc:	50                   	push   eax
  1027fd:	e8 c2 01 00 00       	call   1029c4 <sheet_refresh>
  102802:	83 c4 20             	add    esp,0x20
  102805:	e9 3d 01 00 00       	jmp    102947 <sheet_updown+0x2c7>
  10280a:	8b 55 e4             	mov    edx,DWORD PTR [ebp-0x1c]
  10280d:	3b 55 0c             	cmp    edx,DWORD PTR [ebp+0xc]
  102810:	0f 8d 31 01 00 00    	jge    102947 <sheet_updown+0x2c7>
  102816:	83 7d e4 00          	cmp    DWORD PTR [ebp-0x1c],0x0
  10281a:	78 69                	js     102885 <sheet_updown+0x205>
  10281c:	8b 55 e4             	mov    edx,DWORD PTR [ebp-0x1c]
  10281f:	89 55 ec             	mov    DWORD PTR [ebp-0x14],edx
  102822:	eb 40                	jmp    102864 <sheet_updown+0x1e4>
  102824:	c7 c2 f8 df 12 00    	mov    edx,0x12dff8
  10282a:	8b 0a                	mov    ecx,DWORD PTR [edx]
  10282c:	8b 55 ec             	mov    edx,DWORD PTR [ebp-0x14]
  10282f:	8d 5a 01             	lea    ebx,[edx+0x1]
  102832:	c7 c2 f8 df 12 00    	mov    edx,0x12dff8
  102838:	8b 12                	mov    edx,DWORD PTR [edx]
  10283a:	83 c3 04             	add    ebx,0x4
  10283d:	8b 0c 99             	mov    ecx,DWORD PTR [ecx+ebx*4]
  102840:	8b 5d ec             	mov    ebx,DWORD PTR [ebp-0x14]
  102843:	83 c3 04             	add    ebx,0x4
  102846:	89 0c 9a             	mov    DWORD PTR [edx+ebx*4],ecx
  102849:	c7 c2 f8 df 12 00    	mov    edx,0x12dff8
  10284f:	8b 12                	mov    edx,DWORD PTR [edx]
  102851:	8b 4d ec             	mov    ecx,DWORD PTR [ebp-0x14]
  102854:	83 c1 04             	add    ecx,0x4
  102857:	8b 14 8a             	mov    edx,DWORD PTR [edx+ecx*4]
  10285a:	8b 4d ec             	mov    ecx,DWORD PTR [ebp-0x14]
  10285d:	89 4a 18             	mov    DWORD PTR [edx+0x18],ecx
  102860:	83 45 ec 01          	add    DWORD PTR [ebp-0x14],0x1
  102864:	8b 55 ec             	mov    edx,DWORD PTR [ebp-0x14]
  102867:	3b 55 0c             	cmp    edx,DWORD PTR [ebp+0xc]
  10286a:	7c b8                	jl     102824 <sheet_updown+0x1a4>
  10286c:	c7 c0 f8 df 12 00    	mov    eax,0x12dff8
  102872:	8b 00                	mov    eax,DWORD PTR [eax]
  102874:	8b 55 0c             	mov    edx,DWORD PTR [ebp+0xc]
  102877:	8d 4a 04             	lea    ecx,[edx+0x4]
  10287a:	8b 55 08             	mov    edx,DWORD PTR [ebp+0x8]
  10287d:	89 14 88             	mov    DWORD PTR [eax+ecx*4],edx
  102880:	e9 83 00 00 00       	jmp    102908 <sheet_updown+0x288>
  102885:	c7 c2 f8 df 12 00    	mov    edx,0x12dff8
  10288b:	8b 12                	mov    edx,DWORD PTR [edx]
  10288d:	8b 52 0c             	mov    edx,DWORD PTR [edx+0xc]
  102890:	89 55 e8             	mov    DWORD PTR [ebp-0x18],edx
  102893:	eb 46                	jmp    1028db <sheet_updown+0x25b>
  102895:	c7 c2 f8 df 12 00    	mov    edx,0x12dff8
  10289b:	8b 0a                	mov    ecx,DWORD PTR [edx]
  10289d:	c7 c2 f8 df 12 00    	mov    edx,0x12dff8
  1028a3:	8b 12                	mov    edx,DWORD PTR [edx]
  1028a5:	8b 5d e8             	mov    ebx,DWORD PTR [ebp-0x18]
  1028a8:	8d 73 01             	lea    esi,[ebx+0x1]
  1028ab:	8b 5d e8             	mov    ebx,DWORD PTR [ebp-0x18]
  1028ae:	83 c3 04             	add    ebx,0x4
  1028b1:	8b 0c 99             	mov    ecx,DWORD PTR [ecx+ebx*4]
  1028b4:	8d 5e 04             	lea    ebx,[esi+0x4]
  1028b7:	89 0c 9a             	mov    DWORD PTR [edx+ebx*4],ecx
  1028ba:	c7 c2 f8 df 12 00    	mov    edx,0x12dff8
  1028c0:	8b 12                	mov    edx,DWORD PTR [edx]
  1028c2:	8b 4d e8             	mov    ecx,DWORD PTR [ebp-0x18]
  1028c5:	83 c1 01             	add    ecx,0x1
  1028c8:	83 c1 04             	add    ecx,0x4
  1028cb:	8b 14 8a             	mov    edx,DWORD PTR [edx+ecx*4]
  1028ce:	8b 4d e8             	mov    ecx,DWORD PTR [ebp-0x18]
  1028d1:	83 c1 01             	add    ecx,0x1
  1028d4:	89 4a 18             	mov    DWORD PTR [edx+0x18],ecx
  1028d7:	83 6d e8 01          	sub    DWORD PTR [ebp-0x18],0x1
  1028db:	8b 55 e8             	mov    edx,DWORD PTR [ebp-0x18]
  1028de:	3b 55 0c             	cmp    edx,DWORD PTR [ebp+0xc]
  1028e1:	7d b2                	jge    102895 <sheet_updown+0x215>
  1028e3:	c7 c2 f8 df 12 00    	mov    edx,0x12dff8
  1028e9:	8b 12                	mov    edx,DWORD PTR [edx]
  1028eb:	8b 4d 0c             	mov    ecx,DWORD PTR [ebp+0xc]
  1028ee:	8d 59 04             	lea    ebx,[ecx+0x4]
  1028f1:	8b 4d 08             	mov    ecx,DWORD PTR [ebp+0x8]
  1028f4:	89 0c 9a             	mov    DWORD PTR [edx+ebx*4],ecx
  1028f7:	c7 c0 f8 df 12 00    	mov    eax,0x12dff8
  1028fd:	8b 00                	mov    eax,DWORD PTR [eax]
  1028ff:	8b 50 0c             	mov    edx,DWORD PTR [eax+0xc]
  102902:	83 c2 01             	add    edx,0x1
  102905:	89 50 0c             	mov    DWORD PTR [eax+0xc],edx
  102908:	8b 45 08             	mov    eax,DWORD PTR [ebp+0x8]
  10290b:	8b 50 10             	mov    edx,DWORD PTR [eax+0x10]
  10290e:	8b 45 08             	mov    eax,DWORD PTR [ebp+0x8]
  102911:	8b 40 08             	mov    eax,DWORD PTR [eax+0x8]
  102914:	8d 1c 02             	lea    ebx,[edx+eax*1]
  102917:	8b 45 08             	mov    eax,DWORD PTR [ebp+0x8]
  10291a:	8b 50 0c             	mov    edx,DWORD PTR [eax+0xc]
  10291d:	8b 45 08             	mov    eax,DWORD PTR [ebp+0x8]
  102920:	8b 40 04             	mov    eax,DWORD PTR [eax+0x4]
  102923:	8d 0c 02             	lea    ecx,[edx+eax*1]
  102926:	8b 45 08             	mov    eax,DWORD PTR [ebp+0x8]
  102929:	8b 50 10             	mov    edx,DWORD PTR [eax+0x10]
  10292c:	8b 45 08             	mov    eax,DWORD PTR [ebp+0x8]
  10292f:	8b 40 0c             	mov    eax,DWORD PTR [eax+0xc]
  102932:	83 ec 08             	sub    esp,0x8
  102935:	ff 75 0c             	push   DWORD PTR [ebp+0xc]
  102938:	ff 75 0c             	push   DWORD PTR [ebp+0xc]
  10293b:	53                   	push   ebx
  10293c:	51                   	push   ecx
  10293d:	52                   	push   edx
  10293e:	50                   	push   eax
  10293f:	e8 80 00 00 00       	call   1029c4 <sheet_refresh>
  102944:	83 c4 20             	add    esp,0x20
  102947:	90                   	nop
  102948:	8d 65 f8             	lea    esp,[ebp-0x8]
  10294b:	5b                   	pop    ebx
  10294c:	5e                   	pop    esi
  10294d:	5d                   	pop    ebp
  10294e:	c3                   	ret    

0010294f <sheet_refresh_sheet>:
  10294f:	55                   	push   ebp
  102950:	89 e5                	mov    ebp,esp
  102952:	57                   	push   edi
  102953:	56                   	push   esi
  102954:	53                   	push   ebx
  102955:	83 ec 1c             	sub    esp,0x1c
  102958:	e8 68 dc ff ff       	call   1005c5 <__x86.get_pc_thunk.ax>
  10295d:	05 a3 16 01 00       	add    eax,0x116a3
  102962:	8b 45 08             	mov    eax,DWORD PTR [ebp+0x8]
  102965:	8b 40 18             	mov    eax,DWORD PTR [eax+0x18]
  102968:	85 c0                	test   eax,eax
  10296a:	78 4f                	js     1029bb <sheet_refresh_sheet+0x6c>
  10296c:	8b 45 08             	mov    eax,DWORD PTR [ebp+0x8]
  10296f:	8b 58 18             	mov    ebx,DWORD PTR [eax+0x18]
  102972:	8b 45 08             	mov    eax,DWORD PTR [ebp+0x8]
  102975:	8b 48 18             	mov    ecx,DWORD PTR [eax+0x18]
  102978:	8b 45 08             	mov    eax,DWORD PTR [ebp+0x8]
  10297b:	8b 50 10             	mov    edx,DWORD PTR [eax+0x10]
  10297e:	8b 45 18             	mov    eax,DWORD PTR [ebp+0x18]
  102981:	8d 3c 02             	lea    edi,[edx+eax*1]
  102984:	8b 45 08             	mov    eax,DWORD PTR [ebp+0x8]
  102987:	8b 50 0c             	mov    edx,DWORD PTR [eax+0xc]
  10298a:	8b 45 14             	mov    eax,DWORD PTR [ebp+0x14]
  10298d:	8d 34 02             	lea    esi,[edx+eax*1]
  102990:	8b 45 08             	mov    eax,DWORD PTR [ebp+0x8]
  102993:	8b 50 10             	mov    edx,DWORD PTR [eax+0x10]
  102996:	8b 45 10             	mov    eax,DWORD PTR [ebp+0x10]
  102999:	01 c2                	add    edx,eax
  10299b:	8b 45 08             	mov    eax,DWORD PTR [ebp+0x8]
  10299e:	8b 40 0c             	mov    eax,DWORD PTR [eax+0xc]
  1029a1:	89 45 e4             	mov    DWORD PTR [ebp-0x1c],eax
  1029a4:	8b 45 0c             	mov    eax,DWORD PTR [ebp+0xc]
  1029a7:	03 45 e4             	add    eax,DWORD PTR [ebp-0x1c]
  1029aa:	83 ec 08             	sub    esp,0x8
  1029ad:	53                   	push   ebx
  1029ae:	51                   	push   ecx
  1029af:	57                   	push   edi
  1029b0:	56                   	push   esi
  1029b1:	52                   	push   edx
  1029b2:	50                   	push   eax
  1029b3:	e8 0c 00 00 00       	call   1029c4 <sheet_refresh>
  1029b8:	83 c4 20             	add    esp,0x20
  1029bb:	90                   	nop
  1029bc:	8d 65 f4             	lea    esp,[ebp-0xc]
  1029bf:	5b                   	pop    ebx
  1029c0:	5e                   	pop    esi
  1029c1:	5f                   	pop    edi
  1029c2:	5d                   	pop    ebp
  1029c3:	c3                   	ret    

001029c4 <sheet_refresh>:
  1029c4:	55                   	push   ebp
  1029c5:	89 e5                	mov    ebp,esp
  1029c7:	53                   	push   ebx
  1029c8:	83 ec 44             	sub    esp,0x44
  1029cb:	e8 f9 db ff ff       	call   1005c9 <__x86.get_pc_thunk.bx>
  1029d0:	81 c3 30 16 01 00    	add    ebx,0x11630
  1029d6:	83 7d 08 00          	cmp    DWORD PTR [ebp+0x8],0x0
  1029da:	79 07                	jns    1029e3 <sheet_refresh+0x1f>
  1029dc:	c7 45 08 00 00 00 00 	mov    DWORD PTR [ebp+0x8],0x0
  1029e3:	83 7d 0c 00          	cmp    DWORD PTR [ebp+0xc],0x0
  1029e7:	79 07                	jns    1029f0 <sheet_refresh+0x2c>
  1029e9:	c7 45 0c 00 00 00 00 	mov    DWORD PTR [ebp+0xc],0x0
  1029f0:	c7 c0 f8 df 12 00    	mov    eax,0x12dff8
  1029f6:	8b 00                	mov    eax,DWORD PTR [eax]
  1029f8:	8b 40 04             	mov    eax,DWORD PTR [eax+0x4]
  1029fb:	39 45 10             	cmp    DWORD PTR [ebp+0x10],eax
  1029fe:	7e 0e                	jle    102a0e <sheet_refresh+0x4a>
  102a00:	c7 c0 f8 df 12 00    	mov    eax,0x12dff8
  102a06:	8b 00                	mov    eax,DWORD PTR [eax]
  102a08:	8b 40 04             	mov    eax,DWORD PTR [eax+0x4]
  102a0b:	89 45 10             	mov    DWORD PTR [ebp+0x10],eax
  102a0e:	c7 c0 f8 df 12 00    	mov    eax,0x12dff8
  102a14:	8b 00                	mov    eax,DWORD PTR [eax]
  102a16:	8b 40 08             	mov    eax,DWORD PTR [eax+0x8]
  102a19:	39 45 14             	cmp    DWORD PTR [ebp+0x14],eax
  102a1c:	7e 0e                	jle    102a2c <sheet_refresh+0x68>
  102a1e:	c7 c0 f8 df 12 00    	mov    eax,0x12dff8
  102a24:	8b 00                	mov    eax,DWORD PTR [eax]
  102a26:	8b 40 08             	mov    eax,DWORD PTR [eax+0x8]
  102a29:	89 45 14             	mov    DWORD PTR [ebp+0x14],eax
  102a2c:	c7 c0 f8 df 12 00    	mov    eax,0x12dff8
  102a32:	8b 00                	mov    eax,DWORD PTR [eax]
  102a34:	8b 40 0c             	mov    eax,DWORD PTR [eax+0xc]
  102a37:	39 45 1c             	cmp    DWORD PTR [ebp+0x1c],eax
  102a3a:	7e 0e                	jle    102a4a <sheet_refresh+0x86>
  102a3c:	c7 c0 f8 df 12 00    	mov    eax,0x12dff8
  102a42:	8b 00                	mov    eax,DWORD PTR [eax]
  102a44:	8b 40 0c             	mov    eax,DWORD PTR [eax+0xc]
  102a47:	89 45 1c             	mov    DWORD PTR [ebp+0x1c],eax
  102a4a:	8b 45 18             	mov    eax,DWORD PTR [ebp+0x18]
  102a4d:	89 45 f4             	mov    DWORD PTR [ebp-0xc],eax
  102a50:	e9 a0 01 00 00       	jmp    102bf5 <sheet_refresh+0x231>
  102a55:	c7 c0 f8 df 12 00    	mov    eax,0x12dff8
  102a5b:	8b 00                	mov    eax,DWORD PTR [eax]
  102a5d:	8b 55 f4             	mov    edx,DWORD PTR [ebp-0xc]
  102a60:	83 c2 04             	add    edx,0x4
  102a63:	8b 04 90             	mov    eax,DWORD PTR [eax+edx*4]
  102a66:	89 45 d8             	mov    DWORD PTR [ebp-0x28],eax
  102a69:	8b 55 d8             	mov    edx,DWORD PTR [ebp-0x28]
  102a6c:	c7 c0 f8 df 12 00    	mov    eax,0x12dff8
  102a72:	8b 00                	mov    eax,DWORD PTR [eax]
  102a74:	05 10 04 00 00       	add    eax,0x410
  102a79:	29 c2                	sub    edx,eax
  102a7b:	89 d0                	mov    eax,edx
  102a7d:	c1 f8 05             	sar    eax,0x5
  102a80:	89 45 d4             	mov    DWORD PTR [ebp-0x2c],eax
  102a83:	8b 45 d8             	mov    eax,DWORD PTR [ebp-0x28]
  102a86:	8b 00                	mov    eax,DWORD PTR [eax]
  102a88:	89 45 d0             	mov    DWORD PTR [ebp-0x30],eax
  102a8b:	c7 c0 f8 df 12 00    	mov    eax,0x12dff8
  102a91:	8b 00                	mov    eax,DWORD PTR [eax]
  102a93:	8b 00                	mov    eax,DWORD PTR [eax]
  102a95:	89 45 cc             	mov    DWORD PTR [ebp-0x34],eax
  102a98:	8b 45 d8             	mov    eax,DWORD PTR [ebp-0x28]
  102a9b:	8b 40 0c             	mov    eax,DWORD PTR [eax+0xc]
  102a9e:	8b 55 08             	mov    edx,DWORD PTR [ebp+0x8]
  102aa1:	29 c2                	sub    edx,eax
  102aa3:	89 d0                	mov    eax,edx
  102aa5:	89 45 f0             	mov    DWORD PTR [ebp-0x10],eax
  102aa8:	8b 45 d8             	mov    eax,DWORD PTR [ebp-0x28]
  102aab:	8b 40 0c             	mov    eax,DWORD PTR [eax+0xc]
  102aae:	8b 55 10             	mov    edx,DWORD PTR [ebp+0x10]
  102ab1:	29 c2                	sub    edx,eax
  102ab3:	89 d0                	mov    eax,edx
  102ab5:	89 45 ec             	mov    DWORD PTR [ebp-0x14],eax
  102ab8:	8b 45 d8             	mov    eax,DWORD PTR [ebp-0x28]
  102abb:	8b 40 10             	mov    eax,DWORD PTR [eax+0x10]
  102abe:	8b 55 0c             	mov    edx,DWORD PTR [ebp+0xc]
  102ac1:	29 c2                	sub    edx,eax
  102ac3:	89 d0                	mov    eax,edx
  102ac5:	89 45 e8             	mov    DWORD PTR [ebp-0x18],eax
  102ac8:	8b 45 d8             	mov    eax,DWORD PTR [ebp-0x28]
  102acb:	8b 40 10             	mov    eax,DWORD PTR [eax+0x10]
  102ace:	8b 55 14             	mov    edx,DWORD PTR [ebp+0x14]
  102ad1:	29 c2                	sub    edx,eax
  102ad3:	89 d0                	mov    eax,edx
  102ad5:	89 45 e4             	mov    DWORD PTR [ebp-0x1c],eax
  102ad8:	83 7d f0 00          	cmp    DWORD PTR [ebp-0x10],0x0
  102adc:	79 07                	jns    102ae5 <sheet_refresh+0x121>
  102ade:	c7 45 f0 00 00 00 00 	mov    DWORD PTR [ebp-0x10],0x0
  102ae5:	83 7d e8 00          	cmp    DWORD PTR [ebp-0x18],0x0
  102ae9:	79 07                	jns    102af2 <sheet_refresh+0x12e>
  102aeb:	c7 45 e8 00 00 00 00 	mov    DWORD PTR [ebp-0x18],0x0
  102af2:	8b 45 d8             	mov    eax,DWORD PTR [ebp-0x28]
  102af5:	8b 40 04             	mov    eax,DWORD PTR [eax+0x4]
  102af8:	39 45 ec             	cmp    DWORD PTR [ebp-0x14],eax
  102afb:	7e 09                	jle    102b06 <sheet_refresh+0x142>
  102afd:	8b 45 d8             	mov    eax,DWORD PTR [ebp-0x28]
  102b00:	8b 40 04             	mov    eax,DWORD PTR [eax+0x4]
  102b03:	89 45 ec             	mov    DWORD PTR [ebp-0x14],eax
  102b06:	8b 45 d8             	mov    eax,DWORD PTR [ebp-0x28]
  102b09:	8b 40 08             	mov    eax,DWORD PTR [eax+0x8]
  102b0c:	39 45 e4             	cmp    DWORD PTR [ebp-0x1c],eax
  102b0f:	7e 09                	jle    102b1a <sheet_refresh+0x156>
  102b11:	8b 45 d8             	mov    eax,DWORD PTR [ebp-0x28]
  102b14:	8b 40 08             	mov    eax,DWORD PTR [eax+0x8]
  102b17:	89 45 e4             	mov    DWORD PTR [ebp-0x1c],eax
  102b1a:	8b 45 e8             	mov    eax,DWORD PTR [ebp-0x18]
  102b1d:	89 45 e0             	mov    DWORD PTR [ebp-0x20],eax
  102b20:	e9 c0 00 00 00       	jmp    102be5 <sheet_refresh+0x221>
  102b25:	8b 45 d8             	mov    eax,DWORD PTR [ebp-0x28]
  102b28:	8b 50 10             	mov    edx,DWORD PTR [eax+0x10]
  102b2b:	8b 45 e0             	mov    eax,DWORD PTR [ebp-0x20]
  102b2e:	01 d0                	add    eax,edx
  102b30:	89 45 c8             	mov    DWORD PTR [ebp-0x38],eax
  102b33:	8b 45 f0             	mov    eax,DWORD PTR [ebp-0x10]
  102b36:	89 45 dc             	mov    DWORD PTR [ebp-0x24],eax
  102b39:	e9 97 00 00 00       	jmp    102bd5 <sheet_refresh+0x211>
  102b3e:	8b 45 d8             	mov    eax,DWORD PTR [ebp-0x28]
  102b41:	8b 50 0c             	mov    edx,DWORD PTR [eax+0xc]
  102b44:	8b 45 dc             	mov    eax,DWORD PTR [ebp-0x24]
  102b47:	01 d0                	add    eax,edx
  102b49:	89 45 c4             	mov    DWORD PTR [ebp-0x3c],eax
  102b4c:	8b 45 d8             	mov    eax,DWORD PTR [ebp-0x28]
  102b4f:	8b 40 04             	mov    eax,DWORD PTR [eax+0x4]
  102b52:	0f af 45 e0          	imul   eax,DWORD PTR [ebp-0x20]
  102b56:	89 c2                	mov    edx,eax
  102b58:	8b 45 dc             	mov    eax,DWORD PTR [ebp-0x24]
  102b5b:	01 d0                	add    eax,edx
  102b5d:	89 c2                	mov    edx,eax
  102b5f:	8b 45 d0             	mov    eax,DWORD PTR [ebp-0x30]
  102b62:	01 d0                	add    eax,edx
  102b64:	0f b6 00             	movzx  eax,BYTE PTR [eax]
  102b67:	88 45 c3             	mov    BYTE PTR [ebp-0x3d],al
  102b6a:	c7 c0 f8 df 12 00    	mov    eax,0x12dff8
  102b70:	8b 00                	mov    eax,DWORD PTR [eax]
  102b72:	8b 40 04             	mov    eax,DWORD PTR [eax+0x4]
  102b75:	0f af 45 c8          	imul   eax,DWORD PTR [ebp-0x38]
  102b79:	89 c2                	mov    edx,eax
  102b7b:	8b 45 c4             	mov    eax,DWORD PTR [ebp-0x3c]
  102b7e:	01 d0                	add    eax,edx
  102b80:	89 45 bc             	mov    DWORD PTR [ebp-0x44],eax
  102b83:	0f b6 55 c3          	movzx  edx,BYTE PTR [ebp-0x3d]
  102b87:	8b 45 d8             	mov    eax,DWORD PTR [ebp-0x28]
  102b8a:	8b 40 14             	mov    eax,DWORD PTR [eax+0x14]
  102b8d:	39 c2                	cmp    edx,eax
  102b8f:	74 14                	je     102ba5 <sheet_refresh+0x1e1>
  102b91:	8b 45 bc             	mov    eax,DWORD PTR [ebp-0x44]
  102b94:	8d 14 85 00 00 00 00 	lea    edx,[eax*4+0x0]
  102b9b:	8b 45 cc             	mov    eax,DWORD PTR [ebp-0x34]
  102b9e:	01 c2                	add    edx,eax
  102ba0:	8b 45 d4             	mov    eax,DWORD PTR [ebp-0x2c]
  102ba3:	89 02                	mov    DWORD PTR [edx],eax
  102ba5:	8b 45 bc             	mov    eax,DWORD PTR [ebp-0x44]
  102ba8:	8d 14 85 00 00 00 00 	lea    edx,[eax*4+0x0]
  102baf:	8b 45 cc             	mov    eax,DWORD PTR [ebp-0x34]
  102bb2:	01 d0                	add    eax,edx
  102bb4:	8b 00                	mov    eax,DWORD PTR [eax]
  102bb6:	39 45 d4             	cmp    DWORD PTR [ebp-0x2c],eax
  102bb9:	75 16                	jne    102bd1 <sheet_refresh+0x20d>
  102bbb:	0f b6 45 c3          	movzx  eax,BYTE PTR [ebp-0x3d]
  102bbf:	83 ec 04             	sub    esp,0x4
  102bc2:	50                   	push   eax
  102bc3:	ff 75 c8             	push   DWORD PTR [ebp-0x38]
  102bc6:	ff 75 c4             	push   DWORD PTR [ebp-0x3c]
  102bc9:	e8 12 f0 ff ff       	call   101be0 <putPixel>
  102bce:	83 c4 10             	add    esp,0x10
  102bd1:	83 45 dc 01          	add    DWORD PTR [ebp-0x24],0x1
  102bd5:	8b 45 dc             	mov    eax,DWORD PTR [ebp-0x24]
  102bd8:	3b 45 ec             	cmp    eax,DWORD PTR [ebp-0x14]
  102bdb:	0f 8c 5d ff ff ff    	jl     102b3e <sheet_refresh+0x17a>
  102be1:	83 45 e0 01          	add    DWORD PTR [ebp-0x20],0x1
  102be5:	8b 45 e0             	mov    eax,DWORD PTR [ebp-0x20]
  102be8:	3b 45 e4             	cmp    eax,DWORD PTR [ebp-0x1c]
  102beb:	0f 8c 34 ff ff ff    	jl     102b25 <sheet_refresh+0x161>
  102bf1:	83 45 f4 01          	add    DWORD PTR [ebp-0xc],0x1
  102bf5:	8b 45 f4             	mov    eax,DWORD PTR [ebp-0xc]
  102bf8:	3b 45 1c             	cmp    eax,DWORD PTR [ebp+0x1c]
  102bfb:	0f 8e 54 fe ff ff    	jle    102a55 <sheet_refresh+0x91>
  102c01:	90                   	nop
  102c02:	8b 5d fc             	mov    ebx,DWORD PTR [ebp-0x4]
  102c05:	c9                   	leave  
  102c06:	c3                   	ret    

00102c07 <sheet_slide>:
  102c07:	55                   	push   ebp
  102c08:	89 e5                	mov    ebp,esp
  102c0a:	56                   	push   esi
  102c0b:	53                   	push   ebx
  102c0c:	83 ec 10             	sub    esp,0x10
  102c0f:	e8 b1 d9 ff ff       	call   1005c5 <__x86.get_pc_thunk.ax>
  102c14:	05 ec 13 01 00       	add    eax,0x113ec
  102c19:	8b 45 08             	mov    eax,DWORD PTR [ebp+0x8]
  102c1c:	8b 40 0c             	mov    eax,DWORD PTR [eax+0xc]
  102c1f:	89 45 f4             	mov    DWORD PTR [ebp-0xc],eax
  102c22:	8b 45 08             	mov    eax,DWORD PTR [ebp+0x8]
  102c25:	8b 40 10             	mov    eax,DWORD PTR [eax+0x10]
  102c28:	89 45 f0             	mov    DWORD PTR [ebp-0x10],eax
  102c2b:	8b 45 08             	mov    eax,DWORD PTR [ebp+0x8]
  102c2e:	8b 55 0c             	mov    edx,DWORD PTR [ebp+0xc]
  102c31:	89 50 0c             	mov    DWORD PTR [eax+0xc],edx
  102c34:	8b 45 08             	mov    eax,DWORD PTR [ebp+0x8]
  102c37:	8b 55 10             	mov    edx,DWORD PTR [ebp+0x10]
  102c3a:	89 50 10             	mov    DWORD PTR [eax+0x10],edx
  102c3d:	8b 45 08             	mov    eax,DWORD PTR [ebp+0x8]
  102c40:	8b 40 18             	mov    eax,DWORD PTR [eax+0x18]
  102c43:	85 c0                	test   eax,eax
  102c45:	78 6c                	js     102cb3 <sheet_slide+0xac>
  102c47:	8b 45 08             	mov    eax,DWORD PTR [ebp+0x8]
  102c4a:	8b 40 18             	mov    eax,DWORD PTR [eax+0x18]
  102c4d:	8d 48 ff             	lea    ecx,[eax-0x1]
  102c50:	8b 45 08             	mov    eax,DWORD PTR [ebp+0x8]
  102c53:	8b 50 08             	mov    edx,DWORD PTR [eax+0x8]
  102c56:	8b 45 f0             	mov    eax,DWORD PTR [ebp-0x10]
  102c59:	01 c2                	add    edx,eax
  102c5b:	8b 45 08             	mov    eax,DWORD PTR [ebp+0x8]
  102c5e:	8b 58 04             	mov    ebx,DWORD PTR [eax+0x4]
  102c61:	8b 45 f4             	mov    eax,DWORD PTR [ebp-0xc]
  102c64:	01 d8                	add    eax,ebx
  102c66:	83 ec 08             	sub    esp,0x8
  102c69:	51                   	push   ecx
  102c6a:	6a 00                	push   0x0
  102c6c:	52                   	push   edx
  102c6d:	50                   	push   eax
  102c6e:	ff 75 f0             	push   DWORD PTR [ebp-0x10]
  102c71:	ff 75 f4             	push   DWORD PTR [ebp-0xc]
  102c74:	e8 4b fd ff ff       	call   1029c4 <sheet_refresh>
  102c79:	83 c4 20             	add    esp,0x20
  102c7c:	8b 45 08             	mov    eax,DWORD PTR [ebp+0x8]
  102c7f:	8b 50 18             	mov    edx,DWORD PTR [eax+0x18]
  102c82:	8b 45 08             	mov    eax,DWORD PTR [ebp+0x8]
  102c85:	8b 40 18             	mov    eax,DWORD PTR [eax+0x18]
  102c88:	8b 4d 08             	mov    ecx,DWORD PTR [ebp+0x8]
  102c8b:	8b 59 08             	mov    ebx,DWORD PTR [ecx+0x8]
  102c8e:	8b 4d 10             	mov    ecx,DWORD PTR [ebp+0x10]
  102c91:	01 cb                	add    ebx,ecx
  102c93:	8b 4d 08             	mov    ecx,DWORD PTR [ebp+0x8]
  102c96:	8b 71 04             	mov    esi,DWORD PTR [ecx+0x4]
  102c99:	8b 4d 0c             	mov    ecx,DWORD PTR [ebp+0xc]
  102c9c:	01 f1                	add    ecx,esi
  102c9e:	83 ec 08             	sub    esp,0x8
  102ca1:	52                   	push   edx
  102ca2:	50                   	push   eax
  102ca3:	53                   	push   ebx
  102ca4:	51                   	push   ecx
  102ca5:	ff 75 10             	push   DWORD PTR [ebp+0x10]
  102ca8:	ff 75 0c             	push   DWORD PTR [ebp+0xc]
  102cab:	e8 14 fd ff ff       	call   1029c4 <sheet_refresh>
  102cb0:	83 c4 20             	add    esp,0x20
  102cb3:	90                   	nop
  102cb4:	8d 65 f8             	lea    esp,[ebp-0x8]
  102cb7:	5b                   	pop    ebx
  102cb8:	5e                   	pop    esi
  102cb9:	5d                   	pop    ebp
  102cba:	c3                   	ret    

00102cbb <sheet_free>:
  102cbb:	55                   	push   ebp
  102cbc:	89 e5                	mov    ebp,esp
  102cbe:	83 ec 08             	sub    esp,0x8
  102cc1:	e8 ff d8 ff ff       	call   1005c5 <__x86.get_pc_thunk.ax>
  102cc6:	05 3a 13 01 00       	add    eax,0x1133a
  102ccb:	8b 45 08             	mov    eax,DWORD PTR [ebp+0x8]
  102cce:	8b 40 18             	mov    eax,DWORD PTR [eax+0x18]
  102cd1:	85 c0                	test   eax,eax
  102cd3:	78 10                	js     102ce5 <sheet_free+0x2a>
  102cd5:	83 ec 08             	sub    esp,0x8
  102cd8:	6a ff                	push   0xffffffff
  102cda:	ff 75 08             	push   DWORD PTR [ebp+0x8]
  102cdd:	e8 9e f9 ff ff       	call   102680 <sheet_updown>
  102ce2:	83 c4 10             	add    esp,0x10
  102ce5:	8b 45 08             	mov    eax,DWORD PTR [ebp+0x8]
  102ce8:	c7 40 1c 00 00 00 00 	mov    DWORD PTR [eax+0x1c],0x0
  102cef:	90                   	nop
  102cf0:	c9                   	leave  
  102cf1:	c3                   	ret    

00102cf2 <drawWindowTo>:
  102cf2:	55                   	push   ebp
  102cf3:	89 e5                	mov    ebp,esp
  102cf5:	53                   	push   ebx
  102cf6:	e8 ce d8 ff ff       	call   1005c9 <__x86.get_pc_thunk.bx>
  102cfb:	81 c3 05 13 01 00    	add    ebx,0x11305
  102d01:	6a 08                	push   0x8
  102d03:	6a 00                	push   0x0
  102d05:	ff 75 10             	push   DWORD PTR [ebp+0x10]
  102d08:	6a 00                	push   0x0
  102d0a:	6a 00                	push   0x0
  102d0c:	ff 75 0c             	push   DWORD PTR [ebp+0xc]
  102d0f:	ff 75 08             	push   DWORD PTR [ebp+0x8]
  102d12:	e8 40 ef ff ff       	call   101c57 <drawLineTo>
  102d17:	83 c4 1c             	add    esp,0x1c
  102d1a:	8b 45 10             	mov    eax,DWORD PTR [ebp+0x10]
  102d1d:	83 e8 01             	sub    eax,0x1
  102d20:	6a 07                	push   0x7
  102d22:	6a 01                	push   0x1
  102d24:	50                   	push   eax
  102d25:	6a 01                	push   0x1
  102d27:	6a 01                	push   0x1
  102d29:	ff 75 0c             	push   DWORD PTR [ebp+0xc]
  102d2c:	ff 75 08             	push   DWORD PTR [ebp+0x8]
  102d2f:	e8 23 ef ff ff       	call   101c57 <drawLineTo>
  102d34:	83 c4 1c             	add    esp,0x1c
  102d37:	6a 08                	push   0x8
  102d39:	ff 75 14             	push   DWORD PTR [ebp+0x14]
  102d3c:	6a 00                	push   0x0
  102d3e:	6a 00                	push   0x0
  102d40:	6a 00                	push   0x0
  102d42:	ff 75 0c             	push   DWORD PTR [ebp+0xc]
  102d45:	ff 75 08             	push   DWORD PTR [ebp+0x8]
  102d48:	e8 0a ef ff ff       	call   101c57 <drawLineTo>
  102d4d:	83 c4 1c             	add    esp,0x1c
  102d50:	8b 45 14             	mov    eax,DWORD PTR [ebp+0x14]
  102d53:	83 e8 01             	sub    eax,0x1
  102d56:	6a 07                	push   0x7
  102d58:	50                   	push   eax
  102d59:	6a 01                	push   0x1
  102d5b:	6a 01                	push   0x1
  102d5d:	6a 01                	push   0x1
  102d5f:	ff 75 0c             	push   DWORD PTR [ebp+0xc]
  102d62:	ff 75 08             	push   DWORD PTR [ebp+0x8]
  102d65:	e8 ed ee ff ff       	call   101c57 <drawLineTo>
  102d6a:	83 c4 1c             	add    esp,0x1c
  102d6d:	8b 45 10             	mov    eax,DWORD PTR [ebp+0x10]
  102d70:	8d 50 ff             	lea    edx,[eax-0x1]
  102d73:	8b 45 10             	mov    eax,DWORD PTR [ebp+0x10]
  102d76:	83 e8 01             	sub    eax,0x1
  102d79:	6a 00                	push   0x0
  102d7b:	ff 75 14             	push   DWORD PTR [ebp+0x14]
  102d7e:	52                   	push   edx
  102d7f:	6a 00                	push   0x0
  102d81:	50                   	push   eax
  102d82:	ff 75 0c             	push   DWORD PTR [ebp+0xc]
  102d85:	ff 75 08             	push   DWORD PTR [ebp+0x8]
  102d88:	e8 ca ee ff ff       	call   101c57 <drawLineTo>
  102d8d:	83 c4 1c             	add    esp,0x1c
  102d90:	8b 45 14             	mov    eax,DWORD PTR [ebp+0x14]
  102d93:	8d 48 ff             	lea    ecx,[eax-0x1]
  102d96:	8b 45 10             	mov    eax,DWORD PTR [ebp+0x10]
  102d99:	8d 50 fe             	lea    edx,[eax-0x2]
  102d9c:	8b 45 10             	mov    eax,DWORD PTR [ebp+0x10]
  102d9f:	83 e8 02             	sub    eax,0x2
  102da2:	6a 0f                	push   0xf
  102da4:	51                   	push   ecx
  102da5:	52                   	push   edx
  102da6:	6a 01                	push   0x1
  102da8:	50                   	push   eax
  102da9:	ff 75 0c             	push   DWORD PTR [ebp+0xc]
  102dac:	ff 75 08             	push   DWORD PTR [ebp+0x8]
  102daf:	e8 a3 ee ff ff       	call   101c57 <drawLineTo>
  102db4:	83 c4 1c             	add    esp,0x1c
  102db7:	8b 45 14             	mov    eax,DWORD PTR [ebp+0x14]
  102dba:	8d 50 ff             	lea    edx,[eax-0x1]
  102dbd:	8b 45 14             	mov    eax,DWORD PTR [ebp+0x14]
  102dc0:	83 e8 01             	sub    eax,0x1
  102dc3:	6a 00                	push   0x0
  102dc5:	52                   	push   edx
  102dc6:	ff 75 10             	push   DWORD PTR [ebp+0x10]
  102dc9:	50                   	push   eax
  102dca:	6a 00                	push   0x0
  102dcc:	ff 75 0c             	push   DWORD PTR [ebp+0xc]
  102dcf:	ff 75 08             	push   DWORD PTR [ebp+0x8]
  102dd2:	e8 80 ee ff ff       	call   101c57 <drawLineTo>
  102dd7:	83 c4 1c             	add    esp,0x1c
  102dda:	8b 45 14             	mov    eax,DWORD PTR [ebp+0x14]
  102ddd:	8d 48 fe             	lea    ecx,[eax-0x2]
  102de0:	8b 45 10             	mov    eax,DWORD PTR [ebp+0x10]
  102de3:	8d 50 ff             	lea    edx,[eax-0x1]
  102de6:	8b 45 14             	mov    eax,DWORD PTR [ebp+0x14]
  102de9:	83 e8 02             	sub    eax,0x2
  102dec:	6a 0f                	push   0xf
  102dee:	51                   	push   ecx
  102def:	52                   	push   edx
  102df0:	50                   	push   eax
  102df1:	6a 01                	push   0x1
  102df3:	ff 75 0c             	push   DWORD PTR [ebp+0xc]
  102df6:	ff 75 08             	push   DWORD PTR [ebp+0x8]
  102df9:	e8 59 ee ff ff       	call   101c57 <drawLineTo>
  102dfe:	83 c4 1c             	add    esp,0x1c
  102e01:	8b 45 14             	mov    eax,DWORD PTR [ebp+0x14]
  102e04:	8d 50 fe             	lea    edx,[eax-0x2]
  102e07:	8b 45 10             	mov    eax,DWORD PTR [ebp+0x10]
  102e0a:	83 e8 02             	sub    eax,0x2
  102e0d:	6a 08                	push   0x8
  102e0f:	52                   	push   edx
  102e10:	50                   	push   eax
  102e11:	6a 02                	push   0x2
  102e13:	6a 02                	push   0x2
  102e15:	ff 75 0c             	push   DWORD PTR [ebp+0xc]
  102e18:	ff 75 08             	push   DWORD PTR [ebp+0x8]
  102e1b:	e8 d1 f1 ff ff       	call   101ff1 <fillRectTo>
  102e20:	83 c4 1c             	add    esp,0x1c
  102e23:	8b 45 10             	mov    eax,DWORD PTR [ebp+0x10]
  102e26:	83 e8 03             	sub    eax,0x3
  102e29:	6a 0c                	push   0xc
  102e2b:	6a 14                	push   0x14
  102e2d:	50                   	push   eax
  102e2e:	6a 03                	push   0x3
  102e30:	6a 03                	push   0x3
  102e32:	ff 75 0c             	push   DWORD PTR [ebp+0xc]
  102e35:	ff 75 08             	push   DWORD PTR [ebp+0x8]
  102e38:	e8 b4 f1 ff ff       	call   101ff1 <fillRectTo>
  102e3d:	83 c4 1c             	add    esp,0x1c
  102e40:	6a 07                	push   0x7
  102e42:	ff 75 18             	push   DWORD PTR [ebp+0x18]
  102e45:	6a 04                	push   0x4
  102e47:	6a 18                	push   0x18
  102e49:	ff 75 0c             	push   DWORD PTR [ebp+0xc]
  102e4c:	ff 75 08             	push   DWORD PTR [ebp+0x8]
  102e4f:	e8 57 f4 ff ff       	call   1022ab <drawTextTo>
  102e54:	83 c4 18             	add    esp,0x18
  102e57:	8b 45 10             	mov    eax,DWORD PTR [ebp+0x10]
  102e5a:	8d 50 fb             	lea    edx,[eax-0x5]
  102e5d:	8b 45 10             	mov    eax,DWORD PTR [ebp+0x10]
  102e60:	83 e8 13             	sub    eax,0x13
  102e63:	6a 08                	push   0x8
  102e65:	6a 12                	push   0x12
  102e67:	52                   	push   edx
  102e68:	6a 05                	push   0x5
  102e6a:	50                   	push   eax
  102e6b:	ff 75 0c             	push   DWORD PTR [ebp+0xc]
  102e6e:	ff 75 08             	push   DWORD PTR [ebp+0x8]
  102e71:	e8 7b f1 ff ff       	call   101ff1 <fillRectTo>
  102e76:	83 c4 1c             	add    esp,0x1c
  102e79:	8b 45 10             	mov    eax,DWORD PTR [ebp+0x10]
  102e7c:	8d 50 ec             	lea    edx,[eax-0x14]
  102e7f:	6a 00                	push   0x0
  102e81:	8d 83 80 fd fe ff    	lea    eax,[ebx-0x10280]
  102e87:	50                   	push   eax
  102e88:	6a 05                	push   0x5
  102e8a:	52                   	push   edx
  102e8b:	ff 75 0c             	push   DWORD PTR [ebp+0xc]
  102e8e:	ff 75 08             	push   DWORD PTR [ebp+0x8]
  102e91:	e8 0c f2 ff ff       	call   1020a2 <drawGlyphTo>
  102e96:	83 c4 18             	add    esp,0x18
  102e99:	8b 45 10             	mov    eax,DWORD PTR [ebp+0x10]
  102e9c:	8d 50 f4             	lea    edx,[eax-0xc]
  102e9f:	6a 00                	push   0x0
  102ea1:	8d 83 90 fd fe ff    	lea    eax,[ebx-0x10270]
  102ea7:	50                   	push   eax
  102ea8:	6a 05                	push   0x5
  102eaa:	52                   	push   edx
  102eab:	ff 75 0c             	push   DWORD PTR [ebp+0xc]
  102eae:	ff 75 08             	push   DWORD PTR [ebp+0x8]
  102eb1:	e8 ec f1 ff ff       	call   1020a2 <drawGlyphTo>
  102eb6:	83 c4 18             	add    esp,0x18
  102eb9:	90                   	nop
  102eba:	8b 5d fc             	mov    ebx,DWORD PTR [ebp-0x4]
  102ebd:	c9                   	leave  
  102ebe:	c3                   	ret    
  102ebf:	90                   	nop

00102ec0 <io_hlt>:
  102ec0:	f4                   	hlt    

00102ec1 <io_sti>:
  102ec1:	fb                   	sti    
  102ec2:	c3                   	ret    

00102ec3 <io_cli>:
  102ec3:	fa                   	cli    
  102ec4:	c3                   	ret    

00102ec5 <io_load_eflags>:
  102ec5:	9c                   	pushf  
  102ec6:	58                   	pop    eax
  102ec7:	c3                   	ret    

00102ec8 <io_store_eflags>:
  102ec8:	8b 44 24 04          	mov    eax,DWORD PTR [esp+0x4]
  102ecc:	50                   	push   eax
  102ecd:	9d                   	popf   
  102ece:	c3                   	ret    

00102ecf <io_load_cr0>:
  102ecf:	0f 20 c0             	mov    eax,cr0
  102ed2:	c3                   	ret    

00102ed3 <io_store_cr0>:
  102ed3:	8b 44 24 04          	mov    eax,DWORD PTR [esp+0x4]
  102ed7:	0f 22 c0             	mov    cr0,eax
  102eda:	c3                   	ret    

00102edb <io_load_cr1>:
  102edb:	0f 20 c8             	mov    eax,cr1
  102ede:	c3                   	ret    

00102edf <io_store_cr1>:
  102edf:	8b 44 24 04          	mov    eax,DWORD PTR [esp+0x4]
  102ee3:	0f 22 c8             	mov    cr1,eax
  102ee6:	c3                   	ret    

00102ee7 <io_load_cr2>:
  102ee7:	0f 20 d0             	mov    eax,cr2
  102eea:	c3                   	ret    

00102eeb <io_store_cr2>:
  102eeb:	8b 44 24 04          	mov    eax,DWORD PTR [esp+0x4]
  102eef:	0f 22 d0             	mov    cr2,eax
  102ef2:	c3                   	ret    

00102ef3 <io_load_cr3>:
  102ef3:	0f 20 d8             	mov    eax,cr3
  102ef6:	c3                   	ret    

00102ef7 <io_store_cr3>:
  102ef7:	8b 44 24 04          	mov    eax,DWORD PTR [esp+0x4]
  102efb:	0f 22 d8             	mov    cr3,eax
  102efe:	c3                   	ret    

00102eff <in8>:
  102eff:	8b 54 24 04          	mov    edx,DWORD PTR [esp+0x4]
  102f03:	b8 00 00 00 00       	mov    eax,0x0
  102f08:	ec                   	in     al,dx
  102f09:	c3                   	ret    

00102f0a <in16>:
  102f0a:	8b 54 24 04          	mov    edx,DWORD PTR [esp+0x4]
  102f0e:	b8 00 00 00 00       	mov    eax,0x0
  102f13:	66 ed                	in     ax,dx
  102f15:	c3                   	ret    

00102f16 <in32>:
  102f16:	8b 54 24 04          	mov    edx,DWORD PTR [esp+0x4]
  102f1a:	ed                   	in     eax,dx
  102f1b:	c3                   	ret    

00102f1c <out8>:
  102f1c:	8b 54 24 04          	mov    edx,DWORD PTR [esp+0x4]
  102f20:	8a 44 24 08          	mov    al,BYTE PTR [esp+0x8]
  102f24:	ee                   	out    dx,al
  102f25:	c3                   	ret    

00102f26 <out16>:
  102f26:	8b 54 24 04          	mov    edx,DWORD PTR [esp+0x4]
  102f2a:	66 8b 44 24 08       	mov    ax,WORD PTR [esp+0x8]
  102f2f:	66 ef                	out    dx,ax
  102f31:	c3                   	ret    

00102f32 <out32>:
  102f32:	8b 54 24 04          	mov    edx,DWORD PTR [esp+0x4]
  102f36:	8b 44 24 08          	mov    eax,DWORD PTR [esp+0x8]
  102f3a:	ef                   	out    dx,eax
  102f3b:	c3                   	ret    

00102f3c <memcpy>:
  102f3c:	55                   	push   ebp
  102f3d:	89 e5                	mov    ebp,esp
  102f3f:	83 ec 10             	sub    esp,0x10
  102f42:	e8 7e d6 ff ff       	call   1005c5 <__x86.get_pc_thunk.ax>
  102f47:	05 b9 10 01 00       	add    eax,0x110b9
  102f4c:	c7 45 fc 00 00 00 00 	mov    DWORD PTR [ebp-0x4],0x0
  102f53:	eb 1b                	jmp    102f70 <memcpy+0x34>
  102f55:	8b 55 0c             	mov    edx,DWORD PTR [ebp+0xc]
  102f58:	8d 42 01             	lea    eax,[edx+0x1]
  102f5b:	89 45 0c             	mov    DWORD PTR [ebp+0xc],eax
  102f5e:	8b 45 08             	mov    eax,DWORD PTR [ebp+0x8]
  102f61:	8d 48 01             	lea    ecx,[eax+0x1]
  102f64:	89 4d 08             	mov    DWORD PTR [ebp+0x8],ecx
  102f67:	0f b6 12             	movzx  edx,BYTE PTR [edx]
  102f6a:	88 10                	mov    BYTE PTR [eax],dl
  102f6c:	83 45 fc 01          	add    DWORD PTR [ebp-0x4],0x1
  102f70:	8b 45 fc             	mov    eax,DWORD PTR [ebp-0x4]
  102f73:	3b 45 10             	cmp    eax,DWORD PTR [ebp+0x10]
  102f76:	7c dd                	jl     102f55 <memcpy+0x19>
  102f78:	90                   	nop
  102f79:	c9                   	leave  
  102f7a:	c3                   	ret    

00102f7b <memset>:
  102f7b:	55                   	push   ebp
  102f7c:	89 e5                	mov    ebp,esp
  102f7e:	83 ec 04             	sub    esp,0x4
  102f81:	e8 3f d6 ff ff       	call   1005c5 <__x86.get_pc_thunk.ax>
  102f86:	05 7a 10 01 00       	add    eax,0x1107a
  102f8b:	8b 45 0c             	mov    eax,DWORD PTR [ebp+0xc]
  102f8e:	88 45 fc             	mov    BYTE PTR [ebp-0x4],al
  102f91:	eb 0f                	jmp    102fa2 <memset+0x27>
  102f93:	8b 45 08             	mov    eax,DWORD PTR [ebp+0x8]
  102f96:	8d 50 01             	lea    edx,[eax+0x1]
  102f99:	89 55 08             	mov    DWORD PTR [ebp+0x8],edx
  102f9c:	0f b6 55 fc          	movzx  edx,BYTE PTR [ebp-0x4]
  102fa0:	88 10                	mov    BYTE PTR [eax],dl
  102fa2:	8b 45 10             	mov    eax,DWORD PTR [ebp+0x10]
  102fa5:	8d 50 ff             	lea    edx,[eax-0x1]
  102fa8:	89 55 10             	mov    DWORD PTR [ebp+0x10],edx
  102fab:	85 c0                	test   eax,eax
  102fad:	75 e4                	jne    102f93 <memset+0x18>
  102faf:	90                   	nop
  102fb0:	c9                   	leave  
  102fb1:	c3                   	ret    

00102fb2 <strcpy>:
  102fb2:	55                   	push   ebp
  102fb3:	89 e5                	mov    ebp,esp
  102fb5:	e8 0b d6 ff ff       	call   1005c5 <__x86.get_pc_thunk.ax>
  102fba:	05 46 10 01 00       	add    eax,0x11046
  102fbf:	eb 17                	jmp    102fd8 <strcpy+0x26>
  102fc1:	8b 55 0c             	mov    edx,DWORD PTR [ebp+0xc]
  102fc4:	8d 42 01             	lea    eax,[edx+0x1]
  102fc7:	89 45 0c             	mov    DWORD PTR [ebp+0xc],eax
  102fca:	8b 45 08             	mov    eax,DWORD PTR [ebp+0x8]
  102fcd:	8d 48 01             	lea    ecx,[eax+0x1]
  102fd0:	89 4d 08             	mov    DWORD PTR [ebp+0x8],ecx
  102fd3:	0f b6 12             	movzx  edx,BYTE PTR [edx]
  102fd6:	88 10                	mov    BYTE PTR [eax],dl
  102fd8:	8b 45 0c             	mov    eax,DWORD PTR [ebp+0xc]
  102fdb:	0f b6 00             	movzx  eax,BYTE PTR [eax]
  102fde:	84 c0                	test   al,al
  102fe0:	75 df                	jne    102fc1 <strcpy+0xf>
  102fe2:	90                   	nop
  102fe3:	5d                   	pop    ebp
  102fe4:	c3                   	ret    

00102fe5 <itoa>:
  102fe5:	55                   	push   ebp
  102fe6:	89 e5                	mov    ebp,esp
  102fe8:	83 ec 10             	sub    esp,0x10
  102feb:	e8 86 00 00 00       	call   103076 <__x86.get_pc_thunk.cx>
  102ff0:	81 c1 10 10 01 00    	add    ecx,0x11010
  102ff6:	c7 45 fc 00 00 00 00 	mov    DWORD PTR [ebp-0x4],0x0
  102ffd:	8d 81 e2 0f 00 00    	lea    eax,[ecx+0xfe2]
  103003:	89 45 f8             	mov    DWORD PTR [ebp-0x8],eax
  103006:	83 6d f8 01          	sub    DWORD PTR [ebp-0x8],0x1
  10300a:	8b 45 f8             	mov    eax,DWORD PTR [ebp-0x8]
  10300d:	c6 00 00             	mov    BYTE PTR [eax],0x0
  103010:	83 7d 08 00          	cmp    DWORD PTR [ebp+0x8],0x0
  103014:	79 0c                	jns    103022 <itoa+0x3d>
  103016:	c7 45 fc 01 00 00 00 	mov    DWORD PTR [ebp-0x4],0x1
  10301d:	f7 5d 08             	neg    DWORD PTR [ebp+0x8]
  103020:	eb 39                	jmp    10305b <itoa+0x76>
  103022:	83 7d 08 00          	cmp    DWORD PTR [ebp+0x8],0x0
  103026:	75 33                	jne    10305b <itoa+0x76>
  103028:	83 6d f8 01          	sub    DWORD PTR [ebp-0x8],0x1
  10302c:	8b 45 f8             	mov    eax,DWORD PTR [ebp-0x8]
  10302f:	c6 00 30             	mov    BYTE PTR [eax],0x30
  103032:	8b 45 f8             	mov    eax,DWORD PTR [ebp-0x8]
  103035:	eb 3d                	jmp    103074 <itoa+0x8f>
  103037:	8b 45 08             	mov    eax,DWORD PTR [ebp+0x8]
  10303a:	99                   	cdq    
  10303b:	f7 7d 0c             	idiv   DWORD PTR [ebp+0xc]
  10303e:	89 d0                	mov    eax,edx
  103040:	83 6d f8 01          	sub    DWORD PTR [ebp-0x8],0x1
  103044:	0f b6 94 01 d0 fd fe 	movzx  edx,BYTE PTR [ecx+eax*1-0x10230]
  10304b:	ff 
  10304c:	8b 45 f8             	mov    eax,DWORD PTR [ebp-0x8]
  10304f:	88 10                	mov    BYTE PTR [eax],dl
  103051:	8b 45 08             	mov    eax,DWORD PTR [ebp+0x8]
  103054:	99                   	cdq    
  103055:	f7 7d 0c             	idiv   DWORD PTR [ebp+0xc]
  103058:	89 45 08             	mov    DWORD PTR [ebp+0x8],eax
  10305b:	83 7d 08 00          	cmp    DWORD PTR [ebp+0x8],0x0
  10305f:	75 d6                	jne    103037 <itoa+0x52>
  103061:	83 7d fc 00          	cmp    DWORD PTR [ebp-0x4],0x0
  103065:	74 0a                	je     103071 <itoa+0x8c>
  103067:	83 6d f8 01          	sub    DWORD PTR [ebp-0x8],0x1
  10306b:	8b 45 f8             	mov    eax,DWORD PTR [ebp-0x8]
  10306e:	c6 00 2d             	mov    BYTE PTR [eax],0x2d
  103071:	8b 45 f8             	mov    eax,DWORD PTR [ebp-0x8]
  103074:	c9                   	leave  
  103075:	c3                   	ret    

00103076 <__x86.get_pc_thunk.cx>:
  103076:	8b 0c 24             	mov    ecx,DWORD PTR [esp]
  103079:	c3                   	ret    
  10307a:	66 90                	xchg   ax,ax
  10307c:	66 90                	xchg   ax,ax
  10307e:	66 90                	xchg   ax,ax

00103080 <syscall>:
  103080:	8b 44 24 04          	mov    eax,DWORD PTR [esp+0x4]
  103084:	cd 90                	int    0x90
  103086:	c3                   	ret    

00103087 <bga_write_register>:
  103087:	55                   	push   ebp
  103088:	89 e5                	mov    ebp,esp
  10308a:	53                   	push   ebx
  10308b:	83 ec 14             	sub    esp,0x14
  10308e:	e8 36 d5 ff ff       	call   1005c9 <__x86.get_pc_thunk.bx>
  103093:	81 c3 6d 0f 01 00    	add    ebx,0x10f6d
  103099:	8b 55 08             	mov    edx,DWORD PTR [ebp+0x8]
  10309c:	8b 45 0c             	mov    eax,DWORD PTR [ebp+0xc]
  10309f:	66 89 55 f4          	mov    WORD PTR [ebp-0xc],dx
  1030a3:	66 89 45 f0          	mov    WORD PTR [ebp-0x10],ax
  1030a7:	0f b7 45 f4          	movzx  eax,WORD PTR [ebp-0xc]
  1030ab:	83 ec 08             	sub    esp,0x8
  1030ae:	50                   	push   eax
  1030af:	68 ce 01 00 00       	push   0x1ce
  1030b4:	e8 6d fe ff ff       	call   102f26 <out16>
  1030b9:	83 c4 10             	add    esp,0x10
  1030bc:	0f b7 45 f0          	movzx  eax,WORD PTR [ebp-0x10]
  1030c0:	83 ec 08             	sub    esp,0x8
  1030c3:	50                   	push   eax
  1030c4:	68 cf 01 00 00       	push   0x1cf
  1030c9:	e8 58 fe ff ff       	call   102f26 <out16>
  1030ce:	83 c4 10             	add    esp,0x10
  1030d1:	90                   	nop
  1030d2:	8b 5d fc             	mov    ebx,DWORD PTR [ebp-0x4]
  1030d5:	c9                   	leave  
  1030d6:	c3                   	ret    

001030d7 <bga_read_register>:
  1030d7:	55                   	push   ebp
  1030d8:	89 e5                	mov    ebp,esp
  1030da:	53                   	push   ebx
  1030db:	83 ec 14             	sub    esp,0x14
  1030de:	e8 e6 d4 ff ff       	call   1005c9 <__x86.get_pc_thunk.bx>
  1030e3:	81 c3 1d 0f 01 00    	add    ebx,0x10f1d
  1030e9:	8b 45 08             	mov    eax,DWORD PTR [ebp+0x8]
  1030ec:	66 89 45 f4          	mov    WORD PTR [ebp-0xc],ax
  1030f0:	0f b7 45 f4          	movzx  eax,WORD PTR [ebp-0xc]
  1030f4:	83 ec 08             	sub    esp,0x8
  1030f7:	50                   	push   eax
  1030f8:	68 ce 01 00 00       	push   0x1ce
  1030fd:	e8 24 fe ff ff       	call   102f26 <out16>
  103102:	83 c4 10             	add    esp,0x10
  103105:	83 ec 0c             	sub    esp,0xc
  103108:	68 cf 01 00 00       	push   0x1cf
  10310d:	e8 f8 fd ff ff       	call   102f0a <in16>
  103112:	83 c4 10             	add    esp,0x10
  103115:	8b 5d fc             	mov    ebx,DWORD PTR [ebp-0x4]
  103118:	c9                   	leave  
  103119:	c3                   	ret    

0010311a <bga_set_video_mode>:
  10311a:	55                   	push   ebp
  10311b:	89 e5                	mov    ebp,esp
  10311d:	83 ec 08             	sub    esp,0x8
  103120:	e8 a0 d4 ff ff       	call   1005c5 <__x86.get_pc_thunk.ax>
  103125:	05 db 0e 01 00       	add    eax,0x10edb
  10312a:	83 ec 08             	sub    esp,0x8
  10312d:	6a 00                	push   0x0
  10312f:	6a 04                	push   0x4
  103131:	e8 51 ff ff ff       	call   103087 <bga_write_register>
  103136:	83 c4 10             	add    esp,0x10
  103139:	8b 45 08             	mov    eax,DWORD PTR [ebp+0x8]
  10313c:	0f b7 c0             	movzx  eax,ax
  10313f:	83 ec 08             	sub    esp,0x8
  103142:	50                   	push   eax
  103143:	6a 01                	push   0x1
  103145:	e8 3d ff ff ff       	call   103087 <bga_write_register>
  10314a:	83 c4 10             	add    esp,0x10
  10314d:	8b 45 0c             	mov    eax,DWORD PTR [ebp+0xc]
  103150:	0f b7 c0             	movzx  eax,ax
  103153:	83 ec 08             	sub    esp,0x8
  103156:	50                   	push   eax
  103157:	6a 02                	push   0x2
  103159:	e8 29 ff ff ff       	call   103087 <bga_write_register>
  10315e:	83 c4 10             	add    esp,0x10
  103161:	8b 45 10             	mov    eax,DWORD PTR [ebp+0x10]
  103164:	0f b7 c0             	movzx  eax,ax
  103167:	83 ec 08             	sub    esp,0x8
  10316a:	50                   	push   eax
  10316b:	6a 03                	push   0x3
  10316d:	e8 15 ff ff ff       	call   103087 <bga_write_register>
  103172:	83 c4 10             	add    esp,0x10
  103175:	83 7d 14 00          	cmp    DWORD PTR [ebp+0x14],0x0
  103179:	74 07                	je     103182 <bga_set_video_mode+0x68>
  10317b:	ba 41 00 00 00       	mov    edx,0x41
  103180:	eb 05                	jmp    103187 <bga_set_video_mode+0x6d>
  103182:	ba 01 00 00 00       	mov    edx,0x1
  103187:	83 7d 18 00          	cmp    DWORD PTR [ebp+0x18],0x0
  10318b:	74 07                	je     103194 <bga_set_video_mode+0x7a>
  10318d:	b8 00 00 00 00       	mov    eax,0x0
  103192:	eb 05                	jmp    103199 <bga_set_video_mode+0x7f>
  103194:	b8 80 00 00 00       	mov    eax,0x80
  103199:	09 d0                	or     eax,edx
  10319b:	0f b7 c0             	movzx  eax,ax
  10319e:	83 ec 08             	sub    esp,0x8
  1031a1:	50                   	push   eax
  1031a2:	6a 04                	push   0x4
  1031a4:	e8 de fe ff ff       	call   103087 <bga_write_register>
  1031a9:	83 c4 10             	add    esp,0x10
  1031ac:	90                   	nop
  1031ad:	c9                   	leave  
  1031ae:	c3                   	ret    

001031af <bga_set_bank>:
  1031af:	55                   	push   ebp
  1031b0:	89 e5                	mov    ebp,esp
  1031b2:	83 ec 18             	sub    esp,0x18
  1031b5:	e8 0b d4 ff ff       	call   1005c5 <__x86.get_pc_thunk.ax>
  1031ba:	05 46 0e 01 00       	add    eax,0x10e46
  1031bf:	8b 55 08             	mov    edx,DWORD PTR [ebp+0x8]
  1031c2:	66 89 55 f4          	mov    WORD PTR [ebp-0xc],dx
  1031c6:	0f b7 4d f4          	movzx  ecx,WORD PTR [ebp-0xc]
  1031ca:	c7 c2 04 e0 16 00    	mov    edx,0x16e004
  1031d0:	89 0a                	mov    DWORD PTR [edx],ecx
  1031d2:	c7 c2 04 e0 16 00    	mov    edx,0x16e004
  1031d8:	8b 12                	mov    edx,DWORD PTR [edx]
  1031da:	b9 00 00 01 00       	mov    ecx,0x10000
  1031df:	0f af ca             	imul   ecx,edx
  1031e2:	c7 c2 08 e0 16 00    	mov    edx,0x16e008
  1031e8:	89 0a                	mov    DWORD PTR [edx],ecx
  1031ea:	c7 c2 08 e0 16 00    	mov    edx,0x16e008
  1031f0:	8b 12                	mov    edx,DWORD PTR [edx]
  1031f2:	b9 00 00 01 00       	mov    ecx,0x10000
  1031f7:	01 ca                	add    edx,ecx
  1031f9:	c7 c0 00 e0 16 00    	mov    eax,0x16e000
  1031ff:	89 10                	mov    DWORD PTR [eax],edx
  103201:	0f b7 45 f4          	movzx  eax,WORD PTR [ebp-0xc]
  103205:	83 ec 08             	sub    esp,0x8
  103208:	50                   	push   eax
  103209:	6a 05                	push   0x5
  10320b:	e8 77 fe ff ff       	call   103087 <bga_write_register>
  103210:	83 c4 10             	add    esp,0x10
  103213:	90                   	nop
  103214:	c9                   	leave  
  103215:	c3                   	ret    

00103216 <fifo_init>:
  103216:	55                   	push   ebp
  103217:	89 e5                	mov    ebp,esp
  103219:	e8 a7 d3 ff ff       	call   1005c5 <__x86.get_pc_thunk.ax>
  10321e:	05 e2 0d 01 00       	add    eax,0x10de2
  103223:	8b 45 08             	mov    eax,DWORD PTR [ebp+0x8]
  103226:	8b 55 10             	mov    edx,DWORD PTR [ebp+0x10]
  103229:	89 10                	mov    DWORD PTR [eax],edx
  10322b:	8b 45 08             	mov    eax,DWORD PTR [ebp+0x8]
  10322e:	8b 55 10             	mov    edx,DWORD PTR [ebp+0x10]
  103231:	89 50 04             	mov    DWORD PTR [eax+0x4],edx
  103234:	8b 45 08             	mov    eax,DWORD PTR [ebp+0x8]
  103237:	8b 55 10             	mov    edx,DWORD PTR [ebp+0x10]
  10323a:	89 50 08             	mov    DWORD PTR [eax+0x8],edx
  10323d:	8b 45 08             	mov    eax,DWORD PTR [ebp+0x8]
  103240:	8b 55 0c             	mov    edx,DWORD PTR [ebp+0xc]
  103243:	89 50 0c             	mov    DWORD PTR [eax+0xc],edx
  103246:	8b 45 08             	mov    eax,DWORD PTR [ebp+0x8]
  103249:	c7 40 10 00 00 00 00 	mov    DWORD PTR [eax+0x10],0x0
  103250:	8b 45 08             	mov    eax,DWORD PTR [ebp+0x8]
  103253:	c7 40 14 00 00 00 00 	mov    DWORD PTR [eax+0x14],0x0
  10325a:	90                   	nop
  10325b:	5d                   	pop    ebp
  10325c:	c3                   	ret    

0010325d <fifo_push>:
  10325d:	55                   	push   ebp
  10325e:	89 e5                	mov    ebp,esp
  103260:	83 ec 04             	sub    esp,0x4
  103263:	e8 5d d3 ff ff       	call   1005c5 <__x86.get_pc_thunk.ax>
  103268:	05 98 0d 01 00       	add    eax,0x10d98
  10326d:	8b 45 0c             	mov    eax,DWORD PTR [ebp+0xc]
  103270:	88 45 fc             	mov    BYTE PTR [ebp-0x4],al
  103273:	8b 45 08             	mov    eax,DWORD PTR [ebp+0x8]
  103276:	8b 50 10             	mov    edx,DWORD PTR [eax+0x10]
  103279:	8b 45 08             	mov    eax,DWORD PTR [ebp+0x8]
  10327c:	8b 40 0c             	mov    eax,DWORD PTR [eax+0xc]
  10327f:	39 c2                	cmp    edx,eax
  103281:	7c 18                	jl     10329b <fifo_push+0x3e>
  103283:	8b 45 08             	mov    eax,DWORD PTR [ebp+0x8]
  103286:	8b 40 14             	mov    eax,DWORD PTR [eax+0x14]
  103289:	83 c8 01             	or     eax,0x1
  10328c:	89 c2                	mov    edx,eax
  10328e:	8b 45 08             	mov    eax,DWORD PTR [ebp+0x8]
  103291:	89 50 14             	mov    DWORD PTR [eax+0x14],edx
  103294:	b8 ff ff ff ff       	mov    eax,0xffffffff
  103299:	eb 4b                	jmp    1032e6 <fifo_push+0x89>
  10329b:	8b 45 08             	mov    eax,DWORD PTR [ebp+0x8]
  10329e:	8b 40 04             	mov    eax,DWORD PTR [eax+0x4]
  1032a1:	8d 48 01             	lea    ecx,[eax+0x1]
  1032a4:	8b 55 08             	mov    edx,DWORD PTR [ebp+0x8]
  1032a7:	89 4a 04             	mov    DWORD PTR [edx+0x4],ecx
  1032aa:	0f b6 55 fc          	movzx  edx,BYTE PTR [ebp-0x4]
  1032ae:	88 10                	mov    BYTE PTR [eax],dl
  1032b0:	8b 45 08             	mov    eax,DWORD PTR [ebp+0x8]
  1032b3:	8b 50 04             	mov    edx,DWORD PTR [eax+0x4]
  1032b6:	8b 45 08             	mov    eax,DWORD PTR [ebp+0x8]
  1032b9:	8b 08                	mov    ecx,DWORD PTR [eax]
  1032bb:	8b 45 08             	mov    eax,DWORD PTR [ebp+0x8]
  1032be:	8b 40 0c             	mov    eax,DWORD PTR [eax+0xc]
  1032c1:	01 c8                	add    eax,ecx
  1032c3:	39 c2                	cmp    edx,eax
  1032c5:	75 0b                	jne    1032d2 <fifo_push+0x75>
  1032c7:	8b 45 08             	mov    eax,DWORD PTR [ebp+0x8]
  1032ca:	8b 10                	mov    edx,DWORD PTR [eax]
  1032cc:	8b 45 08             	mov    eax,DWORD PTR [ebp+0x8]
  1032cf:	89 50 04             	mov    DWORD PTR [eax+0x4],edx
  1032d2:	8b 45 08             	mov    eax,DWORD PTR [ebp+0x8]
  1032d5:	8b 40 10             	mov    eax,DWORD PTR [eax+0x10]
  1032d8:	8d 50 01             	lea    edx,[eax+0x1]
  1032db:	8b 45 08             	mov    eax,DWORD PTR [ebp+0x8]
  1032de:	89 50 10             	mov    DWORD PTR [eax+0x10],edx
  1032e1:	b8 00 00 00 00       	mov    eax,0x0
  1032e6:	c9                   	leave  
  1032e7:	c3                   	ret    

001032e8 <fifo_pop>:
  1032e8:	55                   	push   ebp
  1032e9:	89 e5                	mov    ebp,esp
  1032eb:	83 ec 10             	sub    esp,0x10
  1032ee:	e8 d2 d2 ff ff       	call   1005c5 <__x86.get_pc_thunk.ax>
  1032f3:	05 0d 0d 01 00       	add    eax,0x10d0d
  1032f8:	8b 45 08             	mov    eax,DWORD PTR [ebp+0x8]
  1032fb:	8b 40 10             	mov    eax,DWORD PTR [eax+0x10]
  1032fe:	85 c0                	test   eax,eax
  103300:	75 07                	jne    103309 <fifo_pop+0x21>
  103302:	b8 ff ff ff ff       	mov    eax,0xffffffff
  103307:	eb 4c                	jmp    103355 <fifo_pop+0x6d>
  103309:	8b 45 08             	mov    eax,DWORD PTR [ebp+0x8]
  10330c:	8b 40 08             	mov    eax,DWORD PTR [eax+0x8]
  10330f:	8d 48 01             	lea    ecx,[eax+0x1]
  103312:	8b 55 08             	mov    edx,DWORD PTR [ebp+0x8]
  103315:	89 4a 08             	mov    DWORD PTR [edx+0x8],ecx
  103318:	0f b6 00             	movzx  eax,BYTE PTR [eax]
  10331b:	0f b6 c0             	movzx  eax,al
  10331e:	89 45 fc             	mov    DWORD PTR [ebp-0x4],eax
  103321:	8b 45 08             	mov    eax,DWORD PTR [ebp+0x8]
  103324:	8b 50 08             	mov    edx,DWORD PTR [eax+0x8]
  103327:	8b 45 08             	mov    eax,DWORD PTR [ebp+0x8]
  10332a:	8b 08                	mov    ecx,DWORD PTR [eax]
  10332c:	8b 45 08             	mov    eax,DWORD PTR [ebp+0x8]
  10332f:	8b 40 0c             	mov    eax,DWORD PTR [eax+0xc]
  103332:	01 c8                	add    eax,ecx
  103334:	39 c2                	cmp    edx,eax
  103336:	75 0b                	jne    103343 <fifo_pop+0x5b>
  103338:	8b 45 08             	mov    eax,DWORD PTR [ebp+0x8]
  10333b:	8b 10                	mov    edx,DWORD PTR [eax]
  10333d:	8b 45 08             	mov    eax,DWORD PTR [ebp+0x8]
  103340:	89 50 08             	mov    DWORD PTR [eax+0x8],edx
  103343:	8b 45 08             	mov    eax,DWORD PTR [ebp+0x8]
  103346:	8b 40 10             	mov    eax,DWORD PTR [eax+0x10]
  103349:	8d 50 ff             	lea    edx,[eax-0x1]
  10334c:	8b 45 08             	mov    eax,DWORD PTR [ebp+0x8]
  10334f:	89 50 10             	mov    DWORD PTR [eax+0x10],edx
  103352:	8b 45 fc             	mov    eax,DWORD PTR [ebp-0x4]
  103355:	c9                   	leave  
  103356:	c3                   	ret    

00103357 <mm_init>:
  103357:	55                   	push   ebp
  103358:	89 e5                	mov    ebp,esp
  10335a:	53                   	push   ebx
  10335b:	83 ec 34             	sub    esp,0x34
  10335e:	e8 66 d2 ff ff       	call   1005c9 <__x86.get_pc_thunk.bx>
  103363:	81 c3 9d 0c 01 00    	add    ebx,0x10c9d
  103369:	8b 83 8c 07 00 00    	mov    eax,DWORD PTR [ebx+0x78c]
  10336f:	c7 00 00 00 00 00    	mov    DWORD PTR [eax],0x0
  103375:	8b 83 8c 07 00 00    	mov    eax,DWORD PTR [ebx+0x78c]
  10337b:	c7 40 04 00 00 00 00 	mov    DWORD PTR [eax+0x4],0x0
  103382:	8b 83 8c 07 00 00    	mov    eax,DWORD PTR [ebx+0x78c]
  103388:	c7 40 08 00 00 00 00 	mov    DWORD PTR [eax+0x8],0x0
  10338f:	8b 83 8c 07 00 00    	mov    eax,DWORD PTR [ebx+0x78c]
  103395:	c7 40 0c 00 00 00 00 	mov    DWORD PTR [eax+0xc],0x0
  10339c:	c7 45 f4 00 00 00 00 	mov    DWORD PTR [ebp-0xc],0x0
  1033a3:	c7 45 f0 00 00 00 00 	mov    DWORD PTR [ebp-0x10],0x0
  1033aa:	c7 45 ec 00 00 00 00 	mov    DWORD PTR [ebp-0x14],0x0
  1033b1:	c7 c0 0c e0 16 00    	mov    eax,0x16e00c
  1033b7:	8b 00                	mov    eax,DWORD PTR [eax]
  1033b9:	89 45 e0             	mov    DWORD PTR [ebp-0x20],eax
  1033bc:	c7 c0 0c e0 16 00    	mov    eax,0x16e00c
  1033c2:	8b 00                	mov    eax,DWORD PTR [eax]
  1033c4:	83 c0 04             	add    eax,0x4
  1033c7:	89 45 e8             	mov    DWORD PTR [ebp-0x18],eax
  1033ca:	8b 45 e0             	mov    eax,DWORD PTR [ebp-0x20]
  1033cd:	8b 00                	mov    eax,DWORD PTR [eax]
  1033cf:	89 45 dc             	mov    DWORD PTR [ebp-0x24],eax
  1033d2:	c7 45 e4 00 00 00 00 	mov    DWORD PTR [ebp-0x1c],0x0
  1033d9:	eb 48                	jmp    103423 <mm_init+0xcc>
  1033db:	83 ec 04             	sub    esp,0x4
  1033de:	6a 14                	push   0x14
  1033e0:	ff 75 e8             	push   DWORD PTR [ebp-0x18]
  1033e3:	8d 45 c8             	lea    eax,[ebp-0x38]
  1033e6:	50                   	push   eax
  1033e7:	e8 50 fb ff ff       	call   102f3c <memcpy>
  1033ec:	83 c4 10             	add    esp,0x10
  1033ef:	83 45 e8 14          	add    DWORD PTR [ebp-0x18],0x14
  1033f3:	8b 45 d0             	mov    eax,DWORD PTR [ebp-0x30]
  1033f6:	01 45 f4             	add    DWORD PTR [ebp-0xc],eax
  1033f9:	8b 45 d8             	mov    eax,DWORD PTR [ebp-0x28]
  1033fc:	83 f8 01             	cmp    eax,0x1
  1033ff:	75 1e                	jne    10341f <mm_init+0xc8>
  103401:	8b 45 d0             	mov    eax,DWORD PTR [ebp-0x30]
  103404:	01 45 ec             	add    DWORD PTR [ebp-0x14],eax
  103407:	8b 55 c8             	mov    edx,DWORD PTR [ebp-0x38]
  10340a:	8b 45 d0             	mov    eax,DWORD PTR [ebp-0x30]
  10340d:	01 d0                	add    eax,edx
  10340f:	39 45 f0             	cmp    DWORD PTR [ebp-0x10],eax
  103412:	73 0b                	jae    10341f <mm_init+0xc8>
  103414:	8b 55 c8             	mov    edx,DWORD PTR [ebp-0x38]
  103417:	8b 45 d0             	mov    eax,DWORD PTR [ebp-0x30]
  10341a:	01 d0                	add    eax,edx
  10341c:	89 45 f0             	mov    DWORD PTR [ebp-0x10],eax
  10341f:	83 45 e4 01          	add    DWORD PTR [ebp-0x1c],0x1
  103423:	8b 45 e4             	mov    eax,DWORD PTR [ebp-0x1c]
  103426:	3b 45 dc             	cmp    eax,DWORD PTR [ebp-0x24]
  103429:	72 b0                	jb     1033db <mm_init+0x84>
  10342b:	83 ec 0c             	sub    esp,0xc
  10342e:	ff 75 f0             	push   DWORD PTR [ebp-0x10]
  103431:	e8 94 04 00 00       	call   1038ca <setup_paging>
  103436:	83 c4 10             	add    esp,0x10
  103439:	8b 45 f0             	mov    eax,DWORD PTR [ebp-0x10]
  10343c:	2d 00 00 40 00       	sub    eax,0x400000
  103441:	83 ec 08             	sub    esp,0x8
  103444:	50                   	push   eax
  103445:	68 00 00 40 00       	push   0x400000
  10344a:	e8 69 01 00 00       	call   1035b8 <mm_free>
  10344f:	83 c4 10             	add    esp,0x10
  103452:	8b 45 f4             	mov    eax,DWORD PTR [ebp-0xc]
  103455:	8b 5d fc             	mov    ebx,DWORD PTR [ebp-0x4]
  103458:	c9                   	leave  
  103459:	c3                   	ret    

0010345a <mm_total>:
  10345a:	55                   	push   ebp
  10345b:	89 e5                	mov    ebp,esp
  10345d:	83 ec 10             	sub    esp,0x10
  103460:	e8 60 d1 ff ff       	call   1005c5 <__x86.get_pc_thunk.ax>
  103465:	05 9b 0b 01 00       	add    eax,0x10b9b
  10346a:	c7 45 f8 00 00 00 00 	mov    DWORD PTR [ebp-0x8],0x0
  103471:	c7 45 fc 00 00 00 00 	mov    DWORD PTR [ebp-0x4],0x0
  103478:	eb 17                	jmp    103491 <mm_total+0x37>
  10347a:	8b 90 8c 07 00 00    	mov    edx,DWORD PTR [eax+0x78c]
  103480:	8b 4d fc             	mov    ecx,DWORD PTR [ebp-0x4]
  103483:	83 c1 02             	add    ecx,0x2
  103486:	8b 54 ca 04          	mov    edx,DWORD PTR [edx+ecx*8+0x4]
  10348a:	01 55 f8             	add    DWORD PTR [ebp-0x8],edx
  10348d:	83 45 fc 01          	add    DWORD PTR [ebp-0x4],0x1
  103491:	8b 90 8c 07 00 00    	mov    edx,DWORD PTR [eax+0x78c]
  103497:	8b 12                	mov    edx,DWORD PTR [edx]
  103499:	39 55 fc             	cmp    DWORD PTR [ebp-0x4],edx
  10349c:	72 dc                	jb     10347a <mm_total+0x20>
  10349e:	8b 45 f8             	mov    eax,DWORD PTR [ebp-0x8]
  1034a1:	c9                   	leave  
  1034a2:	c3                   	ret    

001034a3 <mm_alloc>:
  1034a3:	55                   	push   ebp
  1034a4:	89 e5                	mov    ebp,esp
  1034a6:	57                   	push   edi
  1034a7:	56                   	push   esi
  1034a8:	53                   	push   ebx
  1034a9:	83 ec 10             	sub    esp,0x10
  1034ac:	e8 14 d1 ff ff       	call   1005c5 <__x86.get_pc_thunk.ax>
  1034b1:	05 4f 0b 01 00       	add    eax,0x10b4f
  1034b6:	c7 45 f0 00 00 00 00 	mov    DWORD PTR [ebp-0x10],0x0
  1034bd:	e9 d8 00 00 00       	jmp    10359a <mm_alloc+0xf7>
  1034c2:	8b 90 8c 07 00 00    	mov    edx,DWORD PTR [eax+0x78c]
  1034c8:	8b 4d f0             	mov    ecx,DWORD PTR [ebp-0x10]
  1034cb:	83 c1 02             	add    ecx,0x2
  1034ce:	8b 54 ca 04          	mov    edx,DWORD PTR [edx+ecx*8+0x4]
  1034d2:	39 55 08             	cmp    DWORD PTR [ebp+0x8],edx
  1034d5:	0f 87 bb 00 00 00    	ja     103596 <mm_alloc+0xf3>
  1034db:	8b 90 8c 07 00 00    	mov    edx,DWORD PTR [eax+0x78c]
  1034e1:	8b 4d f0             	mov    ecx,DWORD PTR [ebp-0x10]
  1034e4:	83 c1 02             	add    ecx,0x2
  1034e7:	8b 14 ca             	mov    edx,DWORD PTR [edx+ecx*8]
  1034ea:	89 55 ec             	mov    DWORD PTR [ebp-0x14],edx
  1034ed:	8b 90 8c 07 00 00    	mov    edx,DWORD PTR [eax+0x78c]
  1034f3:	8b 4d f0             	mov    ecx,DWORD PTR [ebp-0x10]
  1034f6:	83 c1 02             	add    ecx,0x2
  1034f9:	8b 1c ca             	mov    ebx,DWORD PTR [edx+ecx*8]
  1034fc:	8b 90 8c 07 00 00    	mov    edx,DWORD PTR [eax+0x78c]
  103502:	8b 4d 08             	mov    ecx,DWORD PTR [ebp+0x8]
  103505:	01 cb                	add    ebx,ecx
  103507:	8b 4d f0             	mov    ecx,DWORD PTR [ebp-0x10]
  10350a:	83 c1 02             	add    ecx,0x2
  10350d:	89 1c ca             	mov    DWORD PTR [edx+ecx*8],ebx
  103510:	8b 90 8c 07 00 00    	mov    edx,DWORD PTR [eax+0x78c]
  103516:	8b 4d f0             	mov    ecx,DWORD PTR [ebp-0x10]
  103519:	83 c1 02             	add    ecx,0x2
  10351c:	8b 4c ca 04          	mov    ecx,DWORD PTR [edx+ecx*8+0x4]
  103520:	8b 90 8c 07 00 00    	mov    edx,DWORD PTR [eax+0x78c]
  103526:	2b 4d 08             	sub    ecx,DWORD PTR [ebp+0x8]
  103529:	8b 5d f0             	mov    ebx,DWORD PTR [ebp-0x10]
  10352c:	83 c3 02             	add    ebx,0x2
  10352f:	89 4c da 04          	mov    DWORD PTR [edx+ebx*8+0x4],ecx
  103533:	8b 90 8c 07 00 00    	mov    edx,DWORD PTR [eax+0x78c]
  103539:	8b 4d f0             	mov    ecx,DWORD PTR [ebp-0x10]
  10353c:	83 c1 02             	add    ecx,0x2
  10353f:	8b 54 ca 04          	mov    edx,DWORD PTR [edx+ecx*8+0x4]
  103543:	85 d2                	test   edx,edx
  103545:	75 4a                	jne    103591 <mm_alloc+0xee>
  103547:	8b 90 8c 07 00 00    	mov    edx,DWORD PTR [eax+0x78c]
  10354d:	8b 0a                	mov    ecx,DWORD PTR [edx]
  10354f:	83 e9 01             	sub    ecx,0x1
  103552:	89 0a                	mov    DWORD PTR [edx],ecx
  103554:	eb 2e                	jmp    103584 <mm_alloc+0xe1>
  103556:	8b 90 8c 07 00 00    	mov    edx,DWORD PTR [eax+0x78c]
  10355c:	8b 4d f0             	mov    ecx,DWORD PTR [ebp-0x10]
  10355f:	8d 79 01             	lea    edi,[ecx+0x1]
  103562:	8b 98 8c 07 00 00    	mov    ebx,DWORD PTR [eax+0x78c]
  103568:	8b 4d f0             	mov    ecx,DWORD PTR [ebp-0x10]
  10356b:	8d 71 02             	lea    esi,[ecx+0x2]
  10356e:	8d 4f 02             	lea    ecx,[edi+0x2]
  103571:	8d 0c ca             	lea    ecx,[edx+ecx*8]
  103574:	8b 11                	mov    edx,DWORD PTR [ecx]
  103576:	8b 49 04             	mov    ecx,DWORD PTR [ecx+0x4]
  103579:	89 14 f3             	mov    DWORD PTR [ebx+esi*8],edx
  10357c:	89 4c f3 04          	mov    DWORD PTR [ebx+esi*8+0x4],ecx
  103580:	83 45 f0 01          	add    DWORD PTR [ebp-0x10],0x1
  103584:	8b 90 8c 07 00 00    	mov    edx,DWORD PTR [eax+0x78c]
  10358a:	8b 12                	mov    edx,DWORD PTR [edx]
  10358c:	39 55 f0             	cmp    DWORD PTR [ebp-0x10],edx
